ccopy_reg
_reconstructor
p0
(copenalea.stse.io.walled_tissue.native_representation
IOTissueProperty
p1
c__builtin__
dict
p2
(dp3
I0
F32.970706019613409
sI1
F44.934445199320791
sI2
F43.928835225779686
sI3
F64.052118957047554
sI4
F77.376928876313983
sI5
F43.183896480651718
sI6
F71.289758812225926
sI7
F57.601079377637902
sI8
F56.846203019696567
sI9
F59.076814880428557
sI10
F32.970706019613381
sI11
F32.806735408192196
sI12
F32.958092895657948
sI13
F32.806735408192232
sI14
F33.450004729921474
sI15
F37.620362168654687
sI16
F60.379406590739464
sI17
F58.314294204938427
sI18
F43.179309890122504
sI19
F41.105024323262903
sI20
F43.498460147783732
sI21
F41.563683376189296
sI22
F43.515277646391091
sI23
F41.222364597636592
sI24
F42.507374377585343
sI25
F60.392019714694932
sI26
F52.067357904080971
sI27
F32.958092895657956
sI28
F33.450004729921496
sI29
F32.806735408192225
sI30
F32.970706019613395
sI31
F58.276072617194529
sI32
F56.321802835850711
sI33
F42.419846941651869
sI34
F44.166955717423967
sI35
F41.085149097636098
sI36
F41.725742908223268
sI37
F40.923853997356943
sI38
F41.21166255306828
sI39
F40.839384288443043
sI40
F41.647388653348365
sI41
F42.123629636636942
sI42
F48.428280534987529
sI43
F60.823541440323154
sI44
F33.261954518221678
sI45
F32.958092895657941
sI46
F32.970706019613431
sI47
F37.939130210438499
sI48
F47.985292333036185
sI49
F42.481765913796941
sI50
F41.125663980644596
sI51
F41.624455700702022
sI52
F40.741154807941335
sI53
F41.056100690950743
sI54
F40.873783717412508
sI55
F40.771732078136381
sI56
F40.940671495964317
sI57
F40.887543489000322
sI58
F40.962075585100884
sI59
F41.677201491788537
sI60
F41.578589795409385
sI61
F65.197619941731205
sI62
F42.2654317271667
sI63
F33.180160320449765
sI64
F54.922892724425232
sI65
F42.579230962543768
sI66
F42.044893165884588
sI67
F40.946786950003265
sI68
F40.913151952788702
sI69
F40.972013197914237
sI70
F40.943729222983798
sI71
F40.671209302369974
sI72
F40.897481101813717
sI73
F40.880663603206401
sI74
F40.90894757813691
sI75
F40.715546344152905
sI76
F41.133690514070793
sI77
F41.997880612959541
sI78
F61.015031594920025
sI79
F71.781288430612051
sI80
F47.509815781502482
sI81
F51.864019057283599
sI82
F41.565594455576502
sI83
F41.575149852512432
sI84
F40.959400073958783
sI85
F41.552599115743533
sI86
F40.855819571172937
sI87
F41.364931119921152
sI88
F40.989977344153857
sI89
F41.539221560033184
sI90
F40.886396841368025
sI91
F41.560243433292328
sI92
F40.639485384542652
sI93
F41.624837916579409
sI94
F41.675672628278804
sI95
F45.568159124114082
sI96
F66.943582069871042
sI97
F54.137821312166231
sI98
F41.44634310181565
sI99
F41.099673300978772
sI100
F40.750710204877294
sI101
F40.861552809334484
sI102
F40.935702689557587
sI103
F40.686880153345051
sI104
F40.892512295407016
sI105
F40.708666458359005
sI106
F40.866903831618629
sI107
F40.914680816298485
sI108
F40.989595128276463
sI109
F40.868432695128412
sI110
F40.729306115740691
sI111
F41.225040108778636
sI112
F42.169113326052162
sI113
F44.067197373412533
sI114
F49.845154792652629
sI115
F41.481889178417376
sI116
F41.057629554460469
sI117
F40.920031838582567
sI118
F40.727777252230915
sI119
F40.929205019641088
sI120
F40.90818314638198
sI121
F40.943729222983755
sI122
F40.881045819083795
sI123
F40.887925704877709
sI124
F40.92882280376368
sI125
F40.746505830225423
sI126
F40.94755138175816
sI127
F40.89365894303927
sI128
F41.240710959753564
sI129
F43.976994426336958
sI130
F41.283136922149311
sI131
F50.159718459784628
sI132
F41.280843626884661
sI133
F41.552216899866188
sI134
F40.914298600420992
sI135
F41.488004632456445
sI136
F40.702551004319965
sI137
F41.578207579531949
sI138
F40.893276727161805
sI139
F41.477302587888097
sI140
F41.005265979251419
sI141
F41.132926082315912
sI142
F40.89365894303927
sI143
F41.525461788445412
sI144
F40.867286047496044
sI145
F41.65656183440683
sI146
F42.080057026608955
sI147
F41.308363170060261
sI148
F51.567801752268714
sI149
F42.089230207667512
sI150
F41.141717047497032
sI151
F40.90283212409787
sI152
F40.767909919362019
sI153
F40.645983054459045
sI154
F40.929587235518682
sI155
F40.996857229947821
sI156
F40.840913151952783
sI157
F40.928822803763644
sI158
F40.917356327440601
sI159
F40.910094225769221
sI160
F40.907418714627156
sI161
F40.938378200699553
sI162
F41.038900976466095
sI163
F44.956613720212239
sI164
F44.917245484836201
sI165
F51.259735755053171
sI166
F41.240328743876155
sI167
F41.378690891508903
sI168
F40.886014625490574
sI169
F40.957106778694104
sI170
F40.853526275908358
sI171
F40.696435550280924
sI172
F40.927293940253989
sI173
F40.733510490392518
sI174
F40.957106778694204
sI175
F40.87684144443201
sI176
F40.703697651952432
sI177
F40.90206769234301
sI178
F40.931880530783218
sI179
F41.424174580924074
sI180
F43.164785686779908
sI181
F43.048209844160972
sI182
F49.194241153374662
sI183
F41.001826036354423
sI184
F41.505586562818628
sI185
F40.842442015462524
sI186
F40.916591895685663
sI187
F40.959782289836134
sI188
F38.917220640803976
sI189
F40.046286342757746
sI190
F34.430770671428988
sI191
F39.329249356682872
sI192
F37.085642156117935
sI193
F40.927676156131312
sI194
F40.790078440253481
sI195
F40.878370307941765
sI196
F41.4486363970802
sI197
F42.223387980648361
sI198
F62.423114887403898
sI199
F32.970706019613424
sI200
F55.407160241140019
sI201
F44.449413250851066
sI202
F42.20465940265403
sI203
F41.116873015463511
sI204
F41.168472158917773
sI205
F32.970706019613509
sI206
F33.286034118500346
sI207
F33.45000472992146
sI208
F32.970706019613516
sI209
F38.644700720190343
sI210
F41.415383615743124
sI211
F42.070119413795496
sI212
F43.290152494579679
sI213
F46.722451073978931
sI214
F62.7002213985472
sI215
F32.970706019613331
sI216
F58.354809087946954
sI217
F51.292224104635558
sI218
F41.374104300979646
sI219
F41.185671873402384
sI220
F39.313960721585325
sI221
F34.545817650538076
sI222
F33.21073759064484
sI223
F35.385163717393397
sI224
F41.329767259196778
sI225
F41.32862061156446
sI226
F40.979275299585574
sI227
F55.59368158933006
sI228
F38.012897874784116
sI229
F32.806735408192239
sI230
F35.152012032155831
sI231
F58.932719494634192
sI232
F47.983381253649007
sI233
F41.578972011286943
sI234
F42.585346416582787
sI235
F41.675672628278896
sI236
F35.581240462519403
sI237
F38.636674186764004
sI238
F34.505684983407029
sI239
F41.380601970896301
sI240
F41.188729600421958
sI241
F42.635034480649971
sI242
F45.73174751965783
sI243
F60.223462512744568
sI244
F63.014402849801563
sI245
F32.958092895658034
sI246
F32.970706019613424
sI247
F65.403252083793234
sI248
F64.824195029473486
sI249
F45.548283898487348
sI250
F41.296896693737096
sI251
F43.241228862267619
sI252
F41.992147374798009
sI253
F42.170642189561939
sI254
F42.39538512549575
sI255
F40.495389998748323
sI256
F47.892796090695946
sI257
F46.331826447236473
sI258
F48.649201312146992
sI259
F32.806735408192289
sI260
F33.450004729921439
sI261
F32.958092895657941
sI262
F34.735014509870226
sI263
F38.90307865333876
sI264
F59.46552842778361
sI265
F62.814886161778588
sI266
F40.390662848329974
sI267
F52.86657130380523
sI268
F40.17815082047413
sI269
F66.728789081313096
sI270
F41.238799880366379
sI271
F57.769636579588258
sI272
F57.825822313571805
sI273
F32.806735408192182
sI274
F32.958092895657892
sI275
F32.80673540819221
sI276
F33.027926533167509
sI277
F36.800714202995181
sI278
F56.475173948426864
sI279
F55.628282204301456
sI280
F49.554343172968814
sI281
F33.027926533167502
sI282
F33.214969932312165
stp4
Rp5
(dp6
S'scale'
p7
I0
sS'description'
p8
Vcustom_cell_property2
p9
sb.