ccopy_reg
_reconstructor
p0
(copenalea.stse.io.walled_tissue.native_representation
IOTissueProperty
p1
c__builtin__
dict
p2
(dp3
I0
F0.0
sI1
F0.0
sI2
F0.0
sI3
F0.0
sI4
F0.0
sI5
F0.0
sI6
F0.0
sI7
F0.0
sI8
F0.0
sI9
F0.0
sI10
F0.0
sI11
F0.0
sI12
F0.0
sI13
F0.0
sI14
F0.0
sI15
F0.0
sI16
F0.0
sI17
F0.0
sI18
F0.0
sI19
F0.0
sI20
F0.0
sI21
F0.0
sI22
F0.0
sI23
F0.0
sI24
F0.0
sI25
F0.0
sI26
F0.0
sI27
F0.0
sI28
F0.0
sI29
F0.0
sI30
F0.0
sI31
F0.0
sI32
F0.0
sI33
F0.0
sI34
F0.0
sI35
F0.0
sI36
F0.0
sI37
F0.0
sI38
F0.0
sI39
F0.0
sI40
F0.0
sI41
F0.0
sI42
F0.0
sI43
F0.0
sI44
F0.0
sI45
F0.0
sI46
F0.0
sI47
F0.0
sI48
F0.0
sI49
F0.0
sI50
F0.0
sI51
F0.0
sI52
F0.0
sI53
F0.0
sI54
F0.0
sI55
F0.0
sI56
F0.0
sI57
F0.0
sI58
F0.0
sI59
F0.0
sI60
F0.0
sI61
F0.0
sI62
F0.0
sI63
F0.0
sI64
F0.0
sI65
F0.0
sI66
F0.0
sI67
F0.0
sI68
F0.0
sI69
F0.0
sI70
F0.0
sI71
F0.0
sI72
F0.0
sI73
F0.0
sI74
F0.0
sI75
F0.0
sI76
F0.0
sI77
F0.0
sI78
F0.0
sI79
F0.0
sI80
F0.0
sI81
F0.0
sI82
F0.0
sI83
F0.0
sI84
F0.0
sI85
F0.0
sI86
F0.0
sI87
F0.0
sI88
F0.0
sI89
F0.0
sI90
F0.0
sI91
F0.0
sI92
F0.0
sI93
F0.0
sI94
F0.0
sI95
F0.0
sI96
F0.0
sI97
F0.0
sI98
F0.0
sI99
F0.0
sI100
F0.0
sI101
F0.0
sI102
F0.0
sI103
F0.0
sI104
F0.0
sI105
F0.0
sI106
F0.0
sI107
F0.0
sI108
F0.0
sI109
F0.0
sI110
F0.0
sI111
F0.0
sI112
F0.0
sI113
F0.0
sI114
F0.0
sI115
F0.0
sI116
F0.0
sI117
F0.0
sI118
F0.0
sI119
F0.0
sI120
F0.0
sI121
F0.0
sI122
F0.0
sI123
F0.0
sI124
F0.0
sI125
F0.0
sI126
F0.0
sI127
F0.0
sI128
F0.0
sI129
F0.0
sI130
F0.0
sI131
F0.0
sI132
F0.0
sI133
F0.0
sI134
F0.0
sI135
F0.0
sI136
F0.0
sI137
F0.0
sI138
F0.0
sI139
F0.0
sI140
F0.0
sI141
F0.0
sI142
F0.0
sI143
F0.0
sI144
F0.0
sI145
F0.0
sI146
F0.0
sI147
F0.0
sI148
F0.0
sI149
F0.0
sI150
F0.0
sI151
F0.0
sI152
F0.0
sI153
F0.0
sI154
F0.0
sI155
F0.0
sI156
F0.0
sI157
F0.0
sI158
F0.0
sI159
F0.0
sI160
F0.0
sI161
F0.0
sI162
F0.0
sI163
F0.0
sI164
F0.0
sI165
F0.0
sI166
F0.0
sI167
F0.0
sI168
F0.0
sI169
F0.0
sI170
F0.0
sI171
F0.0
sI172
F0.0
sI173
F0.0
sI174
F0.0
sI175
F0.0
sI176
F0.0
sI177
F0.0
sI178
F0.0
sI179
F0.0
sI180
F0.0
sI181
F0.0
sI182
F0.0
sI183
F0.0
sI184
F0.0
sI185
F0.0
sI186
F0.0
sI187
F0.0
sI188
F0.0
sI189
F0.0
sI190
F0.0
sI191
F0.0
sI192
F0.0
sI193
F0.0
sI194
F0.0
sI195
F0.0
sI196
F0.0
sI197
F0.0
sI198
F0.0
sI199
F0.0
sI200
F0.0
sI201
F0.0
sI202
F0.0
sI203
F0.0
sI204
F0.0
sI205
F0.0
sI206
F0.0
sI207
F0.0
sI208
F0.0
sI209
F0.0
sI210
F0.0
sI211
F0.0
sI212
F0.0
sI213
F0.0
sI214
F0.0
sI215
F0.0
sI216
F0.0
sI217
F0.0
sI218
F0.0
sI219
F0.0
sI220
F0.0
sI221
F0.0
sI222
F0.0
sI223
F0.0
sI224
F0.0
sI225
F0.0
sI226
F0.0
sI227
F0.0
sI228
F0.0
sI229
F0.0
sI230
F0.0
sI231
F0.0
sI232
F0.0
sI233
F0.0
sI234
F0.0
sI235
F0.0
sI236
F0.0
sI237
F0.0
sI238
F0.0
sI239
F0.0
sI240
F0.0
sI241
F0.0
sI242
F0.0
sI243
F0.0
sI244
F0.0
sI245
F0.0
sI246
F0.0
sI247
F0.0
sI248
F0.0
sI249
F0.0
sI250
F0.0
sI251
F0.0
sI252
F0.0
sI253
F0.0
sI254
F0.0
sI255
F0.0
sI256
F0.0
sI257
F0.0
sI258
F0.0
sI259
F0.0
sI260
F0.0
sI261
F0.0
sI262
F0.0
sI263
F0.0
sI264
F0.0
sI265
F0.0
sI266
F0.0
sI267
F0.0
sI268
F0.0
sI269
F0.0
sI270
F0.0
sI271
F0.0
sI272
F0.0
sI273
F0.0
sI274
F0.0
sI275
F0.0
sI276
F0.0
sI277
F0.0
sI278
F0.0
sI279
F0.0
sI280
F0.0
sI281
F0.0
sI282
F0.0
stp4
Rp5
(dp6
S'scale'
p7
I0
sS'description'
p8
S'custom_cell_property4'
p9
sb.