ccopy_reg
_reconstructor
p0
(copenalea.stse.io.walled_tissue.native_representation
IOTissueProperty
p1
c__builtin__
dict
p2
(dp3
I0
F32.970706019613402
sI1
F33.96828945972829
sI2
F33.127032313485813
sI3
F40.077628044707801
sI4
F60.557519189625893
sI5
F45.481396119935482
sI6
F46.628425968128923
sI7
F56.188409494624629
sI8
F36.032637413774502
sI9
F36.787895987593281
sI10
F32.970706019613388
sI11
F32.806735408192196
sI12
F32.958092895657948
sI13
F32.806735408192232
sI14
F33.450004729921474
sI15
F33.266923324628372
sI16
F45.307487895700916
sI17
F45.012035022440855
sI18
F48.696596080949519
sI19
F41.074447053067814
sI20
F59.605419438926155
sI21
F42.094963445829023
sI22
F63.429489292699991
sI23
F40.204905931894885
sI24
F48.161493852535394
sI25
F44.640903405447887
sI26
F39.122088351111117
sI27
F32.958092895657956
sI28
F33.450004729921496
sI29
F32.806735408192225
sI30
F32.970706019613395
sI31
F57.835377710507771
sI32
F45.535670774531823
sI33
F48.820434025239614
sI34
F55.948377923593121
sI35
F41.640126551677035
sI36
F50.044671480675632
sI37
F41.713129784267771
sI38
F45.417948284280698
sI39
F51.525758005750454
sI40
F48.304442590697462
sI41
F58.942274891570158
sI42
F59.301175600484989
sI43
F52.647943821910296
sI44
F33.102952713207195
sI45
F32.958092895657948
sI46
F32.970706019613424
sI47
F33.235199406800952
sI48
F40.813011392899774
sI49
F45.007830647789028
sI50
F41.588909624100253
sI51
F49.139202067023454
sI52
F40.42468006142213
sI53
F48.855597885963981
sI54
F42.418318078142114
sI55
F42.058652937472338
sI56
F41.634775529392918
sI57
F41.754409099031186
sI58
F40.730452763373059
sI59
F44.884374919376306
sI60
F42.312062064214167
sI61
F50.899306182628493
sI62
F33.937329973655807
sI63
F33.059762319056588
sI64
F38.998250406821043
sI65
F51.57047726341073
sI66
F55.900600938913335
sI67
F42.859777416583739
sI68
F47.727678831642521
sI69
F42.709948792627806
sI70
F42.268871670063625
sI71
F43.324551923549123
sI72
F41.712747568390377
sI73
F44.702440161715536
sI74
F42.506227729953054
sI75
F45.04949217842983
sI76
F54.531503665928021
sI77
F46.239712420773749
sI78
F70.197385834506321
sI79
F40.29740217423501
sI80
F36.681257757787911
sI81
F42.951509227169012
sI82
F51.90262286090497
sI83
F42.290657975077593
sI84
F41.831616706273799
sI85
F45.372082378988026
sI86
F41.333589417971254
sI87
F42.892265766166027
sI88
F41.372575437469948
sI89
F42.706891065608275
sI90
F42.13509611296012
sI91
F42.404558306554328
sI92
F45.817363876204141
sI93
F42.29677342911657
sI94
F43.883351536364486
sI95
F59.342454915248389
sI96
F41.867544998753061
sI97
F57.703895448668924
sI98
F40.760265601813252
sI99
F43.561525767561157
sI100
F42.959535760595294
sI101
F41.811741480646987
sI102
F41.556421274517966
sI103
F41.028581147775206
sI104
F40.983097458359978
sI105
F40.900921044710657
sI106
F41.004883763373982
sI107
F41.720391885939179
sI108
F41.337411576745644
sI109
F42.209245993183224
sI110
F42.243645422152646
sI111
F41.903855507109682
sI112
F44.45896864778716
sI113
F47.481531806572058
sI114
F48.086197324679929
sI115
F45.785257742499219
sI116
F47.472358625513458
sI117
F45.180974440268713
sI118
F41.70510325084156
sI119
F41.876718179811519
sI120
F40.986155185379467
sI121
F41.023994557245871
sI122
F40.9601645057136
sI123
F40.849704117133854
sI124
F41.032021090672103
sI125
F41.309509817692572
sI126
F42.944629341375155
sI127
F44.458586431909616
sI128
F44.849593274529354
sI129
F53.323701493221868
sI130
F42.066297255021112
sI131
F43.88679147926144
sI132
F41.836585512680507
sI133
F41.122224037747614
sI134
F42.279955930509303
sI135
F41.783457505716484
sI136
F41.215484711842642
sI137
F41.497942245269833
sI138
F40.894805590671609
sI139
F41.54801252521424
sI140
F40.896716670058851
sI141
F41.150508012678088
sI142
F41.086295745268444
sI143
F41.790337391510398
sI144
F42.145415941650867
sI145
F41.586616328835554
sI146
F47.751376216043745
sI147
F41.13063278705129
sI148
F49.347509720227492
sI149
F46.018791643614293
sI150
F45.014710533582942
sI151
F44.703204593470446
sI152
F41.223129029391551
sI153
F41.033932170059323
sI154
F40.925382860866854
sI155
F40.915063032175858
sI156
F40.869961558638117
sI157
F40.940671495964295
sI158
F41.048456373402104
sI159
F41.009470353903225
sI160
F41.740267111565991
sI161
F44.018655956977717
sI162
F42.646500956973085
sI163
F55.739305838634174
sI164
F48.735199884570953
sI165
F39.75847778704653
sI166
F41.464689463932686
sI167
F45.615553892916502
sI168
F41.870602725772606
sI169
F41.319829646383347
sI170
F41.419205774517536
sI171
F40.713635264765664
sI172
F40.928822803763794
sI173
F40.720515150559592
sI174
F40.9055076352399
sI175
F40.933409394292887
sI176
F40.748416909612715
sI177
F42.135478328837557
sI178
F41.799510572569019
sI179
F42.328115131066504
sI180
F50.359999579562633
sI181
F41.776577619922563
sI182
F47.220478362281447
sI183
F40.554633459751201
sI184
F42.709566576750341
sI185
F42.453099722989023
sI186
F41.552981331621019
sI187
F41.094704494571985
sI188
F39.062844890108195
sI189
F40.02870441239557
sI190
F34.43612169371314
sI191
F39.32045839150183
sI192
F37.362748667260966
sI193
F41.017879103206837
sI194
F41.548012525214247
sI195
F42.047568677026575
sI196
F41.64968194861293
sI197
F43.393350781488088
sI198
F45.73480524667729
sI199
F32.970706019613345
sI200
F46.537840805175932
sI201
F49.311963643625752
sI202
F44.959671447231791
sI203
F42.310533200704391
sI204
F41.802568299588508
sI205
F32.970706019613431
sI206
F33.286034118500346
sI207
F33.450004729921496
sI208
F32.970706019613509
sI209
F39.034178699300334
sI210
F43.811494951406161
sI211
F44.218554860878143
sI212
F45.55822151130068
sI213
F52.912054993220607
sI214
F38.206681324645686
sI215
F32.970706019613445
sI216
F37.404410197901839
sI217
F40.930733883150843
sI218
F41.638979904044689
sI219
F41.453605203486923
sI220
F40.165155480641211
sI221
F34.602003384521552
sI222
F33.295207299558783
sI223
F35.557543078118229
sI224
F41.49794224526979
sI225
F41.459720657525963
sI226
F41.45895622577109
sI227
F49.027595030811312
sI228
F33.322344626856932
sI229
F32.806735408192196
sI230
F33.2665411087509
sI231
F41.523932924935686
sI232
F51.037668330261297
sI233
F42.524574092070182
sI234
F44.75786146394411
sI235
F42.49285017424279
sI236
F35.853378167255734
sI237
F38.820137807934685
sI238
F34.678446560009341
sI239
F42.584964200705464
sI240
F41.999409476469303
sI241
F44.558726991798693
sI242
F49.737752131092329
sI243
F45.575421225785419
sI244
F42.150384748057569
sI245
F32.958092895658034
sI246
F32.970706019613431
sI247
F41.565594455576466
sI248
F43.101337851124917
sI249
F46.973184689578659
sI250
F41.671086037749497
sI251
F44.798376346952708
sI252
F42.526867387334597
sI253
F43.067702853910411
sI254
F43.617329285667182
sI255
F40.943729222983919
sI256
F49.676597590702194
sI257
F42.215743663099623
sI258
F34.711317125469002
sI259
F32.806735408192324
sI260
F33.450004729921439
sI261
F32.958092895657948
sI262
F33.093779532148673
sI263
F33.141174300951015
sI264
F42.051773051678374
sI265
F43.573756675639174
sI266
F40.544695846937756
sI267
F50.830125108812069
sI268
F40.495007782870729
sI269
F54.145083413837526
sI270
F40.160186674234488
sI271
F36.065890195111599
sI272
F37.103224086480154
sI273
F32.806735408192182
sI274
F32.958092895657892
sI275
F32.806735408192175
sI276
F33.027926533167516
sI277
F36.087443441663837
sI278
F39.935704763777913
sI279
F40.469389996743949
sI280
F35.837455613142005
sI281
F33.027926533167509
sI282
F33.214969932312151
stp4
Rp5
(dp6
S'scale'
p7
I0
sS'description'
p8
S'custom_cell_property1'
p9
sb.