ccopy_reg
_reconstructor
p0
(copenalea.stse.io.walled_tissue.native_representation
IOTissueProperty
p1
c__builtin__
dict
p2
(dp3
I1
(F79.056941504250005
F59.292706128137503
F0.0
tp4
sI2
(F79.056941504250005
F35.575623676862513
F0.0
tp5
sI3
(F63.245553203349999
F67.198400278562502
F0.0
tp6
sI4
(F63.245553203349999
F27.66992952643751
F0.0
tp7
sI6
(F47.434164902549988
F59.292706128137503
F0.0
tp8
sI9
(F47.434164902549988
F35.575623676862513
F0.0
tp9
stp10
Rp11
(dp12
S'scale'
p13
I2
sS'description'
p14
S'_positions'
p15
sb.