ccopy_reg
_reconstructor
p0
(copenalea.stse.io.walled_tissue.native_representation
IOTissueProperty
p1
c__builtin__
dict
p2
(dp3
I1
(lp4
sI2
(lp5
sI3
(lp6
sI4
(lp7
sI6
(lp8
sI9
(lp9
stp10
Rp11
(dp12
S'scale'
p13
I2
sS'description'
p14
S''
p15
sb.