ccopy_reg
_reconstructor
p0
(copenalea.stse.io.walled_tissue.native_representation
IOTissueProperty
p1
c__builtin__
dict
p2
(dp3
I4
(lp4
I4
aI2
aI0
aI1
aI3
aI5
astp5
Rp6
(dp7
S'scale'
p8
I0
sS'description'
p9
S''
p10
sb.