ccopy_reg
_reconstructor
p0
(copenalea.stse.io.walled_tissue.native_representation
IOTissueProperty
p1
c__builtin__
dict
p2
(dp3
I0
(lp4
I1
aI2
asI1
(lp5
I1
aI3
asI2
(lp6
I2
aI4
asI3
(lp7
I3
aI6
asI4
(lp8
I4
aI9
asI5
(lp9
I6
aI9
astp10
Rp11
(dp12
S'scale'
p13
I1
sS'description'
p14
S''
p15
sb.