ccopy_reg
_reconstructor
p0
(copenalea.stse.io.walled_tissue.native_representation
IOTissueProperty
p1
c__builtin__
dict
p2
(dp3
I4
cnumpy.core.multiarray
_reconstruct
p4
(cnumpy
ndarray
p5
(I0
tp6
S'b'
p7
tp8
Rp9
(I1
(I3
tp10
cnumpy
dtype
p11
(S'f8'
p12
I0
I1
tp13
Rp14
(I3
S'<'
p15
NNNI-1
I-1
I0
tp16
bI00
S"'\xf2\x90In\x9fO@\x9d\xb5,\xb7\x92\xb7G@\x00\x00\x00\x00\x00\x00\x00\x00"
p17
tp18
bstp19
Rp20
(dp21
S'scale'
p22
I0
sS'description'
p23
S'voronoi_center'
p24
sb.