ccopy_reg
_reconstructor
p0
(copenalea.stse.io.walled_tissue.native_representation
IOTissueProperty
p1
c__builtin__
dict
p2
(dp3
I1
(F94.049999999999997
F58.162499999999987
F0.0
tp4
sI3
(F94.049999999999997
F11.137499999999999
F0.0
tp5
sI4
(F24.75
F58.162500000000001
F0.0
tp6
sI5
(F24.75
F50.737499999999997
F0.0
tp7
sI7
(F94.049999999999997
F50.737499999999997
F0.0
tp8
sI8
(F14.192993366073161
F90.666003316963426
F0.0
tp9
sI11
(F84.149999999999991
F18.5625
F0.0
tp10
sI12
(F89.099999999999994
F8.6625000000000014
F0.0
tp11
sI13
(F84.150000000000006
F11.137499999999999
F0.0
tp12
sI14
(F29.699999999999999
F48.262500000000003
F0.0
tp13
sI15
(F19.800000000000001
F60.637500000000003
F0.0
tp14
sI17
(F9.9000000000000004
F60.637500000000003
F0.0
tp15
sI18
(F14.85
F58.162499999999987
F0.0
tp16
sI19
(F19.800000000000001
F68.0625
F0.0
tp17
sI20
(F9.8999999999999986
F88.101572823970741
F0.0
tp18
sI21
(F34.649999999999999
F90.337500000000006
F0.0
tp19
sI24
(F19.800000000000001
F87.862499999999997
F0.0
tp20
sI25
(F24.75
F90.337500000000006
F0.0
tp21
sI26
(F29.699999999999999
F87.862499999999997
F0.0
tp22
sI27
(F19.800000000000001
F80.4375
F0.0
tp23
sI30
(F89.100000000000009
F87.862499999999997
F0.0
tp24
sI31
(F54.450000000000003
F90.337500000000006
F0.0
tp25
sI34
(F84.149999999999991
F90.337500000000006
F0.0
tp26
sI37
(F79.200000000000003
F80.4375
F0.0
tp27
sI38
(F79.200000000000003
F87.862499999999997
F0.0
tp28
sI39
(F74.25
F90.337500000000006
F0.0
tp29
sI40
(F24.75
F70.537499999999994
F0.0
tp30
sI41
(F29.699999999999999
F80.4375
F0.0
tp31
sI42
(F24.75
F77.962500000000006
F0.0
tp32
sI43
(F54.450000000000003
F77.962500000000006
F0.0
tp33
sI44
(F39.600000000000001
F48.262500000000003
F0.0
tp34
sI45
(F34.649999999999999
F50.737499999999997
F0.0
tp35
sI47
(F94.049999999999997
F18.5625
F0.0
tp36
sI48
(F89.099999999999994
F21.037500000000001
F0.0
tp37
sI49
(F64.349999999999994
F38.362499999999997
F0.0
tp38
sI50
(F64.349999999999994
F30.9375
F0.0
tp39
sI51
(F74.25
F11.137499999999999
F0.0
tp40
sI52
(F79.200000000000003
F8.6624999999999979
F0.0
tp41
sI53
(F69.299999999999997
F8.6624999999999979
F0.0
tp42
sI54
(F49.5
F21.037500000000001
F0.0
tp43
sI55
(F54.450000000000003
F30.9375
F0.0
tp44
sI56
(F59.399999999999999
F28.462499999999999
F0.0
tp45
sI57
(F49.5
F28.462499999999999
F0.0
tp46
sI58
(F64.349999999999994
F11.137499999999999
F0.0
tp47
sI59
(F64.349999999999994
F18.5625
F0.0
tp48
sI60
(F59.399999999999999
F21.037500000000001
F0.0
tp49
sI61
(F54.450000000000003
F18.5625
F0.0
tp50
sI62
(F59.399999999999999
F8.6625000000000014
F0.0
tp51
sI63
(F54.450000000000003
F11.137499999999999
F0.0
tp52
sI64
(F29.699999999999999
F21.037500000000001
F0.0
tp53
sI65
(F29.699999999999999
F8.6624999999999996
F0.0
tp54
sI66
(F24.75
F18.5625
F0.0
tp55
sI67
(F19.800000000000001
F8.6625000000000014
F0.0
tp56
sI68
(F24.75
F11.137499999999999
F0.0
tp57
sI69
(F19.800000000000001
F48.262500000000003
F0.0
tp58
sI70
(F9.9000000000000021
F48.262500000000003
F0.0
tp59
sI71
(F14.85
F50.737499999999997
F0.0
tp60
sI72
(F9.9000000000000004
F40.837499999999999
F0.0
tp61
sI73
(F19.800000000000001
F40.837499999999999
F0.0
tp62
sI74
(F14.85
F38.362499999999997
F0.0
tp63
sI75
(F14.85
F77.962500000000006
F0.0
tp64
sI76
(F9.9000000000000004
F80.4375
F0.0
tp65
sI78
(F9.9000000000000004
F68.0625
F0.0
tp66
sI79
(F14.85
F70.537499999999994
F0.0
tp67
sI80
(F84.150000000000006
F77.962500000000006
F0.0
tp68
sI81
(F89.099999999999994
F80.4375
F0.0
tp69
sI82
(F94.049999999999997
F77.962500000000006
F0.0
tp70
sI83
(F94.049999999999997
F70.537499999999994
F0.0
tp71
sI84
(F74.25
F77.962500000000006
F0.0
tp72
sI85
(F64.349999999999994
F70.537499999999994
F0.0
tp73
sI86
(F69.299999999999997
F68.0625
F0.0
tp74
sI87
(F74.25
F70.537499999999994
F0.0
tp75
sI88
(F69.299999999999997
F60.637500000000003
F0.0
tp76
sI89
(F64.349999999999994
F58.162499999999987
F0.0
tp77
sI90
(F74.25
F58.162499999999987
F0.0
tp78
sI91
(F64.349999999999994
F50.737499999999997
F0.0
tp79
sI92
(F79.200000000000003
F60.637500000000003
F0.0
tp80
sI93
(F89.099999999999994
F60.637500000000003
F0.0
tp81
sI94
(F84.150000000000006
F58.162500000000001
F0.0
tp82
sI95
(F79.200000000000003
F68.0625
F0.0
tp83
sI96
(F89.099999999999994
F68.0625
F0.0
tp84
sI97
(F84.150000000000006
F70.537499999999994
F0.0
tp85
sI98
(F59.399999999999999
F40.837499999999999
F0.0
tp86
sI99
(F49.5
F40.837499999999999
F0.0
tp87
sI100
(F54.450000000000003
F38.362499999999997
F0.0
tp88
sI101
(F59.399999999999999
F48.262500000000003
F0.0
tp89
sI102
(F29.699999999999999
F68.0625
F0.0
tp90
sI103
(F29.699999999999999
F60.637500000000003
F0.0
tp91
sI104
(F34.649999999999999
F58.162499999999987
F0.0
tp92
sI105
(F39.599999999999987
F60.637500000000003
F0.0
tp93
sI106
(F49.5
F80.4375
F0.0
tp94
sI107
(F49.5
F87.862499999999997
F0.0
tp95
sI108
(F44.549999999999997
F90.337500000000006
F0.0
tp96
sI109
(F39.599999999999987
F87.862499999999997
F0.0
tp97
sI110
(F59.399999999999999
F68.0625
F0.0
tp98
sI111
(F54.450000000000003
F70.537499999999994
F0.0
tp99
sI112
(F49.5
F68.0625
F0.0
tp100
sI113
(F59.399999999999999
F60.637500000000003
F0.0
tp101
sI114
(F69.299999999999997
F28.462499999999999
F0.0
tp102
sI115
(F79.200000000000003
F21.037500000000001
F0.0
tp103
sI116
(F69.299999999999997
F21.037500000000001
F0.0
tp104
sI117
(F74.25
F18.5625
F0.0
tp105
sI118
(F79.200000000000003
F28.462499999999999
F0.0
tp106
sI119
(F74.25
F30.9375
F0.0
tp107
sI120
(F49.5
F8.6624999999999979
F0.0
tp108
sI121
(F44.549999999999997
F18.5625
F0.0
tp109
sI122
(F39.600000000000001
F21.037500000000001
F0.0
tp110
sI123
(F34.649999999999999
F18.5625
F0.0
tp111
sI124
(F39.600000000000001
F8.6625000000000014
F0.0
tp112
sI125
(F34.649999999999999
F11.137499999999999
F0.0
tp113
sI126
(F44.549999999999997
F11.137499999999999
F0.0
tp114
sI127
(F19.800000000000001
F21.037500000000001
F0.0
tp115
sI128
(F19.800000000000001
F28.462499999999999
F0.0
tp116
sI129
(F14.85
F30.9375
F0.0
tp117
sI131
(F14.85
F11.137499999999999
F0.0
tp118
sI132
(F14.85
F18.5625
F0.0
tp119
sI133
(F29.699999999999999
F40.837499999999999
F0.0
tp120
sI134
(F24.75
F38.362499999999997
F0.0
tp121
sI135
(F29.699999999999999
F28.462499999999999
F0.0
tp122
sI136
(F24.75
F30.9375
F0.0
tp123
sI137
(F59.399999999999999
F80.4375
F0.0
tp124
sI138
(F64.349999999999994
F77.962500000000006
F0.0
tp125
sI139
(F69.299999999999997
F80.4375
F0.0
tp126
sI140
(F64.349999999999994
F90.337500000000006
F0.0
tp127
sI141
(F59.399999999999999
F87.862499999999997
F0.0
tp128
sI142
(F69.299999999999997
F87.862499999999997
F0.0
tp129
sI143
(F44.549999999999997
F50.737499999999997
F0.0
tp130
sI144
(F49.5
F48.262500000000003
F0.0
tp131
sI145
(F54.450000000000003
F50.737499999999997
F0.0
tp132
sI146
(F44.549999999999997
F58.162499999999987
F0.0
tp133
sI147
(F54.450000000000003
F58.162499999999987
F0.0
tp134
sI148
(F49.5
F60.637500000000003
F0.0
tp135
sI149
(F34.649999999999999
F77.962500000000006
F0.0
tp136
sI150
(F39.600000000000001
F80.4375
F0.0
tp137
sI151
(F44.549999999999997
F77.962500000000006
F0.0
tp138
sI152
(F44.549999999999997
F70.537499999999994
F0.0
tp139
sI153
(F39.600000000000001
F68.0625
F0.0
tp140
sI154
(F34.649999999999999
F70.537499999999994
F0.0
tp141
sI155
(F94.049999999999997
F38.362499999999997
F0.0
tp142
sI156
(F89.099999999999994
F28.462499999999999
F0.0
tp143
sI157
(F94.049999999999997
F30.9375
F0.0
tp144
sI158
(F84.150000000000006
F30.9375
F0.0
tp145
sI159
(F89.099999999999994
F48.262500000000003
F0.0
tp146
sI160
(F84.150000000000006
F50.737499999999997
F0.0
tp147
sI161
(F89.099999999999994
F40.837499999999999
F0.0
tp148
sI162
(F84.150000000000006
F38.362499999999997
F0.0
tp149
sI163
(F9.8999999999999986
F28.462499999999999
F0.0
tp150
sI164
(F9.8999999999999986
F21.037500000000001
F0.0
tp151
sI167
(F44.549999999999997
F38.362499999999997
F0.0
tp152
sI168
(F39.600000000000001
F40.837499999999999
F0.0
tp153
sI169
(F34.649999999999999
F38.362499999999997
F0.0
tp154
sI170
(F44.549999999999997
F30.9375
F0.0
tp155
sI171
(F39.600000000000001
F28.462499999999999
F0.0
tp156
sI172
(F34.649999999999999
F30.9375
F0.0
tp157
sI173
(F74.25
F50.737499999999997
F0.0
tp158
sI174
(F69.299999999999997
F48.262500000000003
F0.0
tp159
sI175
(F79.200000000000003
F48.262500000000003
F0.0
tp160
sI176
(F69.299999999999997
F40.837499999999999
F0.0
tp161
sI177
(F74.25
F38.362499999999997
F0.0
tp162
sI178
(F79.200000000000003
F40.837499999999999
F0.0
tp163
stp164
Rp165
(dp166
S'scale'
p167
I2
sS'description'
p168
S'_positions'
p169
sb.