ccopy_reg
_reconstructor
p0
(copenalea.stse.io.walled_tissue.native_representation
IOTissueProperty
p1
c__builtin__
dict
p2
(dp3
I0
(lp4
I1
aI93
asI1
(lp5
I1
aI7
asI2
(lp6
I3
aI12
asI3
(lp7
I3
aI47
asI4
(lp8
I4
aI103
asI5
(lp9
I4
aI5
asI6
(lp10
I4
aI15
asI7
(lp11
I5
aI69
asI8
(lp12
I5
aI14
asI9
(lp13
I7
aI159
asI10
(lp14
I8
aI24
asI11
(lp15
I8
aI20
asI12
(lp16
I11
aI48
asI13
(lp17
I11
aI115
asI14
(lp18
I11
aI13
asI15
(lp19
I12
aI13
asI16
(lp20
I13
aI52
asI17
(lp21
I14
aI45
asI18
(lp22
I14
aI133
asI19
(lp23
I15
aI18
asI20
(lp24
I15
aI19
asI21
(lp25
I17
aI18
asI22
(lp26
I17
aI78
asI23
(lp27
I18
aI71
asI24
(lp28
I19
aI40
asI25
(lp29
I19
aI79
asI26
(lp30
I20
aI76
asI27
(lp31
I21
aI26
asI28
(lp32
I21
aI109
asI29
(lp33
I24
aI25
asI30
(lp34
I24
aI27
asI31
(lp35
I25
aI26
asI32
(lp36
I26
aI41
asI33
(lp37
I27
aI42
asI34
(lp38
I27
aI75
asI35
(lp39
I30
aI81
asI36
(lp40
I30
aI34
asI37
(lp41
I31
aI107
asI38
(lp42
I31
aI141
asI39
(lp43
I34
aI38
asI40
(lp44
I37
aI80
asI41
(lp45
I37
aI84
asI42
(lp46
I37
aI38
asI43
(lp47
I38
aI39
asI44
(lp48
I39
aI142
asI45
(lp49
I40
aI42
asI46
(lp50
I40
aI102
asI47
(lp51
I41
aI42
asI48
(lp52
I41
aI149
asI49
(lp53
I43
aI137
asI50
(lp54
I43
aI106
asI51
(lp55
I43
aI111
asI52
(lp56
I44
aI168
asI53
(lp57
I44
aI45
asI54
(lp58
I44
aI143
asI55
(lp59
I45
aI104
asI56
(lp60
I47
aI48
asI57
(lp61
I48
aI156
asI58
(lp62
I49
aI176
asI59
(lp63
I49
aI50
asI60
(lp64
I49
aI98
asI61
(lp65
I50
aI56
asI62
(lp66
I50
aI114
asI63
(lp67
I51
aI52
asI64
(lp68
I51
aI117
asI65
(lp69
I51
aI53
asI66
(lp70
I53
aI58
asI67
(lp71
I54
aI121
asI68
(lp72
I54
aI61
asI69
(lp73
I54
aI57
asI70
(lp74
I55
aI56
asI71
(lp75
I55
aI57
asI72
(lp76
I55
aI100
asI73
(lp77
I56
aI60
asI74
(lp78
I57
aI170
asI75
(lp79
I58
aI59
asI76
(lp80
I58
aI62
asI77
(lp81
I59
aI116
asI78
(lp82
I59
aI60
asI79
(lp83
I60
aI61
asI80
(lp84
I61
aI63
asI81
(lp85
I62
aI63
asI82
(lp86
I63
aI120
asI83
(lp87
I64
aI66
asI84
(lp88
I64
aI123
asI85
(lp89
I64
aI135
asI86
(lp90
I65
aI68
asI87
(lp91
I65
aI125
asI88
(lp92
I66
aI68
asI89
(lp93
I66
aI127
asI90
(lp94
I67
aI131
asI91
(lp95
I67
aI68
asI92
(lp96
I69
aI73
asI93
(lp97
I69
aI71
asI94
(lp98
I70
aI72
asI95
(lp99
I70
aI71
asI96
(lp100
I72
aI74
asI97
(lp101
I73
aI74
asI98
(lp102
I73
aI134
asI99
(lp103
I74
aI129
asI100
(lp104
I75
aI76
asI101
(lp105
I75
aI79
asI102
(lp106
I78
aI79
asI103
(lp107
I80
aI97
asI104
(lp108
I80
aI81
asI105
(lp109
I81
aI82
asI106
(lp110
I82
aI83
asI107
(lp111
I83
aI96
asI108
(lp112
I84
aI139
asI109
(lp113
I84
aI87
asI110
(lp114
I85
aI138
asI111
(lp115
I85
aI86
asI112
(lp116
I85
aI110
asI113
(lp117
I86
aI88
asI114
(lp118
I86
aI87
asI115
(lp119
I87
aI95
asI116
(lp120
I88
aI89
asI117
(lp121
I88
aI90
asI118
(lp122
I89
aI113
asI119
(lp123
I89
aI91
asI120
(lp124
I90
aI92
asI121
(lp125
I90
aI173
asI122
(lp126
I91
aI101
asI123
(lp127
I91
aI174
asI124
(lp128
I92
aI94
asI125
(lp129
I92
aI95
asI126
(lp130
I93
aI96
asI127
(lp131
I93
aI94
asI128
(lp132
I94
aI160
asI129
(lp133
I95
aI97
asI130
(lp134
I96
aI97
asI131
(lp135
I98
aI100
asI132
(lp136
I98
aI101
asI133
(lp137
I99
aI144
asI134
(lp138
I99
aI100
asI135
(lp139
I99
aI167
asI136
(lp140
I101
aI145
asI137
(lp141
I102
aI154
asI138
(lp142
I102
aI103
asI139
(lp143
I103
aI104
asI140
(lp144
I104
aI105
asI141
(lp145
I105
aI153
asI142
(lp146
I105
aI146
asI143
(lp147
I106
aI107
asI144
(lp148
I106
aI151
asI145
(lp149
I107
aI108
asI146
(lp150
I108
aI109
asI147
(lp151
I109
aI150
asI148
(lp152
I110
aI113
asI149
(lp153
I110
aI111
asI150
(lp154
I111
aI112
asI151
(lp155
I112
aI152
asI152
(lp156
I112
aI148
asI153
(lp157
I113
aI147
asI154
(lp158
I114
aI116
asI155
(lp159
I114
aI119
asI156
(lp160
I115
aI117
asI157
(lp161
I115
aI118
asI158
(lp162
I116
aI117
asI159
(lp163
I118
aI158
asI160
(lp164
I118
aI119
asI161
(lp165
I119
aI177
asI162
(lp166
I120
aI126
asI163
(lp167
I121
aI122
asI164
(lp168
I121
aI126
asI165
(lp169
I122
aI123
asI166
(lp170
I122
aI171
asI167
(lp171
I123
aI125
asI168
(lp172
I124
aI125
asI169
(lp173
I124
aI126
asI170
(lp174
I127
aI128
asI171
(lp175
I127
aI132
asI172
(lp176
I128
aI136
asI173
(lp177
I128
aI129
asI174
(lp178
I129
aI163
asI175
(lp179
I131
aI132
asI176
(lp180
I132
aI164
asI177
(lp181
I133
aI169
asI178
(lp182
I133
aI134
asI179
(lp183
I134
aI136
asI180
(lp184
I135
aI136
asI181
(lp185
I135
aI172
asI182
(lp186
I137
aI138
asI183
(lp187
I137
aI141
asI184
(lp188
I138
aI139
asI185
(lp189
I139
aI142
asI186
(lp190
I140
aI141
asI187
(lp191
I140
aI142
asI188
(lp192
I143
aI144
asI189
(lp193
I143
aI146
asI190
(lp194
I144
aI145
asI191
(lp195
I145
aI147
asI192
(lp196
I146
aI148
asI193
(lp197
I147
aI148
asI194
(lp198
I149
aI154
asI195
(lp199
I149
aI150
asI196
(lp200
I150
aI151
asI197
(lp201
I151
aI152
asI198
(lp202
I152
aI153
asI199
(lp203
I153
aI154
asI200
(lp204
I155
aI161
asI201
(lp205
I155
aI157
asI202
(lp206
I156
aI157
asI203
(lp207
I156
aI158
asI204
(lp208
I158
aI162
asI205
(lp209
I159
aI160
asI206
(lp210
I159
aI161
asI207
(lp211
I160
aI175
asI208
(lp212
I161
aI162
asI209
(lp213
I162
aI178
asI210
(lp214
I163
aI164
asI211
(lp215
I167
aI168
asI212
(lp216
I167
aI170
asI213
(lp217
I168
aI169
asI214
(lp218
I169
aI172
asI215
(lp219
I170
aI171
asI216
(lp220
I171
aI172
asI217
(lp221
I173
aI174
asI218
(lp222
I173
aI175
asI219
(lp223
I174
aI176
asI220
(lp224
I175
aI178
asI221
(lp225
I176
aI177
asI222
(lp226
I177
aI178
astp227
Rp228
(dp229
S'scale'
p230
I1
sS'description'
p231
S''
p232
sb.