ccopy_reg
_reconstructor
p0
(copenalea.stse.io.walled_tissue.native_representation
IOTissueProperty
p1
c__builtin__
dict
p2
(dp3
I0
F32.951085604571553
sI1
F33.006353157951651
sI2
F32.847166685063726
sI3
F37.896034761168053
sI4
F72.470112141921376
sI5
F41.160611603335624
sI6
F76.589899350663728
sI7
F40.442547778630484
sI8
F36.583559933287098
sI9
F41.85822986945616
sI10
F32.96697481872129
sI11
F32.806735408192196
sI12
F32.958092895657948
sI13
F32.806735408192232
sI14
F33.009330803913713
sI15
F32.810093462921486
sI16
F44.159256952225846
sI17
F43.492088841913407
sI18
F43.154365300435614
sI19
F41.618237599806022
sI20
F43.498460147783732
sI21
F41.814915968072867
sI22
F43.515277646391084
sI23
F40.3011545923207
sI24
F43.398360673606
sI25
F38.975976416073102
sI26
F33.453546059312906
sI27
F32.958092895657956
sI28
F33.450004729921496
sI29
F32.917450607356948
sI30
F32.993656215081266
sI31
F39.391176303354307
sI32
F41.513893501795216
sI33
F42.420097701245226
sI34
F44.171963785167605
sI35
F41.085149097636105
sI36
F41.725742908223268
sI37
F40.923853997356943
sI38
F41.211662553068265
sI39
F40.83938428844305
sI40
F41.647388653348372
sI41
F42.123629636636934
sI42
F42.521947736198278
sI43
F41.180550125119986
sI44
F32.752822066334943
sI45
F32.94384807991235
sI46
F32.970706019613431
sI47
F33.140405853019217
sI48
F40.864470023205833
sI49
F42.262617587238985
sI50
F41.125663980644596
sI51
F41.624455700702022
sI52
F40.741154807941335
sI53
F41.056100690950743
sI54
F40.8737837174125
sI55
F40.771732078136381
sI56
F40.940671495964317
sI57
F40.887543489000315
sI58
F40.962075585100884
sI59
F41.677293743882053
sI60
F41.883053840531652
sI61
F32.811561182924073
sI62
F32.905931119914108
sI63
F46.248301547332929
sI64
F42.416322664185756
sI65
F42.044893165884581
sI66
F40.946786950003265
sI67
F40.913151952788702
sI68
F40.972013197914244
sI69
F40.943729222983798
sI70
F40.671209302369974
sI71
F40.897481101813717
sI72
F40.880663603206408
sI73
F40.90894757813691
sI74
F40.715546344152905
sI75
F41.1336905140708
sI76
F41.997880612959541
sI77
F46.89787879208739
sI78
F51.820787509809513
sI79
F37.151293279714771
sI80
F41.895975620898255
sI81
F41.565594455576502
sI82
F41.575149852512425
sI83
F40.959400073958783
sI84
F41.552599115743533
sI85
F40.855819571172937
sI86
F41.364931119921152
sI87
F40.989977344153857
sI88
F41.539221560033184
sI89
F40.886396841368025
sI90
F41.560243433292328
sI91
F40.639485384542652
sI92
F41.624837916579409
sI93
F41.675672628278804
sI94
F45.996240226176425
sI95
F40.402177008935091
sI96
F49.46900810695093
sI97
F41.44753337458252
sI98
F41.099673300978779
sI99
F40.750710204877301
sI100
F40.861552809334484
sI101
F40.935702689557587
sI102
F40.686880153345051
sI103
F40.892512295407016
sI104
F40.708666458359005
sI105
F40.866903831618636
sI106
F40.914680816298485
sI107
F40.989595128276463
sI108
F40.868432695128412
sI109
F40.729306115740691
sI110
F41.225040108778636
sI111
F42.169113326052162
sI112
F44.356882140307128
sI113
F51.794260789629604
sI114
F41.323546460105632
sI115
F41.057629554460476
sI116
F40.920031838582574
sI117
F40.727777252230915
sI118
F40.929205019641088
sI119
F40.90818314638198
sI120
F40.943729222983755
sI121
F40.881045819083795
sI122
F40.887925704877709
sI123
F40.928822803763673
sI124
F40.746505830225423
sI125
F40.947551381758167
sI126
F40.89365894303927
sI127
F41.240710959753571
sI128
F43.976994426336958
sI129
F41.897874451266325
sI130
F48.768439815730481
sI131
F41.151519285353153
sI132
F41.552216899866096
sI133
F40.914298600421041
sI134
F41.488004632456445
sI135
F40.702551004319965
sI136
F41.578207579531956
sI137
F40.893276727161897
sI138
F41.477302587888097
sI139
F41.005265979251377
sI140
F41.132926082315912
sI141
F40.893658943039362
sI142
F41.525461788445412
sI143
F40.867286047496044
sI144
F41.656561834406872
sI145
F42.080057026608856
sI146
F40.949547870428958
sI147
F51.893454435977759
sI148
F41.341410495566137
sI149
F41.141717047497025
sI150
F40.902832124097827
sI151
F40.767909919361976
sI152
F40.645983054459045
sI153
F40.929587235518682
sI154
F40.996857229947729
sI155
F40.840913151952861
sI156
F40.928822803763694
sI157
F40.917356327440643
sI158
F40.910094225769186
sI159
F40.907418714627198
sI160
F40.938378200699546
sI161
F41.038900976465996
sI162
F44.956613720212282
sI163
F41.475683917127803
sI164
F49.175853707332898
sI165
F41.344062585429803
sI166
F41.378690891508988
sI167
F40.886014625490624
sI168
F40.957106778694154
sI169
F40.853526275908372
sI170
F40.696435550280924
sI171
F40.927293940253989
sI172
F40.733510490392433
sI173
F40.957106778694204
sI174
F40.876841444431967
sI175
F40.703697651952389
sI176
F40.902067692342968
sI177
F40.931880530783268
sI178
F41.424174580924117
sI179
F43.16478568677995
sI180
F41.394465548159062
sI181
F34.365639916857916
sI182
F41.114187721600508
sI183
F41.505586562818529
sI184
F40.842442015462474
sI185
F40.916591895685606
sI186
F40.959782289836134
sI187
F38.917220640803976
sI188
F40.046286342757746
sI189
F34.167489188243074
sI190
F39.329249356682823
sI191
F37.085642156117935
sI192
F40.927676156131312
sI193
F40.790078440253438
sI194
F40.87837030794168
sI195
F41.448636397080158
sI196
F42.24237106281165
sI197
F51.253996591429534
sI198
F32.8407937231649
sI199
F43.382373111052409
sI200
F44.965584535048308
sI201
F42.204659402653995
sI202
F41.116873015463561
sI203
F41.16847215891773
sI204
F32.951085604571652
sI205
F32.791395122300479
sI206
F33.118654554658775
sI207
F32.951085604571645
sI208
F38.644700720190301
sI209
F41.415383615743174
sI210
F42.070119413795595
sI211
F43.290152494579736
sI212
F47.130302251408175
sI213
F53.301379245940062
sI214
F32.903044338322537
sI215
F43.987312869481428
sI216
F39.875508527457534
sI217
F41.374104300979695
sI218
F41.185671873402384
sI219
F39.313960721585374
sI220
F34.496936486656736
sI221
F33.164447001043932
sI222
F35.385163717393432
sI223
F41.329767259196785
sI224
F41.328620611564411
sI225
F41.295084131495145
sI226
F49.558704055699025
sI227
F32.782509204015163
sI228
F32.917450607357011
sI229
F33.101827464258179
sI230
F40.617715064916212
sI231
F48.578615329838421
sI232
F41.514510342941705
sI233
F42.585346416582787
sI234
F41.675672628278939
sI235
F34.623827566784669
sI236
F37.26310219131112
sI237
F34.098229084512312
sI238
F41.380601970896301
sI239
F41.188729600421915
sI240
F42.635034480649928
sI241
F45.784296350367953
sI242
F49.771687877602936
sI243
F58.375916322577424
sI244
F32.958092895657956
sI245
F32.972947897782724
sI246
F58.437644238089661
sI247
F86.441116834944651
sI248
F44.989354491899306
sI249
F41.59653202501103
sI250
F43.241228862267619
sI251
F41.85851498214894
sI252
F42.170642189561889
sI253
F42.299676681480982
sI254
F40.495389998748365
sI255
F50.981560300062128
sI256
F43.141322595650351
sI257
F35.674581584373492
sI258
F32.744195771612873
sI259
F33.45000472992151
sI260
F33.164571752820912
sI261
F32.890254791407024
sI262
F36.405565622936152
sI263
F81.576869137944655
sI264
F81.808155575971838
sI265
F39.723412642464098
sI266
F63.454266599553428
sI267
F39.900314012316194
sI268
F74.243549561607026
sI269
F40.0034266320366
sI270
F38.384794782597595
sI271
F42.905979968401688
sI272
F32.806735408192182
sI273
F32.958092895657892
sI274
F32.806735408192175
sI275
F33.027926533167545
sI276
F35.972546118007202
sI277
F55.749686988862983
sI278
F57.586432267051592
sI279
F35.154108896071371
sI280
F33.027926533167516
sI281
F33.214969932312151
sI346
F129.38933198090913
sI347
F124.61053985028224
sI348
F94.578220458832902
sI349
F71.22848524029736
sI350
F104.57589050259482
sI351
F66.629294974830501
sI352
F55.124767733978757
sI353
F73.639456771769801
sI354
F101.22149529571732
sI355
F135.40315587028354
sI356
F47.994344502238974
sI357
F71.843468164593986
sI358
F40.011216318106733
sI359
F79.9259532102772
sI360
F40.557352951143486
sI361
F69.871148890173117
sI362
F38.671062058787186
sI363
F83.486155317158321
sI364
F47.423374897748175
sI365
F85.927201597017543
sI366
F41.108616732542096
sI367
F77.621039698398533
sI368
F38.13266668435547
sI369
F66.747765732862334
sI370
F38.006295144313114
sI371
F71.821698964655369
sI372
F52.24777441050712
sI373
F71.657004832635607
sI374
F91.800526953531289
sI375
F86.423999353699926
sI376
F71.511441719479976
sI377
F70.385635007239088
sI378
F98.624741077130523
sI379
F71.417340946506698
sI380
F69.873189966245548
sI381
F62.753228759059759
sI382
F67.480395951947045
sI383
F58.733046623422702
sI384
F65.989718452936941
sI385
F74.192671557132371
sI386
F62.742708072983447
sI387
F38.313210392505241
sI388
F67.773605239865191
sI389
F86.955907608574151
sI390
F98.361952763065304
sI391
F79.607398395193414
sI392
F65.036536862062192
sI393
F70.544305760524125
sI394
F72.32686176502483
sI395
F85.009319535744382
sI396
F86.716049307914147
sI397
F68.085315993867027
sI398
F74.102605743985521
sI399
F61.547504686445322
sI400
F64.113276166295805
sI401
F70.880513779497022
sI402
F88.30258178255626
sI403
F66.876053943236514
sI404
F63.862398891616309
sI405
F65.857887208194029
sI406
F72.286381290623538
sI407
F71.266813026022461
sI408
F82.468495870274424
sI409
F74.226883287291187
sI410
F68.718354688669663
sI411
F73.220476039243152
sI412
F82.346325978354429
sI413
F81.883101787589169
sI414
F63.282715526805021
sI415
F54.438735421925486
sI416
F53.13105533356876
sI417
F54.822631585652289
sI418
F70.419592729245707
sI419
F70.430226838913256
sI420
F59.16116559468086
sI421
F68.975173674501235
sI422
F68.955402877963522
sI423
F59.601689762521858
sI424
F55.006770879766698
sI425
F57.764065178070823
sI426
F57.368056986974096
sI427
F63.720978985531133
sI428
F60.406249163107255
sI429
F54.031435343089264
sI430
F55.861318391692983
sI431
F46.226334592962296
sI432
F60.693888402381077
sI433
F53.162681831840032
sI434
F58.263381890415133
sI435
F51.074416487507307
sI436
F51.920438243465618
sI437
F45.680911778069238
sI438
F44.842115438646502
sI439
F47.818137032651514
sI440
F49.616355983697666
sI441
F48.208372889019564
sI442
F60.329948511330308
sI443
F61.731268987277382
sI444
F68.247427670195293
sI445
F61.636767547798797
sI446
F54.494687314614922
sI447
F39.765931432931538
sI448
F54.183863117803476
sI449
F45.880200668566353
sI450
F50.211831110319388
sI451
F53.990211664756039
sI452
F59.419047473649002
sI453
F61.359107474266473
sI454
F61.254866122121342
sI455
F64.545663541041122
sI456
F68.298060535073063
sI457
F67.367812907716555
sI458
F61.585841544795841
sI459
F71.2448691453436
sI460
F54.699043104066682
sI461
F59.804535197134427
sI462
F38.145392342130052
sI463
F39.654057368607781
sI464
F53.035428666101275
sI465
F41.898704160476711
sI466
F52.052345707269879
sI467
F64.407156396318598
sI468
F39.673037971378776
sI469
F65.514985936109184
sI470
F68.304058632880697
sI471
F48.140624759851384
sI472
F55.117801734736084
sI473
F46.53067998801815
sI474
F43.334199082249043
sI475
F43.305456895472211
sI476
F54.11308266801926
sI477
F53.183065341355075
sI478
F75.814520548768655
sI479
F80.101767409154434
sI480
F71.586911897067253
sI481
F65.977808117525925
sI482
F62.355373792617122
sI483
F76.343163297911204
sI484
F68.904628679073483
sI485
F53.040139814735326
sI486
F69.318198458126858
sI487
F69.064111624022772
sI488
F64.443513199936902
sI489
F69.456589217247284
sI490
F65.136363503096817
sI491
F60.838297265609675
sI492
F45.044498460449319
sI493
F50.466339610597508
sI494
F67.919464775946224
sI495
F81.38732747667612
sI496
F69.339853813279888
sI497
F67.004257603916713
sI498
F53.336880890347437
sI499
F60.280120276745812
sI500
F61.248059076215256
sI501
F70.998716198727919
sI502
F87.410023744655064
sI503
F71.480724537852382
sI504
F64.044650779117958
sI505
F56.657638380256778
sI506
F68.307960746046263
sI507
F72.720744679426247
sI508
F70.38984842230542
sI509
F88.327070956584947
sI510
F64.653341335904088
sI511
F46.152282883201273
sI512
F55.678914173845683
sI513
F65.548394395854075
sI514
F49.222929275459471
sI515
F60.186564270863968
sI516
F75.845215465099074
sI517
F94.841838519504122
sI518
F86.707409772143194
sI519
F77.871453507187951
sI520
F67.37861497234347
sI521
F73.198992166981597
sI522
F81.529870967598853
sI523
F91.653852801644874
sI524
F74.055216008316393
sI525
F84.301539765719426
sI526
F95.413683787954568
sI527
F83.250437371865274
stp4
Rp5
(dp6
S'scale'
p7
I0
sS'description'
p8
S'custom_cell_property3'
p9
sb.