ccopy_reg
_reconstructor
p0
(copenalea.stse.io.walled_tissue.native_representation
IOTissueProperty
p1
c__builtin__
dict
p2
(dp3
I0
(lp4
I1
aI2
asI1
(lp5
I1
aI45
asI2
(lp6
I2
aI109
asI3
(lp7
I2
aI46
asI4
(lp8
I3
aI17
asI5
(lp9
I3
aI76
asI6
(lp10
I3
aI69
asI7
(lp11
I4
aI22
asI8
(lp12
I4
aI5
asI9
(lp13
I5
aI30
asI10
(lp14
I5
aI15
asI11
(lp15
I6
aI19
asI12
(lp16
I6
aI140
asI13
(lp17
I7
aI43
asI14
(lp18
I7
aI36
asI15
(lp19
I7
aI39
asI16
(lp20
I8
aI10
asI17
(lp21
I8
aI12
asI18
(lp22
I9
aI10
asI19
(lp23
I9
aI166
asI20
(lp24
I10
aI96
asI21
(lp25
I12
aI101
asI22
(lp26
I13
aI49
asI23
(lp27
I13
aI151
asI24
(lp28
I14
aI152
asI25
(lp29
I14
aI15
asI26
(lp30
I15
aI80
asI27
(lp31
I16
aI17
asI28
(lp32
I16
aI70
asI29
(lp33
I17
aI132
asI30
(lp34
I18
aI19
asI31
(lp35
I18
aI20
asI32
(lp36
I19
aI211
asI33
(lp37
I20
aI21
asI34
(lp38
I21
aI210
asI35
(lp39
I21
aI23
asI36
(lp40
I22
aI64
asI37
(lp41
I22
aI31
asI38
(lp42
I23
aI66
asI39
(lp43
I24
aI75
asI40
(lp44
I24
aI205
asI41
(lp45
I24
aI149
asI42
(lp46
I25
aI27
asI43
(lp47
I25
aI86
asI44
(lp48
I25
aI79
asI45
(lp49
I26
aI27
asI46
(lp50
I26
aI28
asI47
(lp51
I26
aI54
asI48
(lp52
I27
aI42
asI49
(lp53
I28
aI51
asI50
(lp54
I28
aI85
asI51
(lp55
I29
aI146
asI52
(lp56
I29
aI78
asI53
(lp57
I29
aI87
asI54
(lp58
I30
aI34
asI55
(lp59
I30
aI31
asI56
(lp60
I31
aI33
asI57
(lp61
I32
aI72
asI58
(lp62
I32
aI33
asI59
(lp63
I32
aI35
asI60
(lp64
I33
aI65
asI61
(lp65
I34
aI81
asI62
(lp66
I34
aI35
asI63
(lp67
I35
aI89
asI64
(lp68
I36
aI107
asI65
(lp69
I36
aI38
asI66
(lp70
I37
aI100
asI67
(lp71
I37
aI38
asI68
(lp72
I37
aI63
asI69
(lp73
I38
aI90
asI70
(lp74
I39
aI40
asI71
(lp75
I39
aI92
asI72
(lp76
I40
aI41
asI73
(lp77
I40
aI226
asI74
(lp78
I41
aI42
asI75
(lp79
I41
aI52
asI76
(lp80
I42
aI91
asI77
(lp81
I43
aI97
asI78
(lp82
I43
aI158
asI79
(lp83
I45
aI48
asI80
(lp84
I46
aI48
asI81
(lp85
I46
aI228
asI82
(lp86
I47
aI48
asI83
(lp87
I47
aI108
asI84
(lp88
I49
aI112
asI85
(lp89
I49
aI110
asI86
(lp90
I50
aI51
asI87
(lp91
I50
aI53
asI88
(lp92
I50
aI111
asI89
(lp93
I51
aI83
asI90
(lp94
I52
aI257
asI91
(lp95
I52
aI54
asI92
(lp96
I53
aI172
asI93
(lp97
I53
aI54
asI94
(lp98
I55
aI59
asI95
(lp99
I55
aI135
asI96
(lp100
I57
aI58
asI97
(lp101
I57
aI59
asI98
(lp102
I57
aI61
asI99
(lp103
I58
aI133
asI100
(lp104
I58
aI125
asI101
(lp105
I59
aI122
asI102
(lp106
I60
aI126
asI103
(lp107
I60
aI61
asI104
(lp108
I60
aI62
asI105
(lp109
I61
aI136
asI106
(lp110
I62
aI94
asI107
(lp111
I62
aI63
asI108
(lp112
I63
aI139
asI109
(lp113
I64
aI65
asI110
(lp114
I64
aI183
asI111
(lp115
I65
aI142
asI112
(lp116
I66
aI144
asI113
(lp117
I66
aI67
asI114
(lp118
I67
aI70
asI115
(lp119
I68
aI74
asI116
(lp120
I68
aI69
asI117
(lp121
I68
aI143
asI118
(lp122
I69
aI70
asI119
(lp123
I71
aI88
asI120
(lp124
I71
aI145
asI121
(lp125
I71
aI72
asI122
(lp126
I72
aI73
asI123
(lp127
I73
aI187
asI124
(lp128
I73
aI141
asI125
(lp129
I74
aI217
asI126
(lp130
I74
aI76
asI127
(lp131
I75
aI77
asI128
(lp132
I75
aI189
asI129
(lp133
I76
aI77
asI130
(lp134
I77
aI177
asI131
(lp135
I78
aI128
asI132
(lp136
I78
aI79
asI133
(lp137
I79
aI95
asI134
(lp138
I80
aI153
asI135
(lp139
I80
aI81
asI136
(lp140
I81
aI82
asI137
(lp141
I82
aI83
asI138
(lp142
I82
aI84
asI139
(lp143
I83
aI150
asI140
(lp144
I84
aI89
asI141
(lp145
I84
aI85
asI142
(lp146
I85
aI86
asI143
(lp147
I86
aI87
asI144
(lp148
I87
aI88
asI145
(lp149
I88
aI89
asI146
(lp150
I90
aI92
asI147
(lp151
I90
aI94
asI148
(lp152
I91
aI92
asI149
(lp153
I91
aI95
asI150
(lp154
I93
aI95
asI151
(lp155
I93
aI94
asI152
(lp156
I93
aI127
asI153
(lp157
I96
aI156
asI154
(lp158
I96
aI102
asI155
(lp159
I97
aI225
asI156
(lp160
I97
aI161
asI157
(lp161
I99
aI100
asI158
(lp162
I99
aI138
asI159
(lp163
I100
aI106
asI160
(lp164
I101
aI163
asI161
(lp165
I101
aI102
asI162
(lp166
I102
aI222
asI163
(lp167
I103
aI104
asI164
(lp168
I103
aI105
asI165
(lp169
I104
aI160
asI166
(lp170
I104
aI162
asI167
(lp171
I105
aI106
asI168
(lp172
I106
aI107
asI169
(lp173
I107
aI159
asI170
(lp174
I108
aI169
asI171
(lp175
I108
aI202
asI172
(lp176
I109
aI229
asI173
(lp177
I109
aI110
asI174
(lp178
I110
aI201
asI175
(lp179
I111
aI155
asI176
(lp180
I111
aI199
asI177
(lp181
I112
aI200
asI178
(lp182
I112
aI154
asI179
(lp183
I113
aI130
asI180
(lp184
I113
aI118
asI181
(lp185
I114
aI120
asI182
(lp186
I114
aI131
asI183
(lp187
I114
aI253
asI184
(lp188
I115
aI116
asI185
(lp189
I115
aI118
asI186
(lp190
I116
aI117
asI187
(lp191
I117
aI174
asI188
(lp192
I117
aI119
asI189
(lp193
I118
aI120
asI190
(lp194
I119
aI120
asI191
(lp195
I119
aI181
asI192
(lp196
I121
aI122
asI193
(lp197
I121
aI175
asI194
(lp198
I122
aI134
asI195
(lp199
I123
aI128
asI196
(lp200
I123
aI147
asI197
(lp201
I123
aI124
asI198
(lp202
I124
aI125
asI199
(lp203
I124
aI238
asI200
(lp204
I125
aI126
asI201
(lp205
I126
aI127
asI202
(lp206
I127
aI128
asI203
(lp207
I129
aI130
asI204
(lp208
I129
aI132
asI205
(lp209
I130
aI131
asI206
(lp210
I131
aI179
asI207
(lp211
I132
aI178
asI208
(lp212
I133
aI262
asI209
(lp213
I133
aI134
asI210
(lp214
I134
aI176
asI211
(lp215
I135
aI136
asI212
(lp216
I136
aI139
asI213
(lp217
I138
aI139
asI214
(lp218
I140
aI184
asI215
(lp219
I140
aI212
asI216
(lp220
I141
aI142
asI217
(lp221
I141
aI185
asI218
(lp222
I142
aI241
asI219
(lp223
I143
aI144
asI220
(lp224
I143
aI215
asI221
(lp225
I144
aI209
asI222
(lp226
I145
aI146
asI223
(lp227
I145
aI186
asI224
(lp228
I146
aI147
asI225
(lp229
I147
aI148
asI226
(lp230
I148
aI236
asI227
(lp231
I148
aI149
asI228
(lp232
I149
aI188
asI229
(lp233
I150
aI153
asI230
(lp234
I150
aI155
asI231
(lp235
I151
aI152
asI232
(lp236
I151
aI154
asI233
(lp237
I152
aI153
asI234
(lp238
I154
aI155
asI235
(lp239
I156
aI157
asI236
(lp240
I156
aI190
asI237
(lp241
I157
aI193
asI238
(lp242
I157
aI167
asI239
(lp243
I158
aI191
asI240
(lp244
I158
aI159
asI241
(lp245
I159
aI160
asI242
(lp246
I160
aI164
asI243
(lp247
I161
aI224
asI244
(lp248
I161
aI192
asI245
(lp249
I162
aI163
asI246
(lp250
I162
aI164
asI247
(lp251
I163
aI223
asI248
(lp252
I164
aI221
asI249
(lp253
I165
aI168
asI250
(lp254
I165
aI166
asI251
(lp255
I166
aI167
asI252
(lp256
I167
aI196
asI253
(lp257
I168
aI170
asI254
(lp258
I168
aI197
asI255
(lp259
I169
aI171
asI256
(lp260
I170
aI171
asI257
(lp261
I171
aI203
asI258
(lp262
I172
aI173
asI259
(lp263
I172
aI198
asI260
(lp264
I173
aI258
asI261
(lp265
I173
aI231
asI262
(lp266
I174
aI182
asI263
(lp267
I174
aI175
asI264
(lp268
I175
aI176
asI265
(lp269
I176
aI180
asI266
(lp270
I177
aI178
asI267
(lp271
I177
aI206
asI268
(lp272
I178
aI179
asI269
(lp273
I179
aI207
asI270
(lp274
I180
aI182
asI271
(lp275
I180
aI263
asI272
(lp276
I181
aI182
asI273
(lp277
I181
aI254
asI274
(lp278
I183
aI184
asI275
(lp279
I183
aI242
asI276
(lp280
I184
aI243
asI277
(lp281
I185
aI213
asI278
(lp282
I185
aI239
asI279
(lp283
I186
aI187
asI280
(lp284
I186
aI188
asI281
(lp285
I187
aI214
asI282
(lp286
I188
aI189
asI283
(lp287
I189
aI218
asI284
(lp288
I190
aI193
asI285
(lp289
I190
aI219
asI286
(lp290
I191
aI192
asI287
(lp291
I191
aI220
asI288
(lp292
I192
aI194
asI289
(lp293
I193
aI194
asI290
(lp294
I194
aI195
asI291
(lp295
I195
aI196
asI292
(lp296
I195
aI245
asI293
(lp297
I196
aI197
asI294
(lp298
I197
aI266
asI295
(lp299
I198
aI230
asI296
(lp300
I198
aI199
asI297
(lp301
I199
aI200
asI298
(lp302
I200
aI201
asI299
(lp303
I201
aI249
asI300
(lp304
I202
aI227
asI301
(lp305
I202
aI204
asI302
(lp306
I203
aI267
asI303
(lp307
I203
aI204
asI304
(lp308
I204
aI234
asI305
(lp309
I205
aI237
asI306
(lp310
I205
aI206
asI307
(lp311
I206
aI207
asI308
(lp312
I207
aI251
asI309
(lp313
I208
aI240
asI310
(lp314
I208
aI216
asI311
(lp315
I208
aI209
asI312
(lp316
I209
aI210
asI313
(lp317
I210
aI211
asI314
(lp318
I211
aI212
asI315
(lp319
I212
aI244
asI316
(lp320
I213
aI216
asI317
(lp321
I213
aI214
asI318
(lp322
I214
aI218
asI319
(lp323
I215
aI216
asI320
(lp324
I215
aI217
asI321
(lp325
I217
aI218
asI322
(lp326
I219
aI220
asI323
(lp327
I219
aI222
asI324
(lp328
I220
aI221
asI325
(lp329
I221
aI223
asI326
(lp330
I222
aI223
asI327
(lp331
I224
aI246
asI328
(lp332
I224
aI225
asI329
(lp333
I225
aI226
asI330
(lp334
I226
aI256
asI331
(lp335
I227
aI232
asI332
(lp336
I227
aI228
asI333
(lp337
I228
aI229
asI334
(lp338
I229
aI250
asI335
(lp339
I230
aI247
asI336
(lp340
I230
aI231
asI337
(lp341
I231
aI233
asI338
(lp342
I232
aI248
asI339
(lp343
I232
aI235
asI340
(lp344
I233
aI259
asI341
(lp345
I233
aI235
asI342
(lp346
I234
aI235
asI343
(lp347
I234
aI268
asI344
(lp348
I236
aI237
asI345
(lp349
I236
aI238
asI346
(lp350
I237
aI252
asI347
(lp351
I238
aI260
asI348
(lp352
I239
aI240
asI349
(lp353
I239
aI241
asI350
(lp354
I240
aI244
asI351
(lp355
I241
aI242
asI352
(lp356
I242
aI243
asI353
(lp357
I243
aI244
asI354
(lp358
I245
aI265
asI355
(lp359
I245
aI246
asI356
(lp360
I246
aI255
asI357
(lp361
I247
aI248
asI358
(lp362
I247
aI249
asI359
(lp363
I248
aI250
asI360
(lp364
I249
aI250
asI361
(lp365
I251
aI252
asI362
(lp366
I251
aI253
asI363
(lp367
I252
aI261
asI364
(lp368
I253
aI254
asI365
(lp369
I254
aI264
asI366
(lp370
I255
aI256
asI367
(lp371
I255
aI269
asI368
(lp372
I256
aI257
asI369
(lp373
I257
aI258
asI370
(lp374
I258
aI259
asI371
(lp375
I259
aI271
asI372
(lp376
I260
aI262
asI373
(lp377
I260
aI261
asI374
(lp378
I261
aI264
asI375
(lp379
I262
aI263
asI376
(lp380
I263
aI264
asI377
(lp381
I265
aI266
asI378
(lp382
I265
aI270
asI379
(lp383
I266
aI267
asI380
(lp384
I267
aI268
asI381
(lp385
I268
aI272
asI382
(lp386
I269
aI271
asI383
(lp387
I269
aI270
asI384
(lp388
I270
aI272
asI385
(lp389
I271
aI272
astp390
Rp391
(dp392
S'scale'
p393
I1
sS'description'
p394
S''
p395
sb.