ccopy_reg
_reconstructor
p0
(copenalea.stse.io.walled_tissue.native_representation
IOTissueProperty
p1
c__builtin__
dict
p2
(dp3
I11
I00
sI12
I00
sI13
I00
sI14
I00
sI15
I00
sI16
I00
sI17
I00
sI18
I00
sI21
I00
sI22
I00
sI23
I00
sI24
I00
sI25
I00
sI26
I00
sI27
I00
sI28
I00
sI31
I00
sI32
I00
sI33
I00
sI34
I00
sI35
I00
sI36
I00
sI37
I00
sI38
I00
sI41
I00
sI42
I00
sI43
I00
sI44
I00
sI45
I00
sI46
I00
sI47
I00
sI48
I00
sI51
I00
sI52
I00
sI53
I00
sI54
I00
sI55
I00
sI56
I00
sI57
I00
sI58
I00
sI61
I00
sI62
I00
sI63
I00
sI64
I00
sI65
I00
sI66
I00
sI67
I00
sI68
I00
sI71
I00
sI72
I00
sI73
I00
sI74
I00
sI75
I00
sI76
I00
sI77
I00
sI78
I00
sI82
I00
sI84
I00
sI86
I00
sI88
I00
sI90
I00
sI91
I00
sI92
I00
sI93
I00
sI94
I00
sI95
I00
sI96
I00
sI97
I00
sI98
I00
sI99
I00
sI100
I00
sI101
I00
sI102
I00
sI103
I00
sI104
I00
sI105
I00
sI106
I00
sI107
I00
sI108
I00
sI109
I00
sI110
I00
sI111
I00
sI112
I00
sI113
I00
sI114
I00
sI115
I00
sI116
I00
sI117
I00
sI118
I00
sI119
I00
sI120
I00
sI121
I00
sI122
I00
sI123
I00
sI124
I00
sI125
I00
sI126
I00
sI127
I00
sI128
I00
sI129
I00
sI130
I00
sI131
I00
sI132
I00
sI133
I00
sI134
I00
sI135
I00
sI136
I00
sI137
I00
sI138
I00
sI139
I00
sI140
I00
sI141
I00
sI142
I00
sI143
I00
sI144
I00
sI145
I00
sI146
I00
sI147
I00
sI148
I00
sI149
I00
stp4
Rp5
(dp6
S'scale'
p7
I0
sS'description'
p8
S'was_inf'
p9
sb.