ccopy_reg
_reconstructor
p0
(copenalea.stse.io.walled_tissue.native_representation
IOTissueProperty
p1
c__builtin__
dict
p2
(dp3
I23
S'A'
p4
sI24
S'A'
p5
sI25
S'A'
p6
sI26
S'A'
p7
sI27
S'A'
p8
sI28
S'A'
p9
sI29
S'A'
p10
sI30
S'A'
p11
sI31
S'A'
p12
sI32
S'A'
p13
sI33
S'A'
p14
sI34
S'A'
p15
sI35
S'A'
p16
sI36
S'A'
p17
sI37
S'A'
p18
sI38
S'A'
p19
sI39
S'A'
p20
sI40
S'A'
p21
sI41
S'A'
p22
sI42
S'A'
p23
sI45
S'A'
p24
sI46
S'A'
p25
sI47
S'A'
p26
sI48
S'A'
p27
sI49
S'A'
p28
sI50
S'A'
p29
sI51
S'D'
p30
sI52
S'D'
p31
sI53
S'D'
p32
sI54
S'D'
p33
sI55
S'D'
p34
sI56
S'D'
p35
sI57
S'D'
p36
sI58
S'A'
p37
sI59
S'A'
p38
sI60
S'A'
p39
sI61
S'A'
p40
sI62
S'A'
p41
sI63
S'A'
p42
sI64
S'A'
p43
sI67
S'A'
p44
sI68
S'A'
p45
sI69
S'A'
p46
sI70
S'A'
p47
sI71
S'A'
p48
sI72
S'D'
p49
sI73
S'D'
p50
sI74
S'D'
p51
sI75
S'B'
p52
sI76
S'B'
p53
sI77
S'B'
p54
sI78
S'B'
p55
sI79
S'B'
p56
sI80
S'D'
p57
sI81
S'D'
p58
sI82
S'A'
p59
sI83
S'A'
p60
sI84
S'A'
p61
sI85
S'A'
p62
sI86
S'A'
p63
sI89
S'A'
p64
sI90
S'A'
p65
sI91
S'A'
p66
sI92
S'A'
p67
sI93
S'D'
p68
sI94
S'D'
p69
sI95
S'B'
p70
sI96
S'B'
p71
sI97
S'B'
p72
sI98
S'B'
p73
sI99
S'B'
p74
sI100
S'B'
p75
sI101
S'B'
p76
sI102
S'D'
p77
sI103
S'D'
p78
sI104
S'A'
p79
sI105
S'A'
p80
sI106
S'A'
p81
sI107
S'A'
p82
sI108
S'A'
p83
sI111
S'A'
p84
sI112
S'A'
p85
sI113
S'A'
p86
sI114
S'D'
p87
sI115
S'D'
p88
sI116
S'B'
p89
sI117
S'B'
p90
sI118
S'B'
p91
sI119
S'B'
p92
sI120
S'B'
p93
sI121
S'B'
p94
sI122
S'B'
p95
sI123
S'B'
p96
sI124
S'B'
p97
sI125
S'B'
p98
sI126
S'D'
p99
sI127
S'A'
p100
sI128
S'A'
p101
sI129
S'A'
p102
sI130
S'A'
p103
sI133
S'A'
p104
sI134
S'A'
p105
sI135
S'A'
p106
sI136
S'D'
p107
sI137
S'B'
p108
sI138
S'B'
p109
sI139
S'B'
p110
sI140
S'B'
p111
sI141
S'B'
p112
sI142
S'B'
p113
sI143
S'B'
p114
sI144
S'B'
p115
sI145
S'B'
p116
sI146
S'B'
p117
sI147
S'B'
p118
sI148
S'D'
p119
sI149
S'D'
p120
sI150
S'A'
p121
sI151
S'A'
p122
sI152
S'A'
p123
sI155
S'A'
p124
sI156
S'A'
p125
sI157
S'D'
p126
sI158
S'D'
p127
sI159
S'B'
p128
sI160
S'B'
p129
sI161
S'B'
p130
sI162
S'B'
p131
sI163
S'B'
p132
sI164
S'B'
p133
sI165
S'B'
p134
sI166
S'B'
p135
sI167
S'B'
p136
sI168
S'B'
p137
sI169
S'B'
p138
sI170
S'B'
p139
sI171
S'D'
p140
sI172
S'A'
p141
sI173
S'A'
p142
sI174
S'A'
p143
sI177
S'A'
p144
sI178
S'A'
p145
sI179
S'D'
p146
sI180
S'B'
p147
sI181
S'B'
p148
sI182
S'B'
p149
sI183
S'B'
p150
sI184
S'B'
p151
sI185
S'E'
p152
sI186
S'E'
p153
sI187
S'E'
p154
sI188
S'B'
p155
sI189
S'B'
p156
sI190
S'B'
p157
sI191
S'B'
p158
sI192
S'B'
p159
sI193
S'D'
p160
sI194
S'D'
p161
sI195
S'A'
p162
sI196
S'A'
p163
sI199
S'A'
p164
sI200
S'A'
p165
sI201
S'D'
p166
sI202
S'B'
p167
sI203
S'B'
p168
sI204
S'B'
p169
sI205
S'B'
p170
sI206
S'E'
p171
sI207
S'E'
p172
sI208
S'C'
p173
sI209
S'C'
p174
sI210
S'E'
p175
sI211
S'B'
p176
sI212
S'B'
p177
sI213
S'B'
p178
sI214
S'B'
p179
sI215
S'B'
p180
sI216
S'D'
p181
sI217
S'A'
p182
sI218
S'A'
p183
sI221
S'A'
p184
sI222
S'D'
p185
sI223
S'D'
p186
sI224
S'B'
p187
sI225
S'B'
p188
sI226
S'B'
p189
sI227
S'B'
p190
sI228
S'E'
p191
sI229
S'C'
p192
sI230
S'C'
p193
sI231
S'C'
p194
sI232
S'E'
p195
sI233
S'E'
p196
sI234
S'B'
p197
sI235
S'B'
p198
sI236
S'B'
p199
sI237
S'B'
p200
sI238
S'D'
p201
sI239
S'A'
p202
sI240
S'A'
p203
sI243
S'A'
p204
sI244
S'D'
p205
sI245
S'B'
p206
sI246
S'B'
p207
sI247
S'B'
p208
sI248
S'B'
p209
sI249
S'B'
p210
sI250
S'E'
p211
sI251
S'C'
p212
sI252
S'C'
p213
sI253
S'C'
p214
sI254
S'C'
p215
sI255
S'E'
p216
sI256
S'B'
p217
sI257
S'B'
p218
sI258
S'B'
p219
sI259
S'B'
p220
sI260
S'D'
p221
sI261
S'A'
p222
sI262
S'A'
p223
sI265
S'A'
p224
sI266
S'D'
p225
sI267
S'B'
p226
sI268
S'B'
p227
sI269
S'B'
p228
sI270
S'B'
p229
sI271
S'B'
p230
sI272
S'E'
p231
sI273
S'C'
p232
sI274
S'C'
p233
sI275
S'C'
p234
sI276
S'C'
p235
sI277
S'E'
p236
sI278
S'B'
p237
sI279
S'B'
p238
sI280
S'B'
p239
sI281
S'B'
p240
sI282
S'D'
p241
sI283
S'A'
p242
sI284
S'A'
p243
sI287
S'A'
p244
sI288
S'D'
p245
sI289
S'B'
p246
sI290
S'B'
p247
sI291
S'B'
p248
sI292
S'B'
p249
sI293
S'B'
p250
sI294
S'E'
p251
sI295
S'E'
p252
sI296
S'C'
p253
sI297
S'C'
p254
sI298
S'E'
p255
sI299
S'B'
p256
sI300
S'B'
p257
sI301
S'B'
p258
sI302
S'B'
p259
sI303
S'B'
p260
sI304
S'D'
p261
sI305
S'A'
p262
sI306
S'A'
p263
sI309
S'A'
p264
sI310
S'D'
p265
sI311
S'B'
p266
sI312
S'B'
p267
sI313
S'B'
p268
sI314
S'B'
p269
sI315
S'B'
p270
sI316
S'E'
p271
sI317
S'E'
p272
sI318
S'C'
p273
sI319
S'E'
p274
sI320
S'E'
p275
sI321
S'B'
p276
sI322
S'B'
p277
sI323
S'B'
p278
sI324
S'B'
p279
sI325
S'B'
p280
sI326
S'D'
p281
sI327
S'A'
p282
sI328
S'A'
p283
sI331
S'A'
p284
sI332
S'D'
p285
sI333
S'D'
p286
sI334
S'B'
p287
sI335
S'B'
p288
sI336
S'B'
p289
sI337
S'B'
p290
sI338
S'B'
p291
sI339
S'B'
p292
sI340
S'E'
p293
sI341
S'B'
p294
sI342
S'B'
p295
sI343
S'B'
p296
sI344
S'B'
p297
sI345
S'B'
p298
sI346
S'B'
p299
sI347
S'B'
p300
sI348
S'D'
p301
sI349
S'A'
p302
sI350
S'A'
p303
sI353
S'A'
p304
sI354
S'D'
p305
sI355
S'D'
p306
sI356
S'B'
p307
sI357
S'B'
p308
sI358
S'B'
p309
sI359
S'B'
p310
sI360
S'B'
p311
sI361
S'B'
p312
sI362
S'B'
p313
sI363
S'B'
p314
sI364
S'B'
p315
sI365
S'B'
p316
sI366
S'B'
p317
sI367
S'B'
p318
sI368
S'B'
p319
sI369
S'B'
p320
sI370
S'D'
p321
sI371
S'A'
p322
sI372
S'A'
p323
sI375
S'A'
p324
sI376
S'A'
p325
sI377
S'D'
p326
sI378
S'B'
p327
sI379
S'B'
p328
sI380
S'B'
p329
sI381
S'B'
p330
sI382
S'B'
p331
sI383
S'B'
p332
sI384
S'B'
p333
sI385
S'B'
p334
sI386
S'B'
p335
sI387
S'B'
p336
sI388
S'B'
p337
sI389
S'B'
p338
sI390
S'B'
p339
sI391
S'D'
p340
sI392
S'D'
p341
sI393
S'A'
p342
sI394
S'A'
p343
sI397
S'A'
p344
sI398
S'A'
p345
sI399
S'D'
p346
sI400
S'B'
p347
sI401
S'B'
p348
sI402
S'B'
p349
sI403
S'B'
p350
sI404
S'B'
p351
sI405
S'B'
p352
sI406
S'B'
p353
sI407
S'B'
p354
sI408
S'B'
p355
sI409
S'B'
p356
sI410
S'B'
p357
sI411
S'B'
p358
sI412
S'B'
p359
sI413
S'D'
p360
sI414
S'D'
p361
sI415
S'A'
p362
sI416
S'A'
p363
sI419
S'A'
p364
sI420
S'A'
p365
sI421
S'A'
p366
sI422
S'D'
p367
sI423
S'B'
p368
sI424
S'B'
p369
sI425
S'B'
p370
sI426
S'B'
p371
sI427
S'B'
p372
sI428
S'B'
p373
sI429
S'B'
p374
sI430
S'B'
p375
sI431
S'B'
p376
sI432
S'B'
p377
sI433
S'B'
p378
sI434
S'B'
p379
sI435
S'D'
p380
sI436
S'A'
p381
sI437
S'A'
p382
sI438
S'A'
p383
sI441
S'A'
p384
sI442
S'A'
p385
sI443
S'A'
p386
sI444
S'D'
p387
sI445
S'D'
p388
sI446
S'B'
p389
sI447
S'B'
p390
sI448
S'B'
p391
sI449
S'B'
p392
sI450
S'B'
p393
sI451
S'B'
p394
sI452
S'B'
p395
sI453
S'B'
p396
sI454
S'B'
p397
sI455
S'B'
p398
sI456
S'D'
p399
sI457
S'A'
p400
sI458
S'A'
p401
sI459
S'A'
p402
sI460
S'A'
p403
sI463
S'A'
p404
sI464
S'A'
p405
sI465
S'A'
p406
sI466
S'A'
p407
sI467
S'D'
p408
sI468
S'B'
p409
sI469
S'B'
p410
sI470
S'B'
p411
sI471
S'B'
p412
sI472
S'B'
p413
sI473
S'B'
p414
sI474
S'B'
p415
sI475
S'B'
p416
sI476
S'B'
p417
sI477
S'D'
p418
sI478
S'D'
p419
sI479
S'A'
p420
sI480
S'A'
p421
sI481
S'A'
p422
sI482
S'A'
p423
sI485
S'A'
p424
sI486
S'A'
p425
sI487
S'A'
p426
sI488
S'A'
p427
sI489
S'A'
p428
sI490
S'D'
p429
sI491
S'B'
p430
sI492
S'B'
p431
sI493
S'B'
p432
sI494
S'B'
p433
sI495
S'B'
p434
sI496
S'B'
p435
sI497
S'B'
p436
sI498
S'D'
p437
sI499
S'D'
p438
sI500
S'A'
p439
sI501
S'A'
p440
sI502
S'A'
p441
sI503
S'A'
p442
sI504
S'A'
p443
sI507
S'A'
p444
sI508
S'A'
p445
sI509
S'A'
p446
sI510
S'A'
p447
sI511
S'A'
p448
sI512
S'D'
p449
sI513
S'B'
p450
sI514
S'B'
p451
sI515
S'B'
p452
sI516
S'B'
p453
sI517
S'B'
p454
sI518
S'B'
p455
sI519
S'B'
p456
sI520
S'D'
p457
sI521
S'D'
p458
sI522
S'A'
p459
sI523
S'A'
p460
sI524
S'A'
p461
sI525
S'A'
p462
sI526
S'A'
p463
sI529
S'A'
p464
sI530
S'A'
p465
sI531
S'A'
p466
sI532
S'A'
p467
sI533
S'A'
p468
sI534
S'D'
p469
sI535
S'B'
p470
sI536
S'B'
p471
sI537
S'B'
p472
sI538
S'B'
p473
sI539
S'B'
p474
sI540
S'B'
p475
sI541
S'B'
p476
sI542
S'B'
p477
sI543
S'D'
p478
sI544
S'A'
p479
sI545
S'A'
p480
sI546
S'A'
p481
sI547
S'A'
p482
sI548
S'A'
p483
sI551
S'A'
p484
sI552
S'A'
p485
sI553
S'A'
p486
sI554
S'A'
p487
sI555
S'A'
p488
sI556
S'D'
p489
sI557
S'B'
p490
sI558
S'B'
p491
sI559
S'B'
p492
sI560
S'B'
p493
sI561
S'B'
p494
sI562
S'B'
p495
sI563
S'B'
p496
sI564
S'B'
p497
sI565
S'D'
p498
sI566
S'A'
p499
sI567
S'A'
p500
sI568
S'A'
p501
sI569
S'A'
p502
sI570
S'A'
p503
sI573
S'A'
p504
sI574
S'A'
p505
sI575
S'A'
p506
sI576
S'A'
p507
sI577
S'A'
p508
sI578
S'D'
p509
sI579
S'B'
p510
sI580
S'B'
p511
sI581
S'B'
p512
sI582
S'B'
p513
sI583
S'B'
p514
sI584
S'B'
p515
sI585
S'B'
p516
sI586
S'B'
p517
sI587
S'D'
p518
sI588
S'A'
p519
sI589
S'A'
p520
sI590
S'A'
p521
sI591
S'A'
p522
sI592
S'A'
p523
sI595
S'A'
p524
sI596
S'A'
p525
sI597
S'A'
p526
sI598
S'A'
p527
sI599
S'A'
p528
sI600
S'D'
p529
sI601
S'B'
p530
sI602
S'B'
p531
sI603
S'B'
p532
sI604
S'B'
p533
sI605
S'B'
p534
sI606
S'B'
p535
sI607
S'B'
p536
sI608
S'D'
p537
sI609
S'D'
p538
sI610
S'A'
p539
sI611
S'A'
p540
sI612
S'A'
p541
sI613
S'A'
p542
sI614
S'A'
p543
sI617
S'A'
p544
sI618
S'A'
p545
sI619
S'A'
p546
sI620
S'A'
p547
sI621
S'A'
p548
sI622
S'D'
p549
sI623
S'B'
p550
sI624
S'B'
p551
sI625
S'B'
p552
sI626
S'B'
p553
sI627
S'B'
p554
sI628
S'B'
p555
sI629
S'B'
p556
sI630
S'D'
p557
sI631
S'A'
p558
sI632
S'A'
p559
sI633
S'A'
p560
sI634
S'A'
p561
sI635
S'A'
p562
sI636
S'A'
p563
sI639
S'A'
p564
sI640
S'A'
p565
sI641
S'A'
p566
sI642
S'A'
p567
sI643
S'A'
p568
sI644
S'D'
p569
sI645
S'D'
p570
sI646
S'B'
p571
sI647
S'B'
p572
sI648
S'B'
p573
sI649
S'B'
p574
sI650
S'B'
p575
sI651
S'B'
p576
sI652
S'D'
p577
sI653
S'A'
p578
sI654
S'A'
p579
sI655
S'A'
p580
sI656
S'A'
p581
sI657
S'A'
p582
sI658
S'A'
p583
sI661
S'A'
p584
sI662
S'A'
p585
sI663
S'A'
p586
sI664
S'A'
p587
sI665
S'A'
p588
sI666
S'A'
p589
sI667
S'D'
p590
sI668
S'B'
p591
sI669
S'B'
p592
sI670
S'B'
p593
sI671
S'B'
p594
sI672
S'B'
p595
sI673
S'D'
p596
sI674
S'D'
p597
sI675
S'A'
p598
sI676
S'A'
p599
sI677
S'A'
p600
sI678
S'A'
p601
sI679
S'A'
p602
sI680
S'A'
p603
sI683
S'A'
p604
sI684
S'A'
p605
sI685
S'A'
p606
sI686
S'A'
p607
sI687
S'A'
p608
sI688
S'A'
p609
sI689
S'D'
p610
sI690
S'B'
p611
sI691
S'B'
p612
sI692
S'B'
p613
sI693
S'B'
p614
sI694
S'B'
p615
sI695
S'D'
p616
sI696
S'D'
p617
sI697
S'A'
p618
sI698
S'A'
p619
sI699
S'A'
p620
sI700
S'A'
p621
sI701
S'A'
p622
sI702
S'A'
p623
sI705
S'A'
p624
sI706
S'A'
p625
sI707
S'A'
p626
sI708
S'A'
p627
sI709
S'A'
p628
sI710
S'A'
p629
sI711
S'A'
p630
sI712
S'D'
p631
sI713
S'D'
p632
sI714
S'F'
p633
sI715
S'D'
p634
sI716
S'D'
p635
sI717
S'D'
p636
sI718
S'A'
p637
sI719
S'A'
p638
sI720
S'A'
p639
sI721
S'A'
p640
sI722
S'A'
p641
sI723
S'A'
p642
sI724
S'A'
p643
sI727
S'A'
p644
sI728
S'A'
p645
sI729
S'A'
p646
sI730
S'A'
p647
sI731
S'A'
p648
sI732
S'A'
p649
sI733
S'A'
p650
sI734
S'D'
p651
sI735
S'D'
p652
sI736
S'D'
p653
sI737
S'D'
p654
sI738
S'D'
p655
sI739
S'A'
p656
sI740
S'A'
p657
sI741
S'A'
p658
sI742
S'A'
p659
sI743
S'A'
p660
sI744
S'A'
p661
sI745
S'A'
p662
sI746
S'A'
p663
sI749
S'A'
p664
sI750
S'A'
p665
sI751
S'A'
p666
sI752
S'A'
p667
sI753
S'A'
p668
sI754
S'A'
p669
sI755
S'A'
p670
sI756
S'A'
p671
sI757
S'A'
p672
sI758
S'A'
p673
sI759
S'A'
p674
sI760
S'A'
p675
sI761
S'A'
p676
sI762
S'A'
p677
sI763
S'A'
p678
sI764
S'A'
p679
sI765
S'A'
p680
sI766
S'A'
p681
sI767
S'A'
p682
sI768
S'A'
p683
stp684
Rp685
(dp686
S'scale'
p687
I0
sS'description'
p688
S'cell_type'
p689
sb.