ccopy_reg
_reconstructor
p0
(copenalea.stse.io.walled_tissue.native_representation
IOTissueProperty
p1
c__builtin__
dict
p2
(dp3
I0
S'A'
p4
sI1
S'A'
p5
sI2
S'A'
p6
sI3
S'A'
p7
sI4
S'A'
p8
sI5
S'A'
p9
sI6
S'A'
p10
sI7
S'A'
p11
sI8
S'A'
p12
sI9
S'A'
p13
sI10
S'A'
p14
sI11
S'A'
p15
sI12
S'A'
p16
sI13
S'A'
p17
sI14
S'A'
p18
sI15
S'A'
p19
sI16
S'A'
p20
sI17
S'A'
p21
sI18
S'A'
p22
sI19
S'A'
p23
sI20
S'A'
p24
sI21
S'A'
p25
sI22
S'A'
p26
sI23
S'A'
p27
sI24
S'A'
p28
sI25
S'A'
p29
sI26
S'D'
p30
sI27
S'D'
p31
sI28
S'D'
p32
sI29
S'D'
p33
sI30
S'D'
p34
sI31
S'D'
p35
sI32
S'D'
p36
sI33
S'A'
p37
sI34
S'A'
p38
sI35
S'A'
p39
sI36
S'A'
p40
sI37
S'A'
p41
sI38
S'A'
p42
sI39
S'A'
p43
sI40
S'A'
p44
sI41
S'A'
p45
sI42
S'A'
p46
sI43
S'A'
p47
sI44
S'A'
p48
sI45
S'D'
p49
sI46
S'D'
p50
sI47
S'D'
p51
sI48
S'B'
p52
sI49
S'B'
p53
sI50
S'B'
p54
sI51
S'B'
p55
sI52
S'B'
p56
sI53
S'D'
p57
sI54
S'D'
p58
sI55
S'A'
p59
sI56
S'A'
p60
sI57
S'A'
p61
sI58
S'A'
p62
sI59
S'A'
p63
sI60
S'A'
p64
sI61
S'A'
p65
sI62
S'A'
p66
sI63
S'A'
p67
sI64
S'D'
p68
sI65
S'D'
p69
sI66
S'B'
p70
sI67
S'B'
p71
sI68
S'B'
p72
sI69
S'B'
p73
sI70
S'B'
p74
sI71
S'B'
p75
sI72
S'B'
p76
sI73
S'D'
p77
sI74
S'D'
p78
sI75
S'A'
p79
sI76
S'A'
p80
sI77
S'A'
p81
sI78
S'A'
p82
sI79
S'A'
p83
sI80
S'A'
p84
sI81
S'A'
p85
sI82
S'A'
p86
sI83
S'D'
p87
sI84
S'D'
p88
sI85
S'B'
p89
sI86
S'B'
p90
sI87
S'B'
p91
sI88
S'B'
p92
sI89
S'B'
p93
sI90
S'B'
p94
sI91
S'B'
p95
sI92
S'B'
p96
sI93
S'B'
p97
sI94
S'B'
p98
sI95
S'D'
p99
sI96
S'A'
p100
sI97
S'A'
p101
sI98
S'A'
p102
sI99
S'A'
p103
sI100
S'A'
p104
sI101
S'A'
p105
sI102
S'A'
p106
sI103
S'D'
p107
sI104
S'B'
p108
sI105
S'B'
p109
sI106
S'B'
p110
sI107
S'B'
p111
sI108
S'B'
p112
sI109
S'B'
p113
sI110
S'B'
p114
sI111
S'B'
p115
sI112
S'B'
p116
sI113
S'B'
p117
sI114
S'B'
p118
sI115
S'D'
p119
sI116
S'D'
p120
sI117
S'A'
p121
sI118
S'A'
p122
sI119
S'A'
p123
sI120
S'A'
p124
sI121
S'A'
p125
sI122
S'D'
p126
sI123
S'D'
p127
sI124
S'B'
p128
sI125
S'B'
p129
sI126
S'B'
p130
sI127
S'B'
p131
sI128
S'B'
p132
sI129
S'B'
p133
sI130
S'B'
p134
sI131
S'B'
p135
sI132
S'B'
p136
sI133
S'B'
p137
sI134
S'B'
p138
sI135
S'B'
p139
sI136
S'D'
p140
sI137
S'A'
p141
sI138
S'A'
p142
sI139
S'A'
p143
sI140
S'A'
p144
sI141
S'A'
p145
sI142
S'D'
p146
sI143
S'B'
p147
sI144
S'B'
p148
sI145
S'B'
p149
sI146
S'B'
p150
sI147
S'B'
p151
sI148
S'E'
p152
sI149
S'E'
p153
sI150
S'E'
p154
sI151
S'B'
p155
sI152
S'B'
p156
sI153
S'B'
p157
sI154
S'B'
p158
sI155
S'B'
p159
sI156
S'D'
p160
sI157
S'D'
p161
sI158
S'A'
p162
sI159
S'A'
p163
sI160
S'A'
p164
sI161
S'A'
p165
sI162
S'D'
p166
sI163
S'B'
p167
sI164
S'B'
p168
sI165
S'B'
p169
sI166
S'B'
p170
sI167
S'E'
p171
sI168
S'E'
p172
sI169
S'C'
p173
sI170
S'C'
p174
sI171
S'E'
p175
sI172
S'B'
p176
sI173
S'B'
p177
sI174
S'B'
p178
sI175
S'B'
p179
sI176
S'B'
p180
sI177
S'D'
p181
sI178
S'A'
p182
sI179
S'A'
p183
sI180
S'A'
p184
sI181
S'D'
p185
sI182
S'D'
p186
sI183
S'B'
p187
sI184
S'B'
p188
sI185
S'B'
p189
sI186
S'B'
p190
sI187
S'E'
p191
sI188
S'C'
p192
sI189
S'C'
p193
sI190
S'C'
p194
sI191
S'E'
p195
sI192
S'E'
p196
sI193
S'B'
p197
sI194
S'B'
p198
sI195
S'B'
p199
sI196
S'B'
p200
sI197
S'D'
p201
sI198
S'A'
p202
sI199
S'A'
p203
sI200
S'A'
p204
sI201
S'D'
p205
sI202
S'B'
p206
sI203
S'B'
p207
sI204
S'B'
p208
sI205
S'B'
p209
sI206
S'B'
p210
sI207
S'E'
p211
sI208
S'C'
p212
sI209
S'C'
p213
sI210
S'C'
p214
sI211
S'C'
p215
sI212
S'E'
p216
sI213
S'B'
p217
sI214
S'B'
p218
sI215
S'B'
p219
sI216
S'B'
p220
sI217
S'D'
p221
sI218
S'A'
p222
sI219
S'A'
p223
sI220
S'A'
p224
sI221
S'D'
p225
sI222
S'B'
p226
sI223
S'B'
p227
sI224
S'B'
p228
sI225
S'B'
p229
sI226
S'B'
p230
sI227
S'E'
p231
sI228
S'C'
p232
sI229
S'C'
p233
sI230
S'C'
p234
sI231
S'C'
p235
sI232
S'E'
p236
sI233
S'B'
p237
sI234
S'B'
p238
sI235
S'B'
p239
sI236
S'B'
p240
sI237
S'D'
p241
sI238
S'A'
p242
sI239
S'A'
p243
sI240
S'A'
p244
sI241
S'D'
p245
sI242
S'B'
p246
sI243
S'B'
p247
sI244
S'B'
p248
sI245
S'B'
p249
sI246
S'B'
p250
sI247
S'E'
p251
sI248
S'E'
p252
sI249
S'C'
p253
sI250
S'C'
p254
sI251
S'E'
p255
sI252
S'B'
p256
sI253
S'B'
p257
sI254
S'B'
p258
sI255
S'B'
p259
sI256
S'B'
p260
sI257
S'D'
p261
sI258
S'A'
p262
sI259
S'A'
p263
sI260
S'A'
p264
sI261
S'D'
p265
sI262
S'B'
p266
sI263
S'B'
p267
sI264
S'B'
p268
sI265
S'B'
p269
sI266
S'B'
p270
sI267
S'E'
p271
sI268
S'E'
p272
sI269
S'C'
p273
sI270
S'E'
p274
sI271
S'E'
p275
sI272
S'B'
p276
sI273
S'B'
p277
sI274
S'B'
p278
sI275
S'B'
p279
sI276
S'B'
p280
sI277
S'D'
p281
sI278
S'A'
p282
sI279
S'A'
p283
sI280
S'A'
p284
sI281
S'D'
p285
sI282
S'D'
p286
sI283
S'B'
p287
sI284
S'B'
p288
sI285
S'B'
p289
sI286
S'B'
p290
sI287
S'B'
p291
sI288
S'B'
p292
sI289
S'E'
p293
sI290
S'B'
p294
sI291
S'B'
p295
sI292
S'B'
p296
sI293
S'B'
p297
sI294
S'B'
p298
sI295
S'B'
p299
sI296
S'B'
p300
sI297
S'D'
p301
sI298
S'A'
p302
sI299
S'A'
p303
sI300
S'A'
p304
sI301
S'D'
p305
sI302
S'D'
p306
sI303
S'B'
p307
sI304
S'B'
p308
sI305
S'B'
p309
sI306
S'B'
p310
sI307
S'B'
p311
sI308
S'B'
p312
sI309
S'B'
p313
sI310
S'B'
p314
sI311
S'B'
p315
sI312
S'B'
p316
sI313
S'B'
p317
sI314
S'B'
p318
sI315
S'B'
p319
sI316
S'B'
p320
sI317
S'D'
p321
sI318
S'A'
p322
sI319
S'A'
p323
sI320
S'A'
p324
sI321
S'A'
p325
sI322
S'D'
p326
sI323
S'B'
p327
sI324
S'B'
p328
sI325
S'B'
p329
sI326
S'B'
p330
sI327
S'B'
p331
sI328
S'B'
p332
sI329
S'B'
p333
sI330
S'B'
p334
sI331
S'B'
p335
sI332
S'B'
p336
sI333
S'B'
p337
sI334
S'B'
p338
sI335
S'B'
p339
sI336
S'D'
p340
sI337
S'D'
p341
sI338
S'A'
p342
sI339
S'A'
p343
sI340
S'A'
p344
sI341
S'A'
p345
sI342
S'D'
p346
sI343
S'B'
p347
sI344
S'B'
p348
sI345
S'B'
p349
sI346
S'B'
p350
sI347
S'B'
p351
sI348
S'B'
p352
sI349
S'B'
p353
sI350
S'B'
p354
sI351
S'B'
p355
sI352
S'B'
p356
sI353
S'B'
p357
sI354
S'B'
p358
sI355
S'B'
p359
sI356
S'D'
p360
sI357
S'D'
p361
sI358
S'A'
p362
sI359
S'A'
p363
sI360
S'A'
p364
sI361
S'A'
p365
sI362
S'A'
p366
sI363
S'D'
p367
sI364
S'B'
p368
sI365
S'B'
p369
sI366
S'B'
p370
sI367
S'B'
p371
sI368
S'B'
p372
sI369
S'B'
p373
sI370
S'B'
p374
sI371
S'B'
p375
sI372
S'B'
p376
sI373
S'B'
p377
sI374
S'B'
p378
sI375
S'B'
p379
sI376
S'D'
p380
sI377
S'A'
p381
sI378
S'A'
p382
sI379
S'A'
p383
sI380
S'A'
p384
sI381
S'A'
p385
sI382
S'A'
p386
sI383
S'D'
p387
sI384
S'D'
p388
sI385
S'B'
p389
sI386
S'B'
p390
sI387
S'B'
p391
sI388
S'B'
p392
sI389
S'B'
p393
sI390
S'B'
p394
sI391
S'B'
p395
sI392
S'B'
p396
sI393
S'B'
p397
sI394
S'B'
p398
sI395
S'D'
p399
sI396
S'A'
p400
sI397
S'A'
p401
sI398
S'A'
p402
sI399
S'A'
p403
sI400
S'A'
p404
sI401
S'A'
p405
sI402
S'A'
p406
sI403
S'A'
p407
sI404
S'D'
p408
sI405
S'B'
p409
sI406
S'B'
p410
sI407
S'B'
p411
sI408
S'B'
p412
sI409
S'B'
p413
sI410
S'B'
p414
sI411
S'B'
p415
sI412
S'B'
p416
sI413
S'B'
p417
sI414
S'D'
p418
sI415
S'D'
p419
sI416
S'A'
p420
sI417
S'A'
p421
sI418
S'A'
p422
sI419
S'A'
p423
sI420
S'A'
p424
sI421
S'A'
p425
sI422
S'A'
p426
sI423
S'A'
p427
sI424
S'A'
p428
sI425
S'D'
p429
sI426
S'B'
p430
sI427
S'B'
p431
sI428
S'B'
p432
sI429
S'B'
p433
sI430
S'B'
p434
sI431
S'B'
p435
sI432
S'B'
p436
sI433
S'D'
p437
sI434
S'D'
p438
sI435
S'A'
p439
sI436
S'A'
p440
sI437
S'A'
p441
sI438
S'A'
p442
sI439
S'A'
p443
sI440
S'A'
p444
sI441
S'A'
p445
sI442
S'A'
p446
sI443
S'A'
p447
sI444
S'A'
p448
sI445
S'D'
p449
sI446
S'B'
p450
sI447
S'B'
p451
sI448
S'B'
p452
sI449
S'B'
p453
sI450
S'B'
p454
sI451
S'B'
p455
sI452
S'B'
p456
sI453
S'D'
p457
sI454
S'D'
p458
sI455
S'A'
p459
sI456
S'A'
p460
sI457
S'A'
p461
sI458
S'A'
p462
sI459
S'A'
p463
sI460
S'A'
p464
sI461
S'A'
p465
sI462
S'A'
p466
sI463
S'A'
p467
sI464
S'A'
p468
sI465
S'D'
p469
sI466
S'B'
p470
sI467
S'B'
p471
sI468
S'B'
p472
sI469
S'B'
p473
sI470
S'B'
p474
sI471
S'B'
p475
sI472
S'B'
p476
sI473
S'B'
p477
sI474
S'D'
p478
sI475
S'A'
p479
sI476
S'A'
p480
sI477
S'A'
p481
sI478
S'A'
p482
sI479
S'A'
p483
sI480
S'A'
p484
sI481
S'A'
p485
sI482
S'A'
p486
sI483
S'A'
p487
sI484
S'A'
p488
sI485
S'D'
p489
sI486
S'B'
p490
sI487
S'B'
p491
sI488
S'B'
p492
sI489
S'B'
p493
sI490
S'B'
p494
sI491
S'B'
p495
sI492
S'B'
p496
sI493
S'B'
p497
sI494
S'D'
p498
sI495
S'A'
p499
sI496
S'A'
p500
sI497
S'A'
p501
sI498
S'A'
p502
sI499
S'A'
p503
sI500
S'A'
p504
sI501
S'A'
p505
sI502
S'A'
p506
sI503
S'A'
p507
sI504
S'A'
p508
sI505
S'D'
p509
sI506
S'B'
p510
sI507
S'B'
p511
sI508
S'B'
p512
sI509
S'B'
p513
sI510
S'B'
p514
sI511
S'B'
p515
sI512
S'B'
p516
sI513
S'B'
p517
sI514
S'D'
p518
sI515
S'A'
p519
sI516
S'A'
p520
sI517
S'A'
p521
sI518
S'A'
p522
sI519
S'A'
p523
sI520
S'A'
p524
sI521
S'A'
p525
sI522
S'A'
p526
sI523
S'A'
p527
sI524
S'A'
p528
sI525
S'D'
p529
sI526
S'B'
p530
sI527
S'B'
p531
sI528
S'B'
p532
sI529
S'B'
p533
sI530
S'B'
p534
sI531
S'B'
p535
sI532
S'B'
p536
sI533
S'D'
p537
sI534
S'D'
p538
sI535
S'A'
p539
sI536
S'A'
p540
sI537
S'A'
p541
sI538
S'A'
p542
sI539
S'A'
p543
sI540
S'A'
p544
sI541
S'A'
p545
sI542
S'A'
p546
sI543
S'A'
p547
sI544
S'A'
p548
sI545
S'D'
p549
sI546
S'B'
p550
sI547
S'B'
p551
sI548
S'B'
p552
sI549
S'B'
p553
sI550
S'B'
p554
sI551
S'B'
p555
sI552
S'B'
p556
sI553
S'D'
p557
sI554
S'A'
p558
sI555
S'A'
p559
sI556
S'A'
p560
sI557
S'A'
p561
sI558
S'A'
p562
sI559
S'A'
p563
sI560
S'A'
p564
sI561
S'A'
p565
sI562
S'A'
p566
sI563
S'A'
p567
sI564
S'A'
p568
sI565
S'D'
p569
sI566
S'D'
p570
sI567
S'B'
p571
sI568
S'B'
p572
sI569
S'B'
p573
sI570
S'B'
p574
sI571
S'B'
p575
sI572
S'B'
p576
sI573
S'D'
p577
sI574
S'A'
p578
sI575
S'A'
p579
sI576
S'A'
p580
sI577
S'A'
p581
sI578
S'A'
p582
sI579
S'A'
p583
sI580
S'A'
p584
sI581
S'A'
p585
sI582
S'A'
p586
sI583
S'A'
p587
sI584
S'A'
p588
sI585
S'A'
p589
sI586
S'D'
p590
sI587
S'B'
p591
sI588
S'B'
p592
sI589
S'B'
p593
sI590
S'B'
p594
sI591
S'B'
p595
sI592
S'D'
p596
sI593
S'D'
p597
sI594
S'A'
p598
sI595
S'A'
p599
sI596
S'A'
p600
sI597
S'A'
p601
sI598
S'A'
p602
sI599
S'A'
p603
sI600
S'A'
p604
sI601
S'A'
p605
sI602
S'A'
p606
sI603
S'A'
p607
sI604
S'A'
p608
sI605
S'A'
p609
sI606
S'D'
p610
sI607
S'B'
p611
sI608
S'B'
p612
sI609
S'B'
p613
sI610
S'B'
p614
sI611
S'B'
p615
sI612
S'D'
p616
sI613
S'D'
p617
sI614
S'A'
p618
sI615
S'A'
p619
sI616
S'A'
p620
sI617
S'A'
p621
sI618
S'A'
p622
sI619
S'A'
p623
sI620
S'A'
p624
sI621
S'A'
p625
sI622
S'A'
p626
sI623
S'A'
p627
sI624
S'A'
p628
sI625
S'A'
p629
sI626
S'A'
p630
sI627
S'D'
p631
sI628
S'D'
p632
sI629
S'F'
p633
sI630
S'D'
p634
sI631
S'D'
p635
sI632
S'D'
p636
sI633
S'A'
p637
sI634
S'A'
p638
sI635
S'A'
p639
sI636
S'A'
p640
sI637
S'A'
p641
sI638
S'A'
p642
sI639
S'A'
p643
sI640
S'A'
p644
sI641
S'A'
p645
sI642
S'A'
p646
sI643
S'A'
p647
sI644
S'A'
p648
sI645
S'A'
p649
sI646
S'A'
p650
sI647
S'D'
p651
sI648
S'D'
p652
sI649
S'D'
p653
sI650
S'D'
p654
sI651
S'D'
p655
sI652
S'A'
p656
sI653
S'A'
p657
sI654
S'A'
p658
sI655
S'A'
p659
sI656
S'A'
p660
sI657
S'A'
p661
sI658
S'A'
p662
sI659
S'A'
p663
sI660
S'A'
p664
sI661
S'A'
p665
sI662
S'A'
p666
sI663
S'A'
p667
sI664
S'A'
p668
sI665
S'A'
p669
sI666
S'A'
p670
sI667
S'A'
p671
sI668
S'A'
p672
sI669
S'A'
p673
sI670
S'A'
p674
sI671
S'A'
p675
sI672
S'A'
p676
sI673
S'A'
p677
sI674
S'A'
p678
sI675
S'A'
p679
sI676
S'A'
p680
sI677
S'A'
p681
sI678
S'A'
p682
sI679
S'A'
p683
sI681
S'A'
p684
sI683
S'A'
p685
sI685
S'A'
p686
sI687
S'A'
p687
sI689
S'A'
p688
sI691
S'A'
p689
sI693
S'A'
p690
sI695
S'A'
p691
sI697
S'A'
p692
sI699
S'A'
p693
sI772
S'A'
p694
sI774
S'A'
p695
sI776
S'A'
p696
sI778
S'A'
p697
sI780
S'A'
p698
sI782
S'A'
p699
sI784
S'A'
p700
sI786
S'A'
p701
sI788
S'A'
p702
sI790
S'A'
p703
stp704
Rp705
(dp706
S'scale'
p707
I0
sS'description'
p708
S'cell_type'
p709
sb.