ccopy_reg
_reconstructor
p0
(copenalea.stse.io.walled_tissue.native_representation
IOTissueProperty
p1
c__builtin__
dict
p2
(dp3
I23
F0.0
sI24
F0.0
sI25
F0.0
sI26
F0.0
sI27
F0.0
sI28
F0.0
sI29
F0.0
sI30
F0.0
sI31
F0.0
sI32
F0.0
sI33
F0.0
sI34
F0.0
sI35
F0.0
sI36
F0.0
sI37
F0.0
sI38
F0.0
sI39
F0.0
sI40
F0.0
sI41
F0.0
sI42
F0.0
sI45
F0.0
sI46
F0.0
sI47
F0.0
sI48
F0.0
sI49
F0.0
sI50
F0.0
sI51
F0.0
sI52
F0.0
sI53
F0.0
sI54
F0.0
sI55
F0.0
sI56
F0.0
sI57
F0.0
sI58
F0.0
sI59
F0.0
sI60
F0.0
sI61
F0.0
sI62
F0.0
sI63
F0.0
sI64
F0.0
sI67
F0.0
sI68
F0.0
sI69
F0.0
sI70
F0.0
sI71
F0.0
sI72
F0.0
sI73
F0.0
sI74
F0.0
sI75
F0.0
sI76
F0.0
sI77
F0.0
sI78
F0.0
sI79
F0.0
sI80
F0.0
sI81
F0.0
sI82
F0.0
sI83
F0.0
sI84
F0.0
sI85
F0.0
sI86
F0.0
sI89
F0.0
sI90
F0.0
sI91
F0.0
sI92
F0.0
sI93
F0.0
sI94
F0.0
sI95
F0.0
sI96
F0.0
sI97
F0.0
sI98
F0.0
sI99
F0.0
sI100
F0.0
sI101
F0.0
sI102
F0.0
sI103
F0.0
sI104
F0.0
sI105
F0.0
sI106
F0.0
sI107
F0.0
sI108
F0.0
sI111
F0.0
sI112
F0.0
sI113
F0.0
sI114
F0.0
sI115
F0.0
sI116
F0.0
sI117
F0.0
sI118
F0.0
sI119
F0.29591836734693877
sI120
F0.0
sI121
F0.42857142857142855
sI122
F0.0
sI123
F0.0
sI124
F0.0
sI125
F0.0
sI126
F0.0
sI127
F0.0
sI128
F0.0
sI129
F0.0
sI130
F0.0
sI133
F0.0
sI134
F0.0
sI135
F0.0
sI136
F0.0
sI137
F0.0
sI138
F0.0
sI139
F0.24489795918367346
sI140
F0.40306122448979592
sI141
F2.1734693877551021
sI142
F1.5306122448979591
sI143
F2.4489795918367347
sI144
F0.79591836734693877
sI145
F0.73469387755102045
sI146
F0.0
sI147
F0.0
sI148
F0.0
sI149
F0.0
sI150
F0.0
sI151
F0.0
sI152
F0.0
sI155
F0.0
sI156
F0.0
sI157
F0.0
sI158
F0.0
sI159
F0.0
sI160
F0.020408163265306121
sI161
F1.903061224489796
sI162
F2.2857142857142856
sI163
F4.454081632653061
sI164
F3.7244897959183674
sI165
F4.8520408163265305
sI166
F2.8265306122448979
sI167
F2.704081632653061
sI168
F0.34183673469387754
sI169
F0.030612244897959183
sI170
F0.0
sI171
F0.0
sI172
F0.0
sI173
F0.0
sI174
F0.0
sI177
F0.0
sI178
F0.0
sI179
F0.0
sI180
F0.0
sI181
F0.18367346938775511
sI182
F1.0153061224489797
sI183
F4.0306122448979593
sI184
F4.5714285714285712
sI185
F18.397959183673468
sI186
F11.698979591836734
sI187
F34.015306122448976
sI188
F5.3265306122448983
sI189
F5.0969387755102042
sI190
F2.056122448979592
sI191
F0.91836734693877553
sI192
F0.0
sI193
F0.0
sI194
F0.0
sI195
F0.0
sI196
F0.0
sI199
F0.0
sI200
F0.0
sI201
F0.0
sI202
F0.0
sI203
F1.3979591836734695
sI204
F2.9030612244897958
sI205
F6.5969387755102042
sI206
F7.408163265306122
sI207
F62.107142857142854
sI208
F64.0
sI209
F64.0
sI210
F23.229591836734695
sI211
F7.9642857142857144
sI212
F4.158163265306122
sI213
F2.75
sI214
F0.10714285714285714
sI215
F0.0
sI216
F0.0
sI217
F0.0
sI218
F0.0
sI221
F0.0
sI222
F0.0
sI223
F0.0
sI224
F0.17857142857142858
sI225
F3.239795918367347
sI226
F5.1530612244897958
sI227
F9.7755102040816322
sI228
F29.908163265306122
sI229
F64.0
sI230
F64.0
sI231
F64.0
sI232
F56.923469387755105
sI233
F16.362244897959183
sI234
F6.7295918367346941
sI235
F4.908163265306122
sI236
F1.0612244897959184
sI237
F0.056122448979591837
sI238
F0.0
sI239
F0.0
sI240
F0.0
sI243
F0.0
sI244
F0.0
sI245
F0.040816326530612242
sI246
F1.1836734693877551
sI247
F5.4132653061224492
sI248
F7.8775510204081636
sI249
F13.346938775510203
sI250
F45.933673469387756
sI251
F64.0
sI252
F64.0
sI253
F64.0
sI254
F64.0
sI255
F25.193877551020407
sI256
F9.8265306122448983
sI257
F7.5051020408163263
sI258
F2.7551020408163267
sI259
F0.68367346938775508
sI260
F0.0
sI261
F0.0
sI262
F0.0
sI265
F0.0
sI266
F0.0
sI267
F0.5714285714285714
sI268
F2.8316326530612246
sI269
F8.0
sI270
F11.020408163265307
sI271
F17.306122448979593
sI272
F48.25
sI273
F64.0
sI274
F64.0
sI275
F64.0
sI276
F64.0
sI277
F24.698979591836736
sI278
F13.341836734693878
sI279
F10.510204081632653
sI280
F4.7806122448979593
sI281
F2.0306122448979593
sI282
F0.0
sI283
F0.0
sI284
F0.0
sI287
F0.0
sI288
F0.0
sI289
F1.7346938775510203
sI290
F4.7551020408163263
sI291
F10.948979591836734
sI292
F14.556122448979592
sI293
F21.780612244897959
sI294
F40.377551020408163
sI295
F63.918367346938773
sI296
F64.0
sI297
F64.0
sI298
F60.576530612244895
sI299
F24.382653061224488
sI300
F17.193877551020407
sI301
F13.846938775510203
sI302
F7.1530612244897958
sI303
F3.7908163265306123
sI304
F0.17857142857142858
sI305
F0.0
sI306
F0.0
sI309
F0.0
sI310
F0.071428571428571425
sI311
F3.3214285714285716
sI312
F6.9948979591836737
sI313
F14.183673469387756
sI314
F18.377551020408163
sI315
F26.647959183673468
sI316
F29.571428571428573
sI317
F44.617346938775512
sI318
F64.0
sI319
F53.795918367346935
sI320
F42.964285714285715
sI321
F29.469387755102041
sI322
F21.510204081632654
sI323
F17.48469387755102
sI324
F9.841836734693878
sI325
F5.7346938775510203
sI326
F0.92346938775510201
sI327
F0.0
sI328
F0.0
sI331
F0.0
sI332
F0.19897959183673469
sI333
F5.0357142857142856
sI334
F9.5204081632653068
sI335
F17.663265306122447
sI336
F22.683673469387756
sI337
F31.719387755102041
sI338
F34.637755102040813
sI339
F41.918367346938773
sI340
F45.923469387755105
sI341
F43.301020408163268
sI342
F37.0
sI343
F35.076530612244895
sI344
F26.244897959183675
sI345
F21.510204081632654
sI346
F12.846938775510203
sI347
F7.9948979591836737
sI348
F1.8265306122448979
sI349
F0.0
sI350
F0.0
sI353
F0.0
sI354
F0.035714285714285712
sI355
F6.091836734693878
sI356
F12.316326530612244
sI357
F21.48469387755102
sI358
F27.25
sI359
F37.438775510204081
sI360
F40.882653061224488
sI361
F48.897959183673471
sI362
F47.448979591836732
sI363
F50.357142857142854
sI364
F43.581632653061227
sI365
F41.20918367346939
sI366
F31.107142857142858
sI367
F25.836734693877553
sI368
F16.040816326530614
sI369
F10.469387755102041
sI370
F2.2346938775510203
sI371
F0.0
sI372
F0.0
sI375
F0.0
sI376
F0.0
sI377
F5.3163265306122449
sI378
F15.260204081632653
sI379
F25.525510204081634
sI380
F31.98469387755102
sI381
F43.403061224489797
sI382
F47.479591836734691
sI383
F56.617346938775512
sI384
F55.081632653061227
sI385
F58.510204081632651
sI386
F50.454081632653065
sI387
F47.607142857142854
sI388
F36.545918367346935
sI389
F30.244897959183675
sI390
F19.5
sI391
F12.709183673469388
sI392
F1.4489795918367347
sI393
F0.0
sI394
F0.0
sI397
F0.0
sI398
F0.0
sI399
F1.7755102040816326
sI400
F18.377551020408163
sI401
F29.647959183673468
sI402
F37.173469387755105
sI403
F49.673469387755105
sI404
F54.637755102040813
sI405
F65.520408163265301
sI406
F64.061224489795919
sI407
F67.586734693877546
sI408
F58.346938775510203
sI409
F54.54081632653061
sI410
F42.280612244897959
sI411
F34.994897959183675
sI412
F23.204081632653061
sI413
F10.530612244897959
sI414
F0.0
sI415
F0.0
sI416
F0.0
sI419
F0.0
sI420
F0.0
sI421
F0.0
sI422
F18.224489795918366
sI423
F33.979591836734691
sI424
F42.561224489795919
sI425
F56.586734693877553
sI426
F62.928571428571431
sI427
F73.882653061224488
sI428
F72.607142857142861
sI429
F76.158163265306129
sI430
F67.076530612244895
sI431
F62.510204081632651
sI432
F48.132653061224488
sI433
F40.005102040816325
sI434
F26.98469387755102
sI435
F3.056122448979592
sI436
F0.0
sI437
F0.0
sI438
F0.0
sI441
F0.0
sI442
F0.0
sI443
F0.0
sI444
F7.2704081632653059
sI445
F32.658163265306122
sI446
F48.091836734693878
sI447
F64.117346938775512
sI448
F70.948979591836732
sI449
F82.994897959183675
sI450
F81.943877551020407
sI451
F85.489795918367349
sI452
F75.275510204081627
sI453
F70.265306122448976
sI454
F54.515306122448976
sI455
F45.045918367346935
sI456
F23.933673469387756
sI457
F0.0
sI458
F0.0
sI459
F0.0
sI460
F0.0
sI463
F0.0
sI464
F0.0
sI465
F0.0
sI466
F0.0
sI467
F6.6326530612244898
sI468
F53.979591836734691
sI469
F71.41836734693878
sI470
F79.214285714285708
sI471
F92.423469387755105
sI472
F91.576530612244895
sI473
F95.306122448979593
sI474
F84.178571428571431
sI475
F78.056122448979593
sI476
F61.515306122448976
sI477
F28.076530612244898
sI478
F4.7857142857142856
sI479
F0.0
sI480
F0.0
sI481
F0.0
sI482
F0.0
sI485
F0.0
sI486
F0.0
sI487
F0.0
sI488
F0.0
sI489
F0.0
sI490
F38.974489795918366
sI491
F78.647959183673464
sI492
F87.801020408163268
sI493
F102.22448979591837
sI494
F101.75510204081633
sI495
F105.60204081632654
sI496
F93.382653061224488
sI497
F86.214285714285708
sI498
F67.142857142857139
sI499
F5.2397959183673466
sI500
F0.0
sI501
F0.0
sI502
F0.0
sI503
F0.0
sI504
F0.0
sI507
F0.0
sI508
F0.0
sI509
F0.0
sI510
F0.0
sI511
F0.0
sI512
F42.224489795918366
sI513
F86.102040816326536
sI514
F96.576530612244895
sI515
F112.48469387755102
sI516
F112.43877551020408
sI517
F116.14795918367346
sI518
F102.83673469387755
sI519
F94.357142857142861
sI520
F75.010204081632651
sI521
F12.596938775510203
sI522
F0.0
sI523
F0.0
sI524
F0.0
sI525
F0.0
sI526
F0.0
sI529
F0.0
sI530
F0.0
sI531
F0.0
sI532
F0.0
sI533
F0.0
sI534
F50.989795918367349
sI535
F93.392857142857139
sI536
F105.62244897959184
sI537
F122.81632653061224
sI538
F123.42857142857143
sI539
F127.16326530612245
sI540
F112.63775510204081
sI541
F102.61224489795919
sI542
F81.65306122448979
sI543
F17.73469387755102
sI544
F0.0
sI545
F0.0
sI546
F0.0
sI547
F0.0
sI548
F0.0
sI551
F0.0
sI552
F0.0
sI553
F0.0
sI554
F0.0
sI555
F0.0
sI556
F58.642857142857146
sI557
F100.64285714285714
sI558
F114.60204081632654
sI559
F133.80102040816325
sI560
F135.1887755102041
sI561
F138.9795918367347
sI562
F122.42346938775511
sI563
F110.76530612244898
sI564
F88.209183673469383
sI565
F18.448979591836736
sI566
F0.0
sI567
F0.0
sI568
F0.0
sI569
F0.0
sI570
F0.0
sI573
F0.0
sI574
F0.0
sI575
F0.0
sI576
F0.0
sI577
F0.0
sI578
F58.423469387755105
sI579
F107.59693877551021
sI580
F123.50510204081633
sI581
F145.04591836734693
sI582
F147.49489795918367
sI583
F151.03061224489795
sI584
F132.65306122448979
sI585
F118.65306122448979
sI586
F94.484693877551024
sI587
F13.698979591836734
sI588
F0.0
sI589
F0.0
sI590
F0.0
sI591
F0.0
sI592
F0.0
sI595
F0.0
sI596
F0.0
sI597
F0.0
sI598
F0.0
sI599
F0.0
sI600
F52.663265306122447
sI601
F114.13265306122449
sI602
F132.53061224489795
sI603
F156.41836734693877
sI604
F160.32142857142858
sI605
F163.48469387755102
sI606
F142.92857142857142
sI607
F126.31632653061224
sI608
F100.27551020408163
sI609
F3.9642857142857144
sI610
F0.0
sI611
F0.0
sI612
F0.0
sI613
F0.0
sI614
F0.0
sI617
F0.0
sI618
F0.0
sI619
F0.0
sI620
F0.0
sI621
F0.0
sI622
F38.683673469387756
sI623
F120.11734693877551
sI624
F141.14795918367346
sI625
F167.66836734693877
sI626
F173.55102040816325
sI627
F176.16836734693877
sI628
F152.97448979591837
sI629
F133.51020408163265
sI630
F96.790816326530617
sI631
F0.0
sI632
F0.0
sI633
F0.0
sI634
F0.0
sI635
F0.0
sI636
F0.0
sI639
F0.0
sI640
F0.0
sI641
F0.0
sI642
F0.0
sI643
F0.0
sI644
F15.112244897959183
sI645
F116.75
sI646
F149.25510204081633
sI647
F178.84693877551021
sI648
F187.68367346938774
sI649
F189.62755102040816
sI650
F162.66326530612244
sI651
F139.94897959183675
sI652
F75.525510204081627
sI653
F0.0
sI654
F0.0
sI655
F0.0
sI656
F0.0
sI657
F0.0
sI658
F0.0
sI661
F0.0
sI662
F0.0
sI663
F0.0
sI664
F0.0
sI665
F0.0
sI666
F0.0
sI667
F74.183673469387756
sI668
F156.35714285714286
sI669
F189.38775510204081
sI670
F202.22448979591837
sI671
F202.57142857142858
sI672
F171.46428571428572
sI673
F142.37244897959184
sI674
F37.428571428571431
sI675
F0.0
sI676
F0.0
sI677
F0.0
sI678
F0.0
sI679
F0.0
sI680
F0.0
sI683
F0.0
sI684
F0.0
sI685
F0.0
sI686
F0.0
sI687
F0.0
sI688
F0.0
sI689
F11.071428571428571
sI690
F162.21428571428572
sI691
F198.17346938775509
sI692
F216.4387755102041
sI693
F214.18367346938774
sI694
F179.18367346938774
sI695
F77.642857142857139
sI696
F0.0
sI697
F0.0
sI698
F0.0
sI699
F0.0
sI700
F0.0
sI701
F0.0
sI702
F0.0
sI705
F0.0
sI706
F0.0
sI707
F0.0
sI708
F0.0
sI709
F0.0
sI710
F0.0
sI711
F0.0
sI712
F98.984693877551024
sI713
F181.87755102040816
sI714
F230.13775510204081
sI715
F223.24489795918367
sI716
F176.30612244897958
sI717
F0.056122448979591837
sI718
F0.0
sI719
F0.0
sI720
F0.0
sI721
F0.0
sI722
F0.0
sI723
F0.0
sI724
F0.0
sI727
F0.0
sI728
F0.0
sI729
F0.0
sI730
F0.0
sI731
F0.0
sI732
F0.0
sI733
F0.0
sI734
F0.030612244897959183
sI735
F3.6530612244897958
sI736
F183.99489795918367
sI737
F29.163265306122447
sI738
F29.923469387755102
sI739
F0.0
sI740
F0.0
sI741
F0.0
sI742
F0.0
sI743
F0.0
sI744
F0.0
sI745
F0.0
sI746
F0.0
sI749
F0.0
sI750
F0.0
sI751
F0.0
sI752
F0.0
sI753
F0.0
sI754
F0.0
sI755
F0.0
sI756
F0.0
sI757
F0.0
sI758
F0.0
sI759
F0.0
sI760
F0.0
sI761
F0.0
sI762
F0.0
sI763
F0.0
sI764
F0.0
sI765
F0.0
sI766
F0.0
sI767
F0.0
sI768
F0.0
stp4
Rp5
(dp6
S'scale'
p7
I0
sS'description'
p8
S'custom_cell_property1'
p9
sb.