ccopy_reg
_reconstructor
p0
(copenalea.stse.io.walled_tissue.native_representation
IOTissueProperty
p1
c__builtin__
dict
p2
(dp3
I0
F0.0
sI1
F0.0
sI2
F0.0
sI3
F0.0
sI4
F0.0
sI5
F0.0
sI6
F0.0
sI7
F0.0
sI8
F0.0
sI9
F0.0
sI10
F0.0
sI11
F0.0
sI12
F0.0
sI13
F0.0
sI14
F0.0
sI15
F0.0
sI16
F0.0
sI17
F0.0
sI18
F0.0
sI19
F0.0
sI20
F0.0
sI21
F0.0
sI22
F0.0
sI23
F0.0
sI24
F0.0
sI25
F0.0
sI26
F0.0
sI27
F0.0
sI28
F2.0969387755102042
sI29
F0.091836734693877556
sI30
F3.3826530612244898
sI31
F0.0
sI32
F0.0
sI33
F0.0
sI34
F0.0
sI35
F0.0
sI36
F0.0
sI37
F0.0
sI38
F0.0
sI39
F0.0
sI40
F0.0
sI41
F0.0
sI42
F0.0
sI43
F0.0
sI44
F0.0
sI45
F0.0
sI46
F2.7091836734693877
sI47
F3.6887755102040818
sI48
F22.744897959183675
sI49
F14.586734693877551
sI50
F25.683673469387756
sI51
F7.3010204081632653
sI52
F7.6989795918367347
sI53
F0.0
sI54
F0.0
sI55
F0.0
sI56
F0.0
sI57
F0.0
sI58
F0.0
sI59
F0.0
sI60
F0.0
sI61
F0.0
sI62
F0.0
sI63
F0.0
sI64
F0.0
sI65
F0.65816326530612246
sI66
F22.224489795918366
sI67
F25.331632653061224
sI68
F47.372448979591837
sI69
F39.321428571428569
sI70
F50.357142857142854
sI71
F31.147959183673468
sI72
F30.994897959183675
sI73
F4.454081632653061
sI74
F0.90306122448979587
sI75
F0.0
sI76
F0.0
sI77
F0.0
sI78
F0.0
sI79
F0.0
sI80
F0.0
sI81
F0.0
sI82
F0.0
sI83
F0.0
sI84
F4.0102040816326534
sI85
F13.744897959183673
sI86
F45.994897959183675
sI87
F49.622448979591837
sI88
F72.015306122448976
sI89
F64.102040816326536
sI90
F75.091836734693871
sI91
F55.653061224489797
sI92
F54.964285714285715
sI93
F25.056122448979593
sI94
F13.836734693877551
sI95
F0.0
sI96
F0.0
sI97
F0.0
sI98
F0.0
sI99
F0.0
sI100
F0.0
sI101
F0.0
sI102
F0.0
sI103
F0.015306122448979591
sI104
F21.627551020408163
sI105
F36.596938775510203
sI106
F69.658163265306129
sI107
F73.852040816326536
sI108
F96.58163265306122
sI109
F88.852040816326536
sI110
F99.811224489795919
sI111
F80.112244897959187
sI112
F79.025510204081627
sI113
F48.551020408163268
sI114
F36.244897959183675
sI115
F3.0765306122448979
sI116
F0.0
sI117
F0.0
sI118
F0.0
sI119
F0.0
sI120
F0.0
sI121
F0.0
sI122
F0.0
sI123
F5.5714285714285712
sI124
F43.637755102040813
sI125
F59.510204081632651
sI126
F93.198979591836732
sI127
F98.051020408163268
sI128
F121.11734693877551
sI129
F113.60204081632654
sI130
F124.51530612244898
sI131
F104.51020408163265
sI132
F102.91836734693878
sI133
F71.739795918367349
sI134
F58.744897959183675
sI135
F18.612244897959183
sI136
F3.1224489795918369
sI137
F0.0
sI138
F0.0
sI139
F0.0
sI140
F0.0
sI141
F0.0
sI142
F3.6275510204081631
sI143
F22.377551020408163
sI144
F65.525510204081627
sI145
F82.301020408163268
sI146
F116.81632653061224
sI147
F122.20408163265306
sI148
F193.0408163265306
sI149
F161.5408163265306
sI150
F259.36224489795916
sI151
F128.92346938775509
sI152
F126.79591836734694
sI153
F95.035714285714292
sI154
F81.030612244897952
sI155
F39.994897959183675
sI156
F16.530612244897959
sI157
F0.0
sI158
F0.0
sI159
F0.0
sI160
F0.0
sI161
F0.0
sI162
F16.5
sI163
F43.193877551020407
sI164
F87.122448979591837
sI165
F104.95408163265306
sI166
F140.09693877551021
sI167
F146.4795918367347
sI168
F376.94387755102042
sI169
F384.0
sI170
F384.0
sI171
F215.4795918367347
sI172
F150.55102040816325
sI173
F118.10204081632654
sI174
F103.17857142857143
sI175
F61.270408163265309
sI176
F36.321428571428569
sI177
F1.2244897959183674
sI178
F0.0
sI179
F0.0
sI180
F0.0
sI181
F0.39795918367346939
sI182
F35.341836734693878
sI183
F63.704081632653065
sI184
F108.56632653061224
sI185
F127.43877551020408
sI186
F163.5
sI187
F247.28571428571428
sI188
F384.0
sI189
F384.0
sI190
F384.0
sI191
F356.41836734693879
sI192
F194.51020408163265
sI193
F141.07653061224491
sI194
F125.11224489795919
sI195
F82.377551020408163
sI196
F56.234693877551024
sI197
F9.1530612244897966
sI198
F0.0
sI199
F0.0
sI200
F0.0
sI201
F4.0561224489795915
sI202
F54.153061224489797
sI203
F84.0
sI204
F129.73469387755102
sI205
F149.7704081632653
sI206
F186.59693877551021
sI207
F314.61734693877548
sI208
F384.0
sI209
F384.0
sI210
F384.0
sI211
F384.0
sI212
F236.06632653061226
sI213
F163.86734693877551
sI214
F146.92346938775509
sI215
F103.19387755102041
sI216
F75.765306122448976
sI217
F22.760204081632654
sI218
F0.0
sI219
F0.0
sI220
F0.0
sI221
F10.392857142857142
sI222
F72.948979591836732
sI223
F103.89795918367346
sI224
F150.6887755102041
sI225
F171.82653061224491
sI226
F209.67857142857142
sI227
F326.29591836734693
sI228
F384.0
sI229
F384.0
sI230
F384.0
sI231
F384.0
sI232
F240.59693877551021
sI233
F186.56632653061226
sI234
F168.41326530612244
sI235
F123.71938775510205
sI236
F94.989795918367349
sI237
F38.938775510204081
sI238
F0.0
sI239
F0.0
sI240
F0.0
sI241
F16.576530612244898
sI242
F91.209183673469383
sI243
F123.50510204081633
sI244
F171.2295918367347
sI245
F193.80612244897958
sI246
F232.54591836734693
sI247
F300.87244897959181
sI248
F383.78571428571428
sI249
F384.0
sI250
F384.0
sI251
F372.41326530612247
sI252
F244.63775510204081
sI253
F209.05102040816325
sI254
F189.59693877551021
sI255
F143.92346938775509
sI256
F113.90816326530613
sI257
F54.826530612244895
sI258
F0.0
sI259
F0.0
sI260
F0.0
sI261
F18.964285714285715
sI262
F109.02551020408163
sI263
F142.69897959183675
sI264
F191.52551020408163
sI265
F215.49489795918367
sI266
F254.89285714285714
sI267
F267.53571428571428
sI268
F321.91836734693879
sI269
F384.0
sI270
F352.01020408163265
sI271
F314.3112244897959
sI272
F267.47448979591837
sI273
F231.35204081632654
sI274
F210.56632653061226
sI275
F163.80612244897958
sI276
F132.33673469387756
sI277
F66.59693877551021
sI278
F0.0
sI279
F0.0
sI280
F0.0
sI281
F12.76530612244898
sI282
F125.52551020408163
sI283
F161.60204081632654
sI284
F211.48469387755102
sI285
F236.7704081632653
sI286
F277.05612244897958
sI287
F288.75
sI288
F316.19387755102042
sI289
F328.28571428571428
sI290
F321.0
sI291
F297.84183673469386
sI292
F290.41836734693879
sI293
F253.0408163265306
sI294
F231.2295918367347
sI295
F183.32142857142858
sI296
F150.38265306122449
sI297
F69.336734693877546
sI298
F0.0
sI299
F0.0
sI300
F0.0
sI301
F1.8979591836734695
sI302
F120.65816326530613
sI303
F179.87755102040816
sI304
F230.98469387755102
sI305
F257.58673469387753
sI306
F299.32653061224488
sI307
F312.27551020408163
sI308
F340.5612244897959
sI309
F335.52551020408163
sI310
F345.62755102040819
sI311
F321.91836734693879
sI312
F313.39285714285717
sI313
F274.46938775510205
sI314
F251.21938775510205
sI315
F202.33163265306123
sI316
F167.87755102040816
sI317
F59.831632653061227
sI318
F0.0
sI319
F0.0
sI320
F0.0
sI321
F0.0
sI322
F86.525510204081627
sI323
F197.83163265306123
sI324
F249.78061224489795
sI325
F277.9591836734694
sI326
F321.32142857142856
sI327
F335.7091836734694
sI328
F364.82142857142856
sI329
F360.24489795918367
sI330
F370.2091836734694
sI331
F345.8112244897959
sI332
F336.12244897959181
sI333
F295.97448979591837
sI334
F270.6887755102041
sI335
F221.05102040816325
sI336
F179.78571428571428
sI337
F31.51530612244898
sI338
F0.0
sI339
F0.0
sI340
F0.0
sI341
F0.0
sI342
F26.188775510204081
sI343
F215.1887755102041
sI344
F268.0408163265306
sI345
F298.37755102040819
sI346
F343.0408163265306
sI347
F358.91326530612247
sI348
F388.9591836734694
sI349
F384.93367346938777
sI350
F394.76020408163265
sI351
F369.64285714285717
sI352
F358.62244897959181
sI353
F317.12755102040819
sI354
F289.97448979591837
sI355
F239.05102040816325
sI356
F131.23469387755102
sI357
F0.0
sI358
F0.0
sI359
F0.0
sI360
F0.0
sI361
F0.0
sI362
F0.0
sI363
F194.03571428571428
sI364
F285.90306122448982
sI365
F318.2295918367347
sI366
F364.42346938775512
sI367
F381.99489795918367
sI368
F413.12755102040819
sI369
F409.7295918367347
sI370
F419.26530612244898
sI371
F393.36734693877548
sI372
F380.87755102040819
sI373
F337.88265306122452
sI374
F308.86224489795916
sI375
F256.37755102040819
sI376
F35.25
sI377
F0.0
sI378
F0.0
sI379
F0.0
sI380
F0.0
sI381
F0.0
sI382
F0.0
sI383
F71.663265306122454
sI384
F258.32142857142856
sI385
F337.63775510204084
sI386
F385.34693877551018
sI387
F404.7704081632653
sI388
F437.12755102040819
sI389
F434.37244897959181
sI390
F443.7704081632653
sI391
F416.84693877551018
sI392
F402.71938775510205
sI393
F358.33163265306121
sI394
F327.13775510204084
sI395
F212.00510204081633
sI396
F0.0
sI397
F0.0
sI398
F0.0
sI399
F0.0
sI400
F0.0
sI401
F0.0
sI402
F0.0
sI403
F0.0
sI404
F51.306122448979593
sI405
F356.52551020408163
sI406
F405.88775510204084
sI407
F427.34693877551018
sI408
F461.09693877551018
sI409
F459.07653061224488
sI410
F468.18367346938777
sI411
F440.23469387755102
sI412
F424.2704081632653
sI413
F378.12244897959181
sI414
F195.55102040816325
sI415
F41.816326530612244
sI416
F0.0
sI417
F0.0
sI418
F0.0
sI419
F0.0
sI420
F0.0
sI421
F0.0
sI422
F0.0
sI423
F0.0
sI424
F0.0
sI425
F244.25510204081633
sI426
F425.73979591836735
sI427
F449.4795918367347
sI428
F484.82142857142856
sI429
F483.70408163265307
sI430
F492.59693877551018
sI431
F463.40816326530614
sI432
F445.33163265306121
sI433
F392.51020408163265
sI434
F36.122448979591837
sI435
F0.0
sI436
F0.0
sI437
F0.0
sI438
F0.0
sI439
F0.0
sI440
F0.0
sI441
F0.0
sI442
F0.0
sI443
F0.0
sI444
F0.0
sI445
F249.42857142857142
sI446
F445.0408163265306
sI447
F471.2908163265306
sI448
F508.14795918367349
sI449
F508.08673469387753
sI450
F516.36734693877554
sI451
F486.2295918367347
sI452
F465.75
sI453
F415.91326530612247
sI454
F81.122448979591837
sI455
F0.0
sI456
F0.0
sI457
F0.0
sI458
F0.0
sI459
F0.0
sI460
F0.0
sI461
F0.0
sI462
F0.0
sI463
F0.0
sI464
F0.0
sI465
F292.22448979591837
sI466
F463.40816326530614
sI467
F492.55102040816325
sI468
F530.98469387755097
sI469
F532.34693877551024
sI470
F540.33673469387759
sI471
F508.46938775510205
sI472
F485.5408163265306
sI473
F433.63775510204084
sI474
F104.92346938775511
sI475
F0.0
sI476
F0.0
sI477
F0.0
sI478
F0.0
sI479
F0.0
sI480
F0.0
sI481
F0.0
sI482
F0.0
sI483
F0.0
sI484
F0.0
sI485
F315.21428571428572
sI486
F480.87244897959181
sI487
F512.84693877551024
sI488
F554.03571428571433
sI489
F556.86734693877554
sI490
F564.44387755102036
sI491
F530.12755102040819
sI492
F504.2295918367347
sI493
F450.39795918367349
sI494
F106.65306122448979
sI495
F0.0
sI496
F0.0
sI497
F0.0
sI498
F0.0
sI499
F0.0
sI500
F0.0
sI501
F0.0
sI502
F0.0
sI503
F0.0
sI504
F0.0
sI505
F308.49489795918367
sI506
F497.00510204081633
sI507
F532.39285714285711
sI508
F576.55102040816325
sI509
F581.44897959183675
sI510
F588.26020408163265
sI511
F551.61734693877554
sI512
F521.78571428571433
sI513
F466.07142857142856
sI514
F77.41836734693878
sI515
F0.0
sI516
F0.0
sI517
F0.0
sI518
F0.0
sI519
F0.0
sI520
F0.0
sI521
F0.0
sI522
F0.0
sI523
F0.0
sI524
F0.0
sI525
F269.89285714285717
sI526
F511.7295918367347
sI527
F551.3112244897959
sI528
F598.60714285714289
sI529
F605.98469387755097
sI530
F611.96938775510205
sI531
F572.35714285714289
sI532
F538.28571428571433
sI533
F479.89285714285717
sI534
F27.076530612244898
sI535
F0.0
sI536
F0.0
sI537
F0.0
sI538
F0.0
sI539
F0.0
sI540
F0.0
sI541
F0.0
sI542
F0.0
sI543
F0.0
sI544
F0.0
sI545
F195.01530612244898
sI546
F524.92346938775506
sI547
F568.7908163265306
sI548
F619.65306122448976
sI549
F630.39795918367349
sI550
F635.11224489795916
sI551
F591.99489795918362
sI552
F553.25510204081638
sI553
F454.89795918367349
sI554
F0.0
sI555
F0.0
sI556
F0.0
sI557
F0.0
sI558
F0.0
sI559
F0.0
sI560
F0.0
sI561
F0.0
sI562
F0.0
sI563
F0.0
sI564
F0.0
sI565
F79.836734693877546
sI566
F504.85714285714283
sI567
F584.67857142857144
sI568
F639.53571428571433
sI569
F654.58163265306121
sI570
F657.67346938775506
sI571
F610.30102040816325
sI572
F566.32653061224494
sI573
F349.0408163265306
sI574
F0.0
sI575
F0.0
sI576
F0.0
sI577
F0.0
sI578
F0.0
sI579
F0.0
sI580
F0.0
sI581
F0.0
sI582
F0.0
sI583
F0.0
sI584
F0.0
sI585
F0.0
sI586
F319.31632653061223
sI587
F598.40816326530614
sI588
F657.27551020408168
sI589
F678.58163265306121
sI590
F679.0408163265306
sI591
F626.51020408163265
sI592
F571.63775510204084
sI593
F173.7091836734694
sI594
F0.0
sI595
F0.0
sI596
F0.0
sI597
F0.0
sI598
F0.0
sI599
F0.0
sI600
F0.0
sI601
F0.0
sI602
F0.0
sI603
F0.0
sI604
F0.0
sI605
F0.0
sI606
F53.923469387755105
sI607
F609.36734693877554
sI608
F671.86224489795916
sI609
F702.01530612244903
sI610
F698.20408163265301
sI611
F639.90306122448976
sI612
F317.25
sI613
F0.88775510204081631
sI614
F0.0
sI615
F0.0
sI616
F0.0
sI617
F0.0
sI618
F0.0
sI619
F0.0
sI620
F0.0
sI621
F0.0
sI622
F0.0
sI623
F0.0
sI624
F0.0
sI625
F0.0
sI626
F0.0
sI627
F382.34693877551018
sI628
F623.98469387755097
sI629
F723.94897959183675
sI630
F712.86734693877554
sI631
F628.2091836734694
sI632
F1.5765306122448979
sI633
F0.0
sI634
F0.0
sI635
F0.0
sI636
F0.0
sI637
F0.0
sI638
F0.0
sI639
F0.0
sI640
F0.0
sI641
F0.0
sI642
F0.0
sI643
F0.0
sI644
F0.0
sI645
F0.0
sI646
F0.0
sI647
F1.0255102040816326
sI648
F21.397959183673468
sI649
F594.73469387755097
sI650
F117.29081632653062
sI651
F121.37755102040816
sI652
F0.0
sI653
F0.0
sI654
F0.0
sI655
F0.0
sI656
F0.0
sI657
F0.0
sI658
F0.0
sI659
F0.0
sI660
F0.0
sI661
F0.0
sI662
F0.0
sI663
F0.0
sI664
F0.0
sI665
F0.0
sI666
F0.0
sI667
F0.0
sI668
F0.0
sI669
F0.0
sI670
F0.0
sI671
F0.0
sI672
F0.0
sI673
F0.0
sI674
F0.0
sI675
F0.0
sI676
F0.0
sI677
F0.0
sI678
F0.0
sI679
F0.0
sI681
F0.0
sI683
F0.0
sI685
F0.0
sI687
F0.0
sI689
F0.0
sI691
F0.0
sI693
F0.0
sI695
F0.0
sI697
F0.0
sI699
F0.0
sI772
F0.0
sI774
F0.0
sI776
F0.0
sI778
F0.0
sI780
F0.0
sI782
F0.0
sI784
F0.0
sI786
F0.0
sI788
F0.0
sI790
F0.0
stp4
Rp5
(dp6
S'scale'
p7
I0
sS'description'
p8
S'custom_cell_property1'
p9
sb.