ccopy_reg
_reconstructor
p0
(copenalea.stse.io.walled_tissue.native_representation
IOTissueProperty
p1
c__builtin__
dict
p2
(dp3
I1
(F13.44558477719
F253.78541266932001
F0.0
tp4
sI2
(F26.89116955435
F11.7648866800675
F0.0
tp5
sI4
(F289.08007270949997
F240.33982789199999
F0.0
tp6
sI5
(F282.35728032050002
F243.701224086
F0.0
tp7
sI6
(F551.26897586350003
F11.76488668009249
F0.0
tp8
sI7
(F544.54618347550002
F15.126282874287501
F0.0
tp9
sI8
(F537.82339108650001
F28.571867651462501
F0.0
tp10
sI9
(F544.54618347550002
F25.210471457237489
F0.0
tp11
sI10
(F510.93222153250002
F243.701224086
F0.0
tp12
sI12
(F524.37780630949999
F253.78541266937501
F0.0
tp13
sI13
(F537.82339108650001
F253.78541266937501
F0.0
tp14
sI14
(F531.10059869849999
F257.14680886362498
F0.0
tp15
sI15
(F571.43735302949995
F240.33982789199999
F0.0
tp16
sI16
(F571.43735302949995
F257.14680886362498
F0.0
tp17
sI17
(F564.71456064100005
F270.592393640875
F0.0
tp18
sI18
(F571.43735302949995
F267.230997446375
F0.0
tp19
sI20
(F194.96097926900001
F472.27616529787502
F0.0
tp20
sI21
(F201.68377165749999
F468.91476910337502
F0.0
tp21
sI22
(F33.613961942899998
F240.33982789194999
F0.0
tp22
sI23
(F26.89116955435
F243.70122408602501
F0.0
tp23
sI24
(F40.336754331500003
F253.78541266932501
F0.0
tp24
sI25
(F40.336754331500003
F243.70122408604999
F0.0
tp25
sI26
(F289.08007270949997
F284.03797841762503
F0.0
tp26
sI27
(F504.20942914350002
F472.27616529762503
F0.0
tp27
sI28
(F436.98150525800003
F472.27616529787502
F0.0
tp28
sI30
(F161.34701732600001
F92.438395342975014
F0.0
tp29
sI31
(F147.9014325485
F82.354206760099999
F0.0
tp30
sI32
(F53.7823391087
F11.764886680042499
F0.0
tp31
sI33
(F40.336754331500003
F11.764886680042499
F0.0
tp32
sI34
(F33.613961942899998
F15.1262828743375
F0.0
tp33
sI35
(F47.059546720100002
F15.1262828743375
F0.0
tp34
sI36
(F47.059546720100002
F25.210471457187499
F0.0
tp35
sI37
(F40.336754331500003
F28.571867651512498
F0.0
tp36
sI38
(F33.613961942899998
F25.210471457187499
F0.0
tp37
sI39
(F67.227923885849989
F11.7648866800675
F0.0
tp38
sI40
(F60.505131497249998
F15.1262828743125
F0.0
tp39
sI41
(F13.44558477719
F243.70122408605499
F0.0
tp40
sI42
(F20.168377165750002
F240.33982789197501
F0.0
tp41
sI44
(F20.168377165750002
F230.25563930864999
F0.0
tp42
sI45
(F13.44558477719
F226.89424311432001
F0.0
tp43
sI48
(F20.168377165750002
F15.1262828743125
F0.0
tp44
sI50
(F396.64475092650002
F213.44865833737501
F0.0
tp45
sI51
(F389.92195853750002
F216.81005453162501
F0.0
tp46
sI52
(F571.43735302949995
F25.210471457237521
F0.0
tp47
sI53
(F564.71456064100005
F11.764886679842499
F0.0
tp48
sI54
(F571.43735302949995
F15.12628287428748
F0.0
tp49
sI55
(F557.99176825250004
F15.126282874287501
F0.0
tp50
sI56
(F551.26897586350003
F38.656056234399998
F0.0
tp51
sI57
(F551.26897586350003
F28.571867651462501
F0.0
tp52
sI58
(F557.99176825250004
F25.210471457237489
F0.0
tp53
sI59
(F564.71456064100005
F28.571867651712498
F0.0
tp54
sI60
(F497.4866367555
F65.547225788737492
F0.0
tp55
sI61
(F490.7638443665
F68.908621982962501
F0.0
tp56
sI62
(F484.04105197799998
F65.547225788487495
F0.0
tp57
sI63
(F497.4866367555
F82.354206760099999
F0.0
tp58
sI64
(F490.7638443665
F78.992810565899987
F0.0
tp59
sI65
(F477.31825958949997
F257.14680886362498
F0.0
tp60
sI66
(F537.82339108650001
F243.701224086
F0.0
tp61
sI67
(F551.26897586350003
F216.81005453162501
F0.0
tp62
sI68
(F557.99176825250004
F213.44865833737501
F0.0
tp63
sI69
(F564.71456064100005
F243.70122408624999
F0.0
tp64
sI70
(F564.71456064100005
F253.78541266912501
F0.0
tp65
sI71
(F551.26897586350003
F280.67658222337502
F0.0
tp66
sI72
(F557.99176825250004
F294.12216700037499
F0.0
tp67
sI73
(F571.43735302949995
F294.12216700037499
F0.0
tp68
sI74
(F564.71456064100005
F297.48356319487499
F0.0
tp69
sI75
(F571.43735302949995
F284.03797841762503
F0.0
tp70
sI76
(F564.71456064100005
F280.67658222312502
F0.0
tp71
sI77
(F557.99176825250004
F284.03797841762503
F0.0
tp72
sI78
(F497.4866367555
F468.91476910337502
F0.0
tp73
sI79
(F551.26897586350003
F297.48356319462499
F0.0
tp74
sI80
(F168.0698097145
F472.27616529762503
F0.0
tp75
sI81
(F188.2381868805
F468.91476910337502
F0.0
tp76
sI82
(F188.2381868805
F458.83058052062501
F0.0
tp77
sI83
(F181.51539449149999
F472.27616529762503
F0.0
tp78
sI84
(F174.7926021035
F468.91476910337502
F0.0
tp79
sI85
(F174.7926021035
F458.83058052062501
F0.0
tp80
sI86
(F181.51539449149999
F455.469184326375
F0.0
tp81
sI87
(F208.40656404649999
F472.27616529762503
F0.0
tp82
sI88
(F295.80286509749999
F173.111904006375
F0.0
tp83
sI89
(F268.9116955435
F253.78541266937501
F0.0
tp84
sI90
(F248.7433183775
F230.25563930862501
F0.0
tp85
sI91
(F194.96097926900001
F159.66631922875001
F0.0
tp86
sI92
(F201.68377165749999
F163.02771542299999
F0.0
tp87
sI93
(F255.46611076650001
F136.13654586862501
F0.0
tp88
sI94
(F242.02052598899999
F146.220734451125
F0.0
tp89
sI95
(F208.40656404649999
F149.582130645625
F0.0
tp90
sI96
(F208.40656404649999
F159.66631922900001
F0.0
tp91
sI97
(F47.059546720100002
F257.14680886367501
F0.0
tp92
sI98
(F107.5646782175
F216.81005453162501
F0.0
tp93
sI99
(F121.0102629945
F253.78541266937501
F0.0
tp94
sI100
(F121.0102629945
F243.701224086
F0.0
tp95
sI101
(F134.4558477715
F243.701224086
F0.0
tp96
sI102
(F127.7330553835
F240.33982789199999
F0.0
tp97
sI103
(F80.673508662999993
F280.676582223325
F0.0
tp98
sI105
(F194.96097926900001
F428.57801477212502
F0.0
tp99
sI106
(F87.396301051600005
F294.12216700032502
F0.0
tp100
sI107
(F87.396301051600005
F284.03797841767499
F0.0
tp101
sI108
(F114.287470606
F284.03797841787502
F0.0
tp102
sI109
(F94.119093440300006
F297.48356319472498
F0.0
tp103
sI110
(F100.8418858286
F294.12216700042501
F0.0
tp104
sI111
(F134.4558477715
F334.45892133237498
F0.0
tp105
sI112
(F275.63448793200001
F472.27616529787502
F0.0
tp106
sI113
(F268.9116955435
F458.83058052062501
F0.0
tp107
sI114
(F268.9116955435
F468.91476910337502
F0.0
tp108
sI115
(F262.1889031545
F472.27616529762503
F0.0
tp109
sI116
(F255.46611076650001
F468.91476910337502
F0.0
tp110
sI117
(F255.46611076650001
F431.93941096662502
F0.0
tp111
sI118
(F295.80286509749999
F361.35009088637503
F0.0
tp112
sI119
(F289.08007270949997
F364.71148708062498
F0.0
tp113
sI120
(F201.68377165749999
F253.78541266937501
F0.0
tp114
sI121
(F208.40656404649999
F230.25563930862501
F0.0
tp115
sI122
(F201.68377165749999
F226.894243114375
F0.0
tp116
sI123
(F194.96097926900001
F230.255639308875
F0.0
tp117
sI124
(F194.96097926900001
F240.33982789174999
F0.0
tp118
sI125
(F208.40656404649999
F240.33982789199999
F0.0
tp119
sI126
(F201.68377165749999
F243.701224086
F0.0
tp120
sI127
(F188.2381868805
F243.701224086
F0.0
tp121
sI128
(F282.35728032050002
F253.78541266937501
F0.0
tp122
sI129
(F275.63448793200001
F257.14680886387498
F0.0
tp123
sI130
(F295.80286509749999
F280.67658222337502
F0.0
tp124
sI131
(F403.36754331499998
F216.81005453187501
F0.0
tp125
sI132
(F309.24844987450001
F253.78541266937501
F0.0
tp126
sI133
(F295.80286509749999
F243.701224086
F0.0
tp127
sI134
(F302.52565748649999
F240.33982789199999
F0.0
tp128
sI135
(F309.24844987450001
F243.701224086
F0.0
tp129
sI136
(F457.1498824235
F324.37473274899997
F0.0
tp130
sI137
(F436.98150525800003
F455.469184326125
F0.0
tp131
sI138
(F430.25871286950002
F442.02359954937498
F0.0
tp132
sI139
(F436.98150525800003
F445.38499574387498
F0.0
tp133
sI140
(F423.53592048050001
F445.38499574362498
F0.0
tp134
sI141
(F443.70429764649998
F468.91476910337502
F0.0
tp135
sI142
(F443.70429764649998
F458.83058052062501
F0.0
tp136
sI143
(F463.87267481250001
F472.27616529762503
F0.0
tp137
sI144
(F457.1498824235
F468.91476910337502
F0.0
tp138
sI145
(F450.42709003549999
F472.27616529762503
F0.0
tp139
sI148
(F564.71456064100005
F468.91476910312502
F0.0
tp140
sI149
(F188.2381868805
F11.7648866800925
F0.0
tp141
sI150
(F194.96097926900001
F25.210471456987499
F0.0
tp142
sI151
(F194.96097926900001
F15.1262828745375
F0.0
tp143
sI152
(F141.17864016050001
F78.992810565900001
F0.0
tp144
sI153
(F161.34701732600001
F82.354206760349996
F0.0
tp145
sI154
(F154.6242249375
F78.992810565900001
F0.0
tp146
sI155
(F174.7926021035
F11.76488668009249
F0.0
tp147
sI156
(F181.51539449149999
F15.126282874287501
F0.0
tp148
sI159
(F13.44558477719
F216.81005453168001
F0.0
tp149
sI162
(F20.168377165750002
F122.69096109165
F0.0
tp150
sI163
(F13.44558477719
F119.32956489732
F0.0
tp151
sI164
(F134.4558477715
F92.438395343225011
F0.0
tp152
sI165
(F127.7330553835
F78.992810565900001
F0.0
tp153
sI166
(F134.4558477715
F82.354206760099999
F0.0
tp154
sI167
(F147.9014325485
F92.438395343224997
F0.0
tp155
sI168
(F141.17864016050001
F95.799791537375
F0.0
tp156
sI169
(F154.6242249375
F95.799791537375015
F0.0
tp157
sI170
(F53.7823391087
F28.571867651512498
F0.0
tp158
sI171
(F60.505131497249998
F25.210471457212499
F0.0
tp159
sI172
(F67.227923885850004
F28.571867651487501
F0.0
tp160
sI173
(F53.7823391087
F38.656056234349997
F0.0
tp161
sI174
(F26.89116955435
F28.571867651487501
F0.0
tp162
sI175
(F20.168377165750002
F25.210471457212499
F0.0
tp163
sI176
(F13.44558477719
F28.571867651517501
F0.0
tp164
sI177
(F26.89116955435
F38.656056234375001
F0.0
tp165
sI178
(F20.168377165750002
F42.017452428624999
F0.0
tp166
sI179
(F13.44558477719
F38.656056234345002
F0.0
tp167
sI180
(F383.1991661495
F213.44865833737501
F0.0
tp168
sI181
(F383.1991661495
F203.36446975462499
F0.0
tp169
sI183
(F510.93222153250002
F55.463037205799992
F0.0
tp170
sI184
(F537.82339108650001
F11.76488668009249
F0.0
tp171
sI185
(F383.1991661495
F68.908621982962501
F0.0
tp172
sI186
(F383.1991661495
F78.992810565900001
F0.0
tp173
sI187
(F436.98150525800003
F68.908621983212484
F0.0
tp174
sI188
(F436.98150525800003
F52.101641011350011
F0.0
tp175
sI189
(F450.42709003549999
F68.908621982962501
F0.0
tp176
sI190
(F443.70429764649998
F65.547225788737506
F0.0
tp177
sI191
(F450.42709003549999
F52.101641011599988
F0.0
tp178
sI192
(F443.70429764649998
F55.463037205799992
F0.0
tp179
sI193
(F477.31825958949997
F68.908621982962487
F0.0
tp180
sI194
(F484.04105197799998
F55.463037206049997
F0.0
tp181
sI195
(F396.64475092650002
F25.21047145723751
F0.0
tp182
sI196
(F389.92195853750002
F11.764886680092509
F0.0
tp183
sI197
(F396.64475092650002
F15.12628287428749
F0.0
tp184
sI198
(F497.4866367555
F119.32956489737499
F0.0
tp185
sI199
(F490.7638443665
F122.690961091625
F0.0
tp186
sI200
(F510.93222153250002
F92.438395343225011
F0.0
tp187
sI201
(F517.65501392099998
F95.799791537624998
F0.0
tp188
sI202
(F537.82339108650001
F163.02771542299999
F0.0
tp189
sI203
(F524.37780630949999
F136.13654586862501
F0.0
tp190
sI204
(F544.54618347550002
F159.66631922900001
F0.0
tp191
sI205
(F557.99176825250004
F149.582130645625
F0.0
tp192
sI206
(F484.04105197799998
F253.78541266912501
F0.0
tp193
sI207
(F477.31825958949997
F267.230997446375
F0.0
tp194
sI208
(F484.04105197799998
F270.592393640875
F0.0
tp195
sI209
(F517.65501392099998
F257.14680886387498
F0.0
tp196
sI210
(F510.93222153250002
F253.78541266937501
F0.0
tp197
sI211
(F436.98150525800003
F213.44865833712501
F0.0
tp198
sI212
(F430.25871286950002
F216.81005453162501
F0.0
tp199
sI213
(F436.98150525800003
F203.36446975487499
F0.0
tp200
sI214
(F430.25871286950002
F200.00307356037499
F0.0
tp201
sI215
(F430.25871286950002
F189.918884977625
F0.0
tp202
sI216
(F436.98150525800003
F186.557488783125
F0.0
tp203
sI217
(F430.25871286950002
F163.02771542299999
F0.0
tp204
sI218
(F430.25871286950002
F173.111904006375
F0.0
tp205
sI219
(F436.98150525800003
F176.473300200875
F0.0
tp206
sI220
(F389.92195853750002
F146.22073445137499
F0.0
tp207
sI221
(F389.92195853750002
F136.13654586862501
F0.0
tp208
sI222
(F396.64475092650002
F203.36446975462499
F0.0
tp209
sI223
(F389.92195853750002
F200.00307356037499
F0.0
tp210
sI224
(F463.87267481250001
F213.44865833737501
F0.0
tp211
sI225
(F463.87267481250001
F230.25563930862501
F0.0
tp212
sI226
(F537.82339108650001
F226.894243114375
F0.0
tp213
sI228
(F571.43735302949995
F203.36446975462499
F0.0
tp214
sI229
(F531.10059869849999
F203.36446975462499
F0.0
tp215
sI230
(F544.54618347550002
F213.44865833737501
F0.0
tp216
sI231
(F537.82339108650001
F216.81005453162501
F0.0
tp217
sI232
(F531.10059869849999
F213.44865833737501
F0.0
tp218
sI233
(F537.82339108650001
F200.00307356037499
F0.0
tp219
sI234
(F544.54618347550002
F203.36446975462499
F0.0
tp220
sI235
(F524.37780630949999
F173.111904006375
F0.0
tp221
sI236
(F557.99176825250004
F230.25563930862501
F0.0
tp222
sI237
(F557.99176825250004
F240.33982789199999
F0.0
tp223
sI238
(F544.54618347550002
F230.25563930862501
F0.0
tp224
sI239
(F551.26897586350003
F226.894243114375
F0.0
tp225
sI240
(F544.54618347550002
F240.33982789199999
F0.0
tp226
sI241
(F551.26897586350003
F243.701224086
F0.0
tp227
sI242
(F571.43735302949995
F213.44865833737501
F0.0
tp228
sI243
(F564.71456064100005
F216.81005453187501
F0.0
tp229
sI245
(F571.43735302949995
F230.25563930862501
F0.0
tp230
sI246
(F564.71456064100005
F226.894243114125
F0.0
tp231
sI247
(F557.99176825250004
F257.14680886362498
F0.0
tp232
sI248
(F557.99176825250004
F267.230997446375
F0.0
tp233
sI249
(F544.54618347550002
F257.14680886362498
F0.0
tp234
sI250
(F551.26897586350003
F253.78541266937501
F0.0
tp235
sI251
(F551.26897586350003
F270.592393640625
F0.0
tp236
sI252
(F544.54618347550002
F267.230997446375
F0.0
tp237
sI253
(F531.10059869849999
F267.230997446375
F0.0
tp238
sI254
(F537.82339108650001
F270.592393640625
F0.0
tp239
sI255
(F517.65501392099998
F391.60265663487502
F0.0
tp240
sI256
(F524.37780630949999
F388.24126044037502
F0.0
tp241
sI257
(F551.26897586350003
F415.13242999537499
F0.0
tp242
sI258
(F510.93222153250002
F431.93941096662502
F0.0
tp243
sI259
(F517.65501392099998
F445.38499574387498
F0.0
tp244
sI260
(F510.93222153250002
F442.02359954937498
F0.0
tp245
sI261
(F551.26897586350003
F458.83058052062501
F0.0
tp246
sI262
(F544.54618347550002
F455.469184326375
F0.0
tp247
sI263
(F470.59546720050002
F442.02359954937498
F0.0
tp248
sI264
(F490.7638443665
F472.27616529762503
F0.0
tp249
sI265
(F524.37780630949999
F324.37473274899997
F0.0
tp250
sI266
(F517.65501392099998
F310.92914797187501
F0.0
tp251
sI267
(F517.65501392099998
F321.01333655475003
F0.0
tp252
sI268
(F551.26897586350003
F307.56775177737501
F0.0
tp253
sI269
(F201.68377165749999
F458.83058052062501
F0.0
tp254
sI270
(F194.96097926900001
F455.469184326125
F0.0
tp255
sI271
(F194.96097926900001
F445.38499574387498
F0.0
tp256
sI272
(F289.08007270949997
F230.25563930862501
F0.0
tp257
sI273
(F282.35728032050002
F226.894243114375
F0.0
tp258
sI274
(F275.63448793200001
F240.33982789174999
F0.0
tp259
sI275
(F268.9116955435
F243.701224086
F0.0
tp260
sI276
(F262.1889031545
F240.33982789199999
F0.0
tp261
sI277
(F275.63448793200001
F230.255639308875
F0.0
tp262
sI278
(F235.29773360050001
F257.14680886362498
F0.0
tp263
sI279
(F188.2381868805
F146.22073445137499
F0.0
tp264
sI280
(F201.68377165749999
F146.22073445137499
F0.0
tp265
sI281
(F194.96097926900001
F149.582130645875
F0.0
tp266
sI282
(F201.68377165749999
F136.13654586862501
F0.0
tp267
sI283
(F268.9116955435
F146.22073445137499
F0.0
tp268
sI284
(F255.46611076650001
F109.24537631462501
F0.0
tp269
sI285
(F255.46611076650001
F119.32956489737499
F0.0
tp270
sI286
(F242.02052598899999
F119.329564897125
F0.0
tp271
sI287
(F248.7433183775
F122.690961091625
F0.0
tp272
sI288
(F242.02052598899999
F136.136545868875
F0.0
tp273
sI289
(F248.7433183775
F132.775149674375
F0.0
tp274
sI290
(F242.02052598899999
F163.02771542324999
F0.0
tp275
sI291
(F242.02052598899999
F173.111904006125
F0.0
tp276
sI292
(F268.9116955435
F189.918884977625
F0.0
tp277
sI293
(F268.9116955435
F200.00307356037499
F0.0
tp278
sI294
(F268.9116955435
F173.111904006375
F0.0
tp279
sI295
(F268.9116955435
F163.02771542299999
F0.0
tp280
sI296
(F215.12935643450001
F163.02771542299999
F0.0
tp281
sI297
(F215.12935643450001
F146.22073445137499
F0.0
tp282
sI298
(F235.29773360050001
F159.66631922900001
F0.0
tp283
sI299
(F228.5749412115
F163.02771542299999
F0.0
tp284
sI300
(F221.85214882349999
F159.66631922900001
F0.0
tp285
sI301
(F235.29773360050001
F149.582130645625
F0.0
tp286
sI302
(F228.5749412115
F146.22073445137499
F0.0
tp287
sI303
(F221.85214882349999
F149.582130645625
F0.0
tp288
sI304
(F215.12935643450001
F226.894243114375
F0.0
tp289
sI305
(F242.02052598899999
F189.918884977875
F0.0
tp290
sI306
(F242.02052598899999
F200.00307356012499
F0.0
tp291
sI307
(F201.68377165749999
F173.111904006375
F0.0
tp292
sI308
(F201.68377165749999
F216.81005453162501
F0.0
tp293
sI309
(F53.7823391087
F253.78541266932501
F0.0
tp294
sI310
(F67.227923885850004
F243.70122408602501
F0.0
tp295
sI311
(F147.9014325485
F216.81005453162501
F0.0
tp296
sI312
(F94.119093440300006
F200.003073560275
F0.0
tp297
sI313
(F100.8418858286
F203.364469754575
F0.0
tp298
sI314
(F100.8418858286
F213.448658337425
F0.0
tp299
sI315
(F94.119093440300006
F216.810054531725
F0.0
tp300
sI316
(F94.119093440300006
F226.89424311427501
F0.0
tp301
sI317
(F134.4558477715
F226.894243114375
F0.0
tp302
sI318
(F127.7330553835
F230.25563930862501
F0.0
tp303
sI319
(F121.0102629945
F226.894243114375
F0.0
tp304
sI320
(F141.17864016050001
F230.25563930862501
F0.0
tp305
sI321
(F147.9014325485
F226.894243114375
F0.0
tp306
sI322
(F154.6242249375
F230.25563930862501
F0.0
tp307
sI323
(F154.6242249375
F240.33982789199999
F0.0
tp308
sI324
(F141.17864016050001
F240.33982789199999
F0.0
tp309
sI325
(F147.9014325485
F243.701224086
F0.0
tp310
sI326
(F80.673508662999993
F270.59239364067503
F0.0
tp311
sI329
(F20.168377165750002
F267.23099744634999
F0.0
tp312
sI330
(F20.168377165750002
F257.14680886364999
F0.0
tp313
sI331
(F26.89116955435
F253.78541266934999
F0.0
tp314
sI332
(F33.613961942899998
F257.14680886367501
F0.0
tp315
sI335
(F13.44558477719
F270.59239364067997
F0.0
tp316
sI336
(F13.44558477719
F280.67658222332
F0.0
tp317
sI338
(F188.2381868805
F431.93941096662502
F0.0
tp318
sI339
(F181.51539449149999
F445.38499574362498
F0.0
tp319
sI340
(F188.2381868805
F442.02359954937498
F0.0
tp320
sI341
(F235.29773360050001
F391.60265663462502
F0.0
tp321
sI342
(F228.5749412115
F351.26590230362501
F0.0
tp322
sI343
(F107.5646782175
F280.67658222337502
F0.0
tp323
sI344
(F94.119093440300006
F280.67658222327498
F0.0
tp324
sI345
(F100.8418858286
F284.037978417575
F0.0
tp325
sI346
(F147.9014325485
F324.37473274899997
F0.0
tp326
sI347
(F127.7330553835
F310.92914797162501
F0.0
tp327
sI348
(F141.17864016050001
F321.01333655500002
F0.0
tp328
sI349
(F127.7330553835
F321.01333655500002
F0.0
tp329
sI350
(F134.4558477715
F324.37473274899997
F0.0
tp330
sI351
(F141.17864016050001
F310.92914797162501
F0.0
tp331
sI352
(F134.4558477715
F307.56775177737501
F0.0
tp332
sI353
(F94.119093440300006
F307.56775177727502
F0.0
tp333
sI354
(F121.0102629945
F307.56775177737501
F0.0
tp334
sI355
(F121.0102629945
F297.48356319462499
F0.0
tp335
sI356
(F114.287470606
F294.12216700012499
F0.0
tp336
sI357
(F107.5646782175
F297.48356319462499
F0.0
tp337
sI358
(F121.0102629945
F270.592393640625
F0.0
tp338
sI359
(F121.0102629945
F280.67658222337502
F0.0
tp339
sI360
(F154.6242249375
F257.14680886362498
F0.0
tp340
sI361
(F147.9014325485
F253.78541266937501
F0.0
tp341
sI362
(F289.08007270949997
F472.27616529762503
F0.0
tp342
sI363
(F282.35728032050002
F468.91476910337502
F0.0
tp343
sI364
(F302.52565748649999
F445.38499574362498
F0.0
tp344
sI365
(F295.80286509749999
F442.02359954937498
F0.0
tp345
sI366
(F295.80286509749999
F431.93941096662502
F0.0
tp346
sI367
(F289.08007270949997
F428.57801477237501
F0.0
tp347
sI368
(F248.7433183775
F472.27616529762503
F0.0
tp348
sI369
(F262.1889031545
F455.469184326375
F0.0
tp349
sI370
(F255.46611076650001
F458.83058052062501
F0.0
tp350
sI371
(F262.1889031545
F445.38499574362498
F0.0
tp351
sI372
(F255.46611076650001
F442.02359954937498
F0.0
tp352
sI373
(F235.29773360050001
F472.27616529762503
F0.0
tp353
sI374
(F242.02052598899999
F468.91476910312502
F0.0
tp354
sI375
(F302.52565748649999
F428.57801477237501
F0.0
tp355
sI376
(F315.97124226350002
F418.493826189625
F0.0
tp356
sI377
(F302.52565748649999
F364.71148708062498
F0.0
tp357
sI378
(F302.52565748649999
F374.79567566337499
F0.0
tp358
sI379
(F262.1889031545
F428.57801477237501
F0.0
tp359
sI380
(F262.1889031545
F418.493826189625
F0.0
tp360
sI381
(F282.35728032050002
F388.24126044037502
F0.0
tp361
sI382
(F282.35728032050002
F378.157071857625
F0.0
tp362
sI383
(F295.80286509749999
F378.157071857625
F0.0
tp363
sI384
(F289.08007270949997
F374.79567566337499
F0.0
tp364
sI385
(F275.63448793200001
F418.49382618987499
F0.0
tp365
sI386
(F268.9116955435
F415.13242999537499
F0.0
tp366
sI387
(F383.1991661495
F472.27616529762503
F0.0
tp367
sI388
(F336.13961942949999
F468.91476910337502
F0.0
tp368
sI389
(F369.75358137249998
F472.27616529762503
F0.0
tp369
sI390
(F376.4763737605
F468.91476910337502
F0.0
tp370
sI391
(F336.13961942949999
F458.83058052062501
F0.0
tp371
sI392
(F342.8624118175
F455.469184326375
F0.0
tp372
sI393
(F443.70429764649998
F405.04824141199998
F0.0
tp373
sI394
(F430.25871286950002
F431.93941096662502
F0.0
tp374
sI395
(F436.98150525800003
F401.68684521774998
F0.0
tp375
sI396
(F436.98150525800003
F391.60265663487502
F0.0
tp376
sI397
(F430.25871286950002
F388.24126044037502
F0.0
tp377
sI398
(F208.40656404649999
F257.14680886362498
F0.0
tp378
sI399
(F221.85214882349999
F267.230997446375
F0.0
tp379
sI400
(F208.40656404649999
F267.230997446375
F0.0
tp380
sI401
(F215.12935643450001
F270.592393640625
F0.0
tp381
sI402
(F208.40656404649999
F284.03797841762503
F0.0
tp382
sI403
(F215.12935643450001
F280.67658222337502
F0.0
tp383
sI404
(F221.85214882349999
F284.03797841762503
F0.0
tp384
sI405
(F168.0698097145
F267.230997446375
F0.0
tp385
sI406
(F161.34701732600001
F243.70122408624999
F0.0
tp386
sI407
(F161.34701732600001
F253.78541266912501
F0.0
tp387
sI408
(F168.0698097145
F257.14680886362498
F0.0
tp388
sI409
(F174.7926021035
F253.78541266937501
F0.0
tp389
sI410
(F295.80286509749999
F307.56775177737501
F0.0
tp390
sI411
(F289.08007270949997
F294.12216700037499
F0.0
tp391
sI412
(F295.80286509749999
F297.48356319462499
F0.0
tp392
sI413
(F242.02052598899999
F324.37473274924997
F0.0
tp393
sI414
(F235.29773360050001
F321.01333655500002
F0.0
tp394
sI415
(F282.35728032050002
F280.67658222337502
F0.0
tp395
sI416
(F268.9116955435
F270.592393640625
F0.0
tp396
sI417
(F275.63448793200001
F267.230997446125
F0.0
tp397
sI418
(F282.35728032050002
F270.592393640625
F0.0
tp398
sI419
(F242.02052598899999
F388.24126044012502
F0.0
tp399
sI420
(F255.46611076650001
F378.157071857625
F0.0
tp400
sI421
(F248.7433183775
F391.60265663462502
F0.0
tp401
sI422
(F255.46611076650001
F388.24126044037502
F0.0
tp402
sI423
(F275.63448793200001
F374.795675663125
F0.0
tp403
sI424
(F268.9116955435
F378.157071857625
F0.0
tp404
sI425
(F262.1889031545
F374.79567566337499
F0.0
tp405
sI426
(F262.1889031545
F364.71148708062498
F0.0
tp406
sI427
(F262.1889031545
F347.90450610937501
F0.0
tp407
sI428
(F242.02052598899999
F378.157071857875
F0.0
tp408
sI429
(F248.7433183775
F374.79567566337499
F0.0
tp409
sI430
(F457.1498824235
F226.894243114375
F0.0
tp410
sI431
(F443.70429764649998
F216.81005453162501
F0.0
tp411
sI432
(F450.42709003549999
F213.44865833737501
F0.0
tp412
sI433
(F457.1498824235
F216.81005453162501
F0.0
tp413
sI434
(F430.25871286950002
F226.894243114375
F0.0
tp414
sI435
(F315.97124226350002
F240.33982789199999
F0.0
tp415
sI436
(F289.08007270949997
F257.14680886362498
F0.0
tp416
sI437
(F295.80286509749999
F253.78541266937501
F0.0
tp417
sI438
(F302.52565748649999
F257.14680886362498
F0.0
tp418
sI439
(F302.52565748649999
F267.230997446375
F0.0
tp419
sI440
(F289.08007270949997
F267.230997446375
F0.0
tp420
sI441
(F295.80286509749999
F270.592393640625
F0.0
tp421
sI442
(F450.42709003549999
F401.68684521799997
F0.0
tp422
sI443
(F457.1498824235
F405.04824141199998
F0.0
tp423
sI444
(F443.70429764649998
F442.02359954937498
F0.0
tp424
sI445
(F430.25871286950002
F468.91476910337502
F0.0
tp425
sI446
(F423.53592048050001
F472.27616529762503
F0.0
tp426
sI447
(F416.81312809249999
F468.91476910337502
F0.0
tp427
sI448
(F430.25871286950002
F458.83058052062501
F0.0
tp428
sI449
(F416.81312809249999
F458.83058052062501
F0.0
tp429
sI450
(F423.53592048050001
F455.469184326375
F0.0
tp430
sI451
(F410.09033570349999
F455.469184326375
F0.0
tp431
sI453
(F551.26897586350003
F431.93941096662502
F0.0
tp432
sI454
(F551.26897586350003
F442.02359954937498
F0.0
tp433
sI455
(F544.54618347550002
F445.38499574362498
F0.0
tp434
sI456
(F557.99176825250004
F472.27616529762503
F0.0
tp435
sI457
(F544.54618347550002
F472.27616529762503
F0.0
tp436
sI458
(F551.26897586350003
F468.91476910337502
F0.0
tp437
sI459
(F221.85214882349999
F42.017452428600002
F0.0
tp438
sI460
(F215.12935643450001
F28.571867651462501
F0.0
tp439
sI461
(F208.40656404649999
F25.210471457237499
F0.0
tp440
sI462
(F201.68377165749999
F28.571867651462501
F0.0
tp441
sI463
(F215.12935643450001
F38.656056234399998
F0.0
tp442
sI464
(F201.68377165749999
F11.7648866800925
F0.0
tp443
sI465
(F215.12935643450001
F11.7648866800925
F0.0
tp444
sI466
(F208.40656404649999
F15.126282874287501
F0.0
tp445
sI467
(F309.24844987450001
F11.76488668009249
F0.0
tp446
sI468
(F228.5749412115
F38.656056234399998
F0.0
tp447
sI469
(F107.5646782175
F11.7648866800925
F0.0
tp448
sI470
(F100.8418858286
F15.1262828742375
F0.0
tp449
sI471
(F107.5646782175
F28.571867651462501
F0.0
tp450
sI472
(F94.119093440300006
F28.571867651562499
F0.0
tp451
sI473
(F100.8418858286
F25.2104714572875
F0.0
tp452
sI474
(F94.119093440300006
F38.656056234300003
F0.0
tp453
sI475
(F114.287470606
F25.210471456987499
F0.0
tp454
sI476
(F121.0102629945
F11.7648866800925
F0.0
tp455
sI477
(F114.287470606
F15.1262828745375
F0.0
tp456
sI478
(F188.2381868805
F136.13654586862501
F0.0
tp457
sI479
(F194.96097926900001
F132.775149674125
F0.0
tp458
sI480
(F188.2381868805
F28.571867651462501
F0.0
tp459
sI481
(F181.51539449149999
F25.210471457237499
F0.0
tp460
sI482
(F154.6242249375
F42.017452428600002
F0.0
tp461
sI483
(F141.17864016050001
F68.908621982962501
F0.0
tp462
sI484
(F141.17864016050001
F52.101641011600002
F0.0
tp463
sI485
(F208.40656404649999
F52.101641011600002
F0.0
tp464
sI486
(F201.68377165749999
F38.656056234399998
F0.0
tp465
sI487
(F208.40656404649999
F42.017452428600002
F0.0
tp466
sI488
(F221.85214882349999
F52.101641011600002
F0.0
tp467
sI489
(F215.12935643450001
F55.463037205799999
F0.0
tp468
sI490
(F248.7433183775
F68.908621982962501
F0.0
tp469
sI491
(F248.7433183775
F78.992810565899987
F0.0
tp470
sI492
(F13.44558477719
F163.02771542305501
F0.0
tp471
sI493
(F13.44558477719
F173.11190400632
F0.0
tp472
sI494
(F13.44558477719
F146.22073445132
F0.0
tp473
sI495
(F13.44558477719
F136.13654586868
F0.0
tp474
sI496
(F20.168377165750002
F132.77514967434999
F0.0
tp475
sI497
(F33.613961942899998
F230.255639308675
F0.0
tp476
sI498
(F26.89116955435
F226.89424311434999
F0.0
tp477
sI499
(F33.613961942899998
F203.36446975467501
F0.0
tp478
sI500
(F20.168377165750002
F213.44865833735
F0.0
tp479
sI501
(F26.89116955435
F216.81005453165
F0.0
tp480
sI502
(F33.613961942899998
F213.44865833732501
F0.0
tp481
sI503
(F13.44558477719
F189.91888497767999
F0.0
tp482
sI504
(F13.44558477719
F200.00307356031999
F0.0
tp483
sI505
(F26.89116955435
F200.00307356035
F0.0
tp484
sI506
(F20.168377165750002
F203.36446975465
F0.0
tp485
sI507
(F67.227923885849989
F38.656056234375001
F0.0
tp486
sI508
(F60.505131497249998
F42.017452428624999
F0.0
tp487
sI509
(F73.950716274400008
F68.908621983012495
F0.0
tp488
sI510
(F100.8418858286
F52.101641011650003
F0.0
tp489
sI511
(F100.8418858286
F42.017452428550001
F0.0
tp490
sI512
(F107.5646782175
F38.656056234399998
F0.0
tp491
sI513
(F80.673508663000007
F65.547225788687498
F0.0
tp492
sI514
(F94.119093440300006
F55.463037205900001
F0.0
tp493
sI515
(F13.44558477719
F55.463037205855002
F0.0
tp494
sI516
(F20.168377165750002
F52.101641011574998
F0.0
tp495
sI517
(F161.34701732600001
F109.245376314875
F0.0
tp496
sI518
(F154.6242249375
F105.883980120375
F0.0
tp497
sI519
(F154.6242249375
F159.66631922900001
F0.0
tp498
sI520
(F383.1991661495
F132.775149674375
F0.0
tp499
sI521
(F376.4763737605
F119.32956489737499
F0.0
tp500
sI522
(F383.1991661495
F122.690961091625
F0.0
tp501
sI523
(F383.1991661495
F95.799791537375015
F0.0
tp502
sI524
(F383.1991661495
F105.883980120375
F0.0
tp503
sI525
(F376.4763737605
F109.24537631462501
F0.0
tp504
sI526
(F369.75358137249998
F105.883980120375
F0.0
tp505
sI527
(F383.1991661495
F149.582130645625
F0.0
tp506
sI528
(F363.03078898349997
F146.22073445137499
F0.0
tp507
sI529
(F376.4763737605
F136.13654586862501
F0.0
tp508
sI530
(F376.4763737605
F146.22073445137499
F0.0
tp509
sI531
(F369.75358137249998
F149.582130645625
F0.0
tp510
sI532
(F564.71456064100005
F38.65605623415
F0.0
tp511
sI533
(F557.99176825250004
F42.017452428600002
F0.0
tp512
sI534
(F571.43735302949995
F42.017452428599967
F0.0
tp513
sI535
(F544.54618347550002
F78.992810565900001
F0.0
tp514
sI536
(F544.54618347550002
F68.908621982962501
F0.0
tp515
sI538
(F564.71456064100005
F109.245376314875
F0.0
tp516
sI539
(F571.43735302949995
F105.883980120375
F0.0
tp517
sI540
(F517.65501392099998
F52.101641011350011
F0.0
tp518
sI541
(F504.20942914350002
F68.908621982962501
F0.0
tp519
sI542
(F510.93222153250002
F65.547225788737506
F0.0
tp520
sI543
(F517.65501392099998
F68.908621983212484
F0.0
tp521
sI544
(F504.20942914350002
F78.992810565900001
F0.0
tp522
sI545
(F510.93222153250002
F82.354206760099984
F0.0
tp523
sI546
(F517.65501392099998
F78.992810565650018
F0.0
tp524
sI547
(F531.10059869849999
F25.210471457237489
F0.0
tp525
sI548
(F531.10059869849999
F15.126282874287501
F0.0
tp526
sI549
(F410.09033570349999
F68.908621982962501
F0.0
tp527
sI550
(F410.09033570349999
F78.992810565900001
F0.0
tp528
sI551
(F430.25871286950002
F55.463037205800013
F0.0
tp529
sI552
(F430.25871286950002
F65.547225788737492
F0.0
tp530
sI553
(F423.53592048050001
F68.908621982962501
F0.0
tp531
sI554
(F416.81312809249999
F65.547225788737492
F0.0
tp532
sI555
(F383.1991661495
F52.101641011599988
F0.0
tp533
sI556
(F423.53592048050001
F78.992810565899987
F0.0
tp534
sI557
(F416.81312809249999
F82.354206760099999
F0.0
tp535
sI558
(F396.64475092650002
F78.992810565900015
F0.0
tp536
sI559
(F389.92195853750002
F82.354206760099984
F0.0
tp537
sI560
(F403.36754331499998
F82.354206760349996
F0.0
tp538
sI561
(F403.36754331499998
F92.438395342974999
F0.0
tp539
sI562
(F396.64475092650002
F95.799791537375
F0.0
tp540
sI563
(F389.92195853750002
F92.438395343225011
F0.0
tp541
sI564
(F457.1498824235
F55.463037205800013
F0.0
tp542
sI565
(F457.1498824235
F65.547225788737492
F0.0
tp543
sI566
(F463.87267481250001
F68.908621982962501
F0.0
tp544
sI567
(F470.59546720050002
F65.547225788737506
F0.0
tp545
sI568
(F484.04105197799998
F38.65605623415
F0.0
tp546
sI569
(F484.04105197799998
F28.571867651712498
F0.0
tp547
sI570
(F477.31825958949997
F42.017452428600002
F0.0
tp548
sI571
(F477.31825958949997
F52.101641011600009
F0.0
tp549
sI572
(F463.87267481250001
F52.101641011599988
F0.0
tp550
sI573
(F470.59546720050002
F55.463037205799992
F0.0
tp551
sI574
(F490.7638443665
F52.101641011599988
F0.0
tp552
sI575
(F497.4866367555
F55.463037205800013
F0.0
tp553
sI576
(F504.20942914350002
F52.101641011599988
F0.0
tp554
sI577
(F490.7638443665
F42.017452428600002
F0.0
tp555
sI578
(F504.20942914350002
F42.017452428600002
F0.0
tp556
sI579
(F497.4866367555
F38.656056234399998
F0.0
tp557
sI580
(F403.36754331499998
F11.764886679842499
F0.0
tp558
sI581
(F396.64475092650002
F42.017452428599988
F0.0
tp559
sI582
(F416.81312809249999
F11.76488668009249
F0.0
tp560
sI583
(F410.09033570349999
F15.126282874287501
F0.0
tp561
sI584
(F436.98150525800003
F42.017452428849992
F0.0
tp562
sI585
(F430.25871286950002
F38.656056234399998
F0.0
tp563
sI586
(F443.70429764649998
F11.764886680092509
F0.0
tp564
sI587
(F450.42709003549999
F15.126282874287501
F0.0
tp565
sI588
(F497.4866367555
F92.438395343224997
F0.0
tp566
sI589
(F504.20942914350002
F95.799791537375015
F0.0
tp567
sI590
(F497.4866367555
F109.24537631462501
F0.0
tp568
sI591
(F504.20942914350002
F105.883980120375
F0.0
tp569
sI592
(F524.37780630949999
F82.354206760099999
F0.0
tp570
sI593
(F537.82339108650001
F82.354206760099999
F0.0
tp571
sI594
(F531.10059869849999
F78.992810565899987
F0.0
tp572
sI595
(F524.37780630949999
F92.438395343224997
F0.0
tp573
sI596
(F537.82339108650001
F92.438395343224997
F0.0
tp574
sI597
(F531.10059869849999
F95.799791537375015
F0.0
tp575
sI598
(F510.93222153250002
F109.24537631462501
F0.0
tp576
sI599
(F517.65501392099998
F105.883980120125
F0.0
tp577
sI600
(F531.10059869849999
F132.775149674375
F0.0
tp578
sI601
(F510.93222153250002
F163.02771542299999
F0.0
tp579
sI602
(F510.93222153250002
F146.22073445137499
F0.0
tp580
sI604
(F571.43735302949995
F159.66631922900001
F0.0
tp581
sI605
(F571.43735302949995
F122.690961091625
F0.0
tp582
sI606
(F564.71456064100005
F119.329564897125
F0.0
tp583
sI608
(F571.43735302950006
F132.775149674375
F0.0
tp584
sI609
(F564.71456064100005
F136.136545868875
F0.0
tp585
sI610
(F571.43735302950006
F149.582130645625
F0.0
tp586
sI611
(F564.71456064100005
F146.220734451125
F0.0
tp587
sI612
(F504.20942914350002
F240.33982789199999
F0.0
tp588
sI613
(F497.4866367555
F243.701224086
F0.0
tp589
sI614
(F470.59546720050002
F280.67658222337502
F0.0
tp590
sI615
(F470.59546720050002
F270.592393640625
F0.0
tp591
sI616
(F470.59546720050002
F297.48356319462499
F0.0
tp592
sI617
(F490.7638443665
F284.03797841762503
F0.0
tp593
sI618
(F484.04105197799998
F280.67658222312502
F0.0
tp594
sI619
(F477.31825958949997
F284.03797841762503
F0.0
tp595
sI620
(F490.7638443665
F294.12216700037499
F0.0
tp596
sI621
(F484.04105197799998
F297.48356319487499
F0.0
tp597
sI622
(F477.31825958949997
F294.12216700037499
F0.0
tp598
sI623
(F497.4866367555
F280.67658222337502
F0.0
tp599
sI624
(F490.7638443665
F267.230997446375
F0.0
tp600
sI625
(F490.7638443665
F257.14680886362498
F0.0
tp601
sI626
(F504.20942914350002
F267.230997446375
F0.0
tp602
sI627
(F497.4866367555
F270.592393640625
F0.0
tp603
sI628
(F497.4866367555
F253.78541266937501
F0.0
tp604
sI629
(F504.20942914350002
F257.14680886362498
F0.0
tp605
sI630
(F423.53592048050001
F203.36446975462499
F0.0
tp606
sI631
(F410.09033570349999
F213.44865833737501
F0.0
tp607
sI632
(F416.81312809249999
F216.81005453162501
F0.0
tp608
sI633
(F423.53592048050001
F213.44865833737501
F0.0
tp609
sI634
(F436.98150525800003
F159.66631922875001
F0.0
tp610
sI635
(F436.98150525800003
F149.582130645875
F0.0
tp611
sI636
(F436.98150525800003
F132.775149674125
F0.0
tp612
sI637
(F436.98150525800003
F122.690961091875
F0.0
tp613
sI638
(F430.25871286950002
F136.13654586862501
F0.0
tp614
sI639
(F430.25871286950002
F146.22073445137499
F0.0
tp615
sI640
(F389.92195853750002
F189.918884977625
F0.0
tp616
sI641
(F396.64475092650002
F176.473300200625
F0.0
tp617
sI642
(F396.64475092650002
F186.55748878337499
F0.0
tp618
sI643
(F463.87267481250001
F203.36446975462499
F0.0
tp619
sI644
(F470.59546720050002
F216.81005453162501
F0.0
tp620
sI645
(F470.59546720050002
F226.894243114375
F0.0
tp621
sI646
(F463.87267481250001
F176.473300200625
F0.0
tp622
sI647
(F463.87267481250001
F186.55748878337499
F0.0
tp623
sI648
(F443.70429764649998
F173.111904006375
F0.0
tp624
sI649
(F450.42709003549999
F176.473300200625
F0.0
tp625
sI650
(F457.1498824235
F173.111904006375
F0.0
tp626
sI651
(F443.70429764649998
F163.02771542299999
F0.0
tp627
sI652
(F457.1498824235
F163.02771542299999
F0.0
tp628
sI653
(F450.42709003549999
F159.66631922900001
F0.0
tp629
sI654
(F531.10059869849999
F230.25563930862501
F0.0
tp630
sI655
(F524.37780630949999
F243.701224086
F0.0
tp631
sI656
(F517.65501392099998
F240.33982789174999
F0.0
tp632
sI657
(F531.10059869849999
F240.33982789199999
F0.0
tp633
sI658
(F517.65501392099998
F230.255639308875
F0.0
tp634
sI659
(F524.37780630949999
F226.894243114375
F0.0
tp635
sI660
(F517.65501392099998
F213.44865833712501
F0.0
tp636
sI661
(F524.37780630949999
F216.81005453162501
F0.0
tp637
sI662
(F564.71456064100005
F200.00307356012499
F0.0
tp638
sI663
(F557.99176825250004
F203.36446975462499
F0.0
tp639
sI664
(F551.26897586350003
F200.00307356037499
F0.0
tp640
sI665
(F537.82339108650001
F173.111904006375
F0.0
tp641
sI666
(F531.10059869849999
F176.473300200625
F0.0
tp642
sI667
(F537.82339108650001
F189.918884977625
F0.0
tp643
sI668
(F531.10059869849999
F186.55748878337499
F0.0
tp644
sI669
(F510.93222153250002
F173.111904006375
F0.0
tp645
sI670
(F517.65501392099998
F176.473300200875
F0.0
tp646
sI671
(F510.93222153250002
F388.24126044037502
F0.0
tp647
sI672
(F510.93222153250002
F378.157071857625
F0.0
tp648
sI673
(F524.37780630949999
F405.04824141199998
F0.0
tp649
sI674
(F517.65501392099998
F401.68684521774998
F0.0
tp650
sI675
(F510.93222153250002
F405.04824141199998
F0.0
tp651
sI676
(F510.93222153250002
F415.13242999537499
F0.0
tp652
sI677
(F517.65501392099998
F374.795675663125
F0.0
tp653
sI678
(F524.37780630949999
F378.157071857625
F0.0
tp654
sI679
(F531.10059869849999
F401.68684521799997
F0.0
tp655
sI680
(F537.82339108650001
F405.04824141199998
F0.0
tp656
sI681
(F531.10059869849999
F391.60265663462502
F0.0
tp657
sI682
(F531.10059869849999
F455.469184326375
F0.0
tp658
sI683
(F537.82339108650001
F458.83058052062501
F0.0
tp659
sI684
(F531.10059869849999
F472.27616529762503
F0.0
tp660
sI685
(F537.82339108650001
F468.91476910337502
F0.0
tp661
sI686
(F470.59546720050002
F458.83058052062501
F0.0
tp662
sI687
(F477.31825958949997
F472.27616529762503
F0.0
tp663
sI688
(F470.59546720050002
F468.91476910337502
F0.0
tp664
sI689
(F484.04105197799998
F468.91476910312502
F0.0
tp665
sI690
(F463.87267481250001
F455.469184326375
F0.0
tp666
sI691
(F457.1498824235
F458.83058052062501
F0.0
tp667
sI692
(F450.42709003549999
F455.469184326375
F0.0
tp668
sI693
(F463.87267481250001
F445.38499574362498
F0.0
tp669
sI694
(F457.1498824235
F442.02359954937498
F0.0
tp670
sI695
(F450.42709003549999
F445.38499574362498
F0.0
tp671
sI696
(F504.20942914350002
F455.469184326375
F0.0
tp672
sI697
(F497.4866367555
F458.83058052062501
F0.0
tp673
sI698
(F504.20942914350002
F445.38499574362498
F0.0
tp674
sI699
(F497.4866367555
F442.02359954937498
F0.0
tp675
sI700
(F504.20942914350002
F401.68684521799997
F0.0
tp676
sI701
(F497.4866367555
F388.24126044037502
F0.0
tp677
sI702
(F504.20942914350002
F391.60265663462502
F0.0
tp678
sI703
(F484.04105197799998
F378.157071857875
F0.0
tp679
sI704
(F484.04105197799998
F431.93941096687502
F0.0
tp680
sI705
(F510.93222153250002
F307.56775177737501
F0.0
tp681
sI706
(F497.4866367555
F297.48356319462499
F0.0
tp682
sI707
(F544.54618347550002
F310.92914797162501
F0.0
tp683
sI708
(F544.54618347550002
F321.01333655500002
F0.0
tp684
sI709
(F537.82339108650001
F324.37473274899997
F0.0
tp685
sI710
(F531.10059869849999
F321.01333655500002
F0.0
tp686
sI711
(F268.9116955435
F216.81005453162501
F0.0
tp687
sI712
(F268.9116955435
F226.894243114375
F0.0
tp688
sI713
(F255.46611076650001
F226.894243114375
F0.0
tp689
sI714
(F262.1889031545
F230.25563930862501
F0.0
tp690
sI715
(F248.7433183775
F213.44865833737501
F0.0
tp691
sI716
(F255.46611076650001
F216.81005453162501
F0.0
tp692
sI717
(F262.1889031545
F213.44865833737501
F0.0
tp693
sI718
(F248.7433183775
F203.36446975462499
F0.0
tp694
sI719
(F262.1889031545
F203.36446975462499
F0.0
tp695
sI720
(F255.46611076650001
F200.00307356037499
F0.0
tp696
sI721
(F275.63448793200001
F213.44865833712501
F0.0
tp697
sI722
(F282.35728032050002
F216.81005453162501
F0.0
tp698
sI723
(F282.35728032050002
F200.00307356037499
F0.0
tp699
sI724
(F275.63448793200001
F203.36446975487499
F0.0
tp700
sI725
(F242.02052598899999
F253.78541266912501
F0.0
tp701
sI726
(F248.7433183775
F240.33982789199999
F0.0
tp702
sI727
(F255.46611076650001
F243.701224086
F0.0
tp703
sI728
(F242.02052598899999
F243.70122408624999
F0.0
tp704
sI729
(F235.29773360050001
F240.33982789199999
F0.0
tp705
sI730
(F221.85214882349999
F230.25563930862501
F0.0
tp706
sI731
(F215.12935643450001
F243.701224086
F0.0
tp707
sI732
(F221.85214882349999
F240.33982789199999
F0.0
tp708
sI733
(F228.5749412115
F243.701224086
F0.0
tp709
sI734
(F215.12935643450001
F253.78541266937501
F0.0
tp710
sI735
(F228.5749412115
F253.78541266937501
F0.0
tp711
sI736
(F221.85214882349999
F257.14680886362498
F0.0
tp712
sI737
(F248.7433183775
F149.582130645625
F0.0
tp713
sI738
(F255.46611076650001
F146.22073445137499
F0.0
tp714
sI739
(F262.1889031545
F149.582130645625
F0.0
tp715
sI740
(F248.7433183775
F159.66631922900001
F0.0
tp716
sI741
(F262.1889031545
F159.66631922900001
F0.0
tp717
sI742
(F255.46611076650001
F163.02771542299999
F0.0
tp718
sI743
(F309.24844987450001
F163.02771542299999
F0.0
tp719
sI744
(F315.97124226350002
F159.66631922900001
F0.0
tp720
sI745
(F295.80286509749999
F163.02771542299999
F0.0
tp721
sI746
(F302.52565748649999
F159.66631922900001
F0.0
tp722
sI747
(F289.08007270949997
F176.473300200625
F0.0
tp723
sI748
(F282.35728032050002
F173.111904006375
F0.0
tp724
sI749
(F275.63448793200001
F176.473300200875
F0.0
tp725
sI750
(F289.08007270949997
F186.55748878337499
F0.0
tp726
sI751
(F282.35728032050002
F189.918884977625
F0.0
tp727
sI752
(F275.63448793200001
F186.557488783125
F0.0
tp728
sI753
(F208.40656404649999
F186.55748878337499
F0.0
tp729
sI754
(F215.12935643450001
F173.111904006375
F0.0
tp730
sI755
(F208.40656404649999
F176.473300200625
F0.0
tp731
sI756
(F208.40656404649999
F132.775149674375
F0.0
tp732
sI757
(F215.12935643450001
F136.13654586862501
F0.0
tp733
sI758
(F208.40656404649999
F203.36446975462499
F0.0
tp734
sI759
(F215.12935643450001
F216.81005453162501
F0.0
tp735
sI760
(F208.40656404649999
F213.44865833737501
F0.0
tp736
sI761
(F248.7433183775
F186.55748878337499
F0.0
tp737
sI762
(F248.7433183775
F176.473300200625
F0.0
tp738
sI763
(F262.1889031545
F186.55748878337499
F0.0
tp739
sI764
(F255.46611076650001
F189.918884977625
F0.0
tp740
sI765
(F262.1889031545
F176.473300200625
F0.0
tp741
sI766
(F255.46611076650001
F173.111904006375
F0.0
tp742
sI767
(F201.68377165749999
F189.918884977625
F0.0
tp743
sI768
(F201.68377165749999
F200.00307356037499
F0.0
tp744
sI769
(F107.5646782175
F200.00307356037499
F0.0
tp745
sI770
(F94.119093440300006
F173.11190400627501
F0.0
tp746
sI771
(F94.119093440300006
F189.91888497772501
F0.0
tp747
sI772
(F73.950716274399994
F240.33982789194999
F0.0
tp748
sI773
(F87.396301051600005
F230.255639308675
F0.0
tp749
sI774
(F114.287470606
F240.33982789174999
F0.0
tp750
sI775
(F114.287470606
F230.255639308875
F0.0
tp751
sI776
(F107.5646782175
F226.894243114375
F0.0
tp752
sI777
(F100.8418858286
F230.25563930857501
F0.0
tp753
sI778
(F168.0698097145
F284.03797841762503
F0.0
tp754
sI779
(F194.96097926900001
F213.44865833712501
F0.0
tp755
sI780
(F188.2381868805
F200.00307356037499
F0.0
tp756
sI781
(F181.51539449149999
F203.36446975462499
F0.0
tp757
sI782
(F194.96097926900001
F203.36446975487499
F0.0
tp758
sI783
(F154.6242249375
F213.44865833737501
F0.0
tp759
sI784
(F154.6242249375
F203.36446975462499
F0.0
tp760
sI785
(F188.2381868805
F226.894243114375
F0.0
tp761
sI786
(F188.2381868805
F216.81005453162501
F0.0
tp762
sI787
(F181.51539449149999
F213.44865833737501
F0.0
tp763
sI788
(F107.5646782175
F243.701224086
F0.0
tp764
sI789
(F100.8418858286
F240.33982789205001
F0.0
tp765
sI790
(F60.505131497249998
F257.14680886364999
F0.0
tp766
sI791
(F67.227923885850004
F253.78541266934999
F0.0
tp767
sI792
(F73.950716274400008
F257.14680886367501
F0.0
tp768
sI793
(F60.505131497249998
F267.23099744634999
F0.0
tp769
sI794
(F67.227923885849989
F270.59239364065002
F0.0
tp770
sI795
(F73.950716274400008
F267.23099744632498
F0.0
tp771
sI796
(F161.34701732600001
F468.91476910312502
F0.0
tp772
sI797
(F13.44558477719
F468.91476910332
F0.0
tp773
sI798
(F13.44558477719
F458.83058052067997
F0.0
tp774
sI799
(F13.44558477719
F415.13242999532002
F0.0
tp775
sI800
(F13.44558477719
F324.374732749055
F0.0
tp776
sI801
(F33.613961942899998
F267.23099744632498
F0.0
tp777
sI802
(F26.89116955435
F270.59239364065002
F0.0
tp778
sI803
(F40.336754331500003
F307.56775177732499
F0.0
tp779
sI804
(F40.336754331500003
F297.48356319467501
F0.0
tp780
sI806
(F13.44558477719
F334.45892133232002
F0.0
tp781
sI807
(F20.168377165750002
F337.82031752665
F0.0
tp782
sI808
(F33.613961942899998
F364.711487080675
F0.0
tp783
sI809
(F181.51539449149999
F418.493826189625
F0.0
tp784
sI810
(F181.51539449149999
F428.57801477237501
F0.0
tp785
sI811
(F114.287470606
F267.230997446125
F0.0
tp786
sI812
(F107.5646782175
F270.592393640625
F0.0
tp787
sI813
(F114.287470606
F257.14680886387498
F0.0
tp788
sI814
(F107.5646782175
F253.78541266937501
F0.0
tp789
sI815
(F141.17864016050001
F337.82031752662499
F0.0
tp790
sI816
(F147.9014325485
F334.45892133237498
F0.0
tp791
sI817
(F154.6242249375
F337.82031752662499
F0.0
tp792
sI818
(F127.7330553835
F294.12216700037499
F0.0
tp793
sI819
(F134.4558477715
F297.48356319462499
F0.0
tp794
sI820
(F141.17864016050001
F294.12216700037499
F0.0
tp795
sI821
(F141.17864016050001
F284.03797841762503
F0.0
tp796
sI822
(F127.7330553835
F284.03797841762503
F0.0
tp797
sI823
(F134.4558477715
F280.67658222337502
F0.0
tp798
sI824
(F87.396301051600005
F310.92914797167498
F0.0
tp799
sI825
(F73.950716274399994
F321.01333655495
F0.0
tp800
sI826
(F100.8418858286
F310.92914797157499
F0.0
tp801
sI827
(F107.5646782175
F307.56775177737501
F0.0
tp802
sI828
(F114.287470606
F310.92914797187501
F0.0
tp803
sI829
(F141.17864016050001
F257.14680886362498
F0.0
tp804
sI830
(F127.7330553835
F257.14680886362498
F0.0
tp805
sI831
(F134.4558477715
F253.78541266937501
F0.0
tp806
sI832
(F141.17864016050001
F267.230997446375
F0.0
tp807
sI833
(F127.7330553835
F267.230997446375
F0.0
tp808
sI834
(F134.4558477715
F270.592393640625
F0.0
tp809
sI835
(F161.34701732600001
F270.592393640875
F0.0
tp810
sI836
(F154.6242249375
F267.230997446375
F0.0
tp811
sI837
(F147.9014325485
F270.592393640625
F0.0
tp812
sI838
(F154.6242249375
F284.03797841762503
F0.0
tp813
sI839
(F161.34701732600001
F280.67658222312502
F0.0
tp814
sI840
(F147.9014325485
F280.67658222337502
F0.0
tp815
sI841
(F275.63448793200001
F455.469184326125
F0.0
tp816
sI842
(F282.35728032050002
F458.83058052062501
F0.0
tp817
sI843
(F289.08007270949997
F455.469184326375
F0.0
tp818
sI844
(F289.08007270949997
F445.38499574362498
F0.0
tp819
sI845
(F309.24844987450001
F442.02359954937498
F0.0
tp820
sI846
(F309.24844987450001
F431.93941096662502
F0.0
tp821
sI847
(F322.69403465200003
F431.93941096687502
F0.0
tp822
sI848
(F315.97124226350002
F428.57801477237501
F0.0
tp823
sI849
(F228.5749412115
F458.83058052062501
F0.0
tp824
sI850
(F215.12935643450001
F468.91476910337502
F0.0
tp825
sI851
(F221.85214882349999
F472.27616529762503
F0.0
tp826
sI852
(F228.5749412115
F468.91476910337502
F0.0
tp827
sI853
(F248.7433183775
F455.469184326375
F0.0
tp828
sI854
(F242.02052598899999
F458.830580520875
F0.0
tp829
sI855
(F235.29773360050001
F455.469184326375
F0.0
tp830
sI856
(F248.7433183775
F445.38499574362498
F0.0
tp831
sI857
(F208.40656404649999
F418.493826189625
F0.0
tp832
sI858
(F242.02052598899999
F442.02359954912498
F0.0
tp833
sI859
(F235.29773360050001
F445.38499574362498
F0.0
tp834
sI860
(F215.12935643450001
F415.13242999537499
F0.0
tp835
sI861
(F221.85214882349999
F418.493826189625
F0.0
tp836
sI862
(F255.46611076650001
F415.13242999537499
F0.0
tp837
sI863
(F255.46611076650001
F405.04824141199998
F0.0
tp838
sI864
(F248.7433183775
F401.68684521799997
F0.0
tp839
sI865
(F329.41682704049998
F472.27616529762503
F0.0
tp840
sI866
(F315.97124226350002
F472.27616529762503
F0.0
tp841
sI867
(F322.69403465200003
F468.91476910312502
F0.0
tp842
sI868
(F322.69403465200003
F415.13242999512499
F0.0
tp843
sI869
(F336.13961942949999
F405.04824141199998
F0.0
tp844
sI870
(F329.41682704049998
F428.57801477237501
F0.0
tp845
sI871
(F329.41682704049998
F418.493826189625
F0.0
tp846
sI872
(F342.8624118175
F418.493826189625
F0.0
tp847
sI873
(F336.13961942949999
F415.13242999537499
F0.0
tp848
sI874
(F309.24844987450001
F388.24126044037502
F0.0
tp849
sI875
(F309.24844987450001
F378.157071857625
F0.0
tp850
sI876
(F302.52565748649999
F391.60265663462502
F0.0
tp851
sI877
(F295.80286509749999
F388.24126044037502
F0.0
tp852
sI878
(F289.08007270949997
F391.60265663462502
F0.0
tp853
sI879
(F342.8624118175
F472.27616529762503
F0.0
tp854
sI880
(F363.03078898349997
F442.02359954937498
F0.0
tp855
sI881
(F356.30799659500002
F445.38499574387498
F0.0
tp856
sI882
(F349.58520420650001
F431.93941096662502
F0.0
tp857
sI883
(F342.8624118175
F428.57801477237501
F0.0
tp858
sI884
(F336.13961942949999
F431.93941096662502
F0.0
tp859
sI885
(F349.58520420650001
F442.02359954937498
F0.0
tp860
sI886
(F336.13961942949999
F442.02359954937498
F0.0
tp861
sI887
(F342.8624118175
F445.38499574362498
F0.0
tp862
sI888
(F396.64475092650002
F374.79567566337499
F0.0
tp863
sI889
(F443.70429764649998
F378.157071857625
F0.0
tp864
sI890
(F443.70429764649998
F388.24126044037502
F0.0
tp865
sI891
(F450.42709003549999
F391.60265663462502
F0.0
tp866
sI892
(F457.1498824235
F388.24126044037502
F0.0
tp867
sI893
(F430.25871286950002
F405.04824141199998
F0.0
tp868
sI894
(F430.25871286950002
F415.13242999537499
F0.0
tp869
sI895
(F423.53592048050001
F391.60265663462502
F0.0
tp870
sI896
(F410.09033570349999
F401.68684521799997
F0.0
tp871
sI897
(F416.81312809249999
F405.04824141199998
F0.0
tp872
sI898
(F423.53592048050001
F401.68684521799997
F0.0
tp873
sI899
(F410.09033570349999
F418.493826189625
F0.0
tp874
sI900
(F416.81312809249999
F415.13242999537499
F0.0
tp875
sI901
(F423.53592048050001
F418.493826189625
F0.0
tp876
sI902
(F423.53592048050001
F428.57801477237501
F0.0
tp877
sI903
(F268.9116955435
F351.26590230362501
F0.0
tp878
sI904
(F275.63448793200001
F347.90450610912501
F0.0
tp879
sI905
(F282.35728032050002
F351.26590230362501
F0.0
tp880
sI906
(F282.35728032050002
F361.35009088637503
F0.0
tp881
sI907
(F275.63448793200001
F364.71148708087497
F0.0
tp882
sI908
(F268.9116955435
F361.35009088637503
F0.0
tp883
sI909
(F342.8624118175
F364.71148708062498
F0.0
tp884
sI910
(F336.13961942949999
F361.35009088637503
F0.0
tp885
sI911
(F201.68377165749999
F270.592393640625
F0.0
tp886
sI912
(F194.96097926900001
F284.03797841787502
F0.0
tp887
sI913
(F201.68377165749999
F280.67658222337502
F0.0
tp888
sI914
(F255.46611076650001
F280.67658222337502
F0.0
tp889
sI915
(F262.1889031545
F267.230997446375
F0.0
tp890
sI916
(F255.46611076650001
F270.592393640625
F0.0
tp891
sI917
(F248.7433183775
F267.230997446375
F0.0
tp892
sI918
(F248.7433183775
F257.14680886362498
F0.0
tp893
sI919
(F262.1889031545
F257.14680886362498
F0.0
tp894
sI920
(F255.46611076650001
F253.78541266937501
F0.0
tp895
sI921
(F221.85214882349999
F294.12216700037499
F0.0
tp896
sI922
(F221.85214882349999
F310.92914797162501
F0.0
tp897
sI923
(F228.5749412115
F280.67658222337502
F0.0
tp898
sI924
(F228.5749412115
F270.592393640625
F0.0
tp899
sI925
(F235.29773360050001
F267.230997446375
F0.0
tp900
sI926
(F242.02052598899999
F270.592393640875
F0.0
tp901
sI927
(F309.24844987450001
F351.26590230362501
F0.0
tp902
sI928
(F309.24844987450001
F361.35009088637503
F0.0
tp903
sI929
(F295.80286509749999
F324.37473274899997
F0.0
tp904
sI930
(F336.13961942949999
F351.26590230362501
F0.0
tp905
sI931
(F342.8624118175
F347.90450610937501
F0.0
tp906
sI932
(F275.63448793200001
F337.82031752687499
F0.0
tp907
sI933
(F282.35728032050002
F334.45892133237498
F0.0
tp908
sI934
(F221.85214882349999
F321.01333655500002
F0.0
tp909
sI935
(F228.5749412115
F324.37473274899997
F0.0
tp910
sI936
(F215.12935643450001
F324.37473274899997
F0.0
tp911
sI937
(F228.5749412115
F334.45892133237498
F0.0
tp912
sI938
(F268.9116955435
F388.24126044037502
F0.0
tp913
sI939
(F275.63448793200001
F391.60265663487502
F0.0
tp914
sI940
(F262.1889031545
F391.60265663462502
F0.0
tp915
sI941
(F275.63448793200001
F401.68684521774998
F0.0
tp916
sI942
(F268.9116955435
F405.04824141199998
F0.0
tp917
sI943
(F262.1889031545
F401.68684521799997
F0.0
tp918
sI944
(F235.29773360050001
F347.90450610937501
F0.0
tp919
sI945
(F242.02052598899999
F334.45892133212499
F0.0
tp920
sI946
(F235.29773360050001
F337.82031752662499
F0.0
tp921
sI947
(F248.7433183775
F337.82031752662499
F0.0
tp922
sI948
(F235.29773360050001
F364.71148708062498
F0.0
tp923
sI949
(F221.85214882349999
F364.71148708062498
F0.0
tp924
sI950
(F228.5749412115
F361.35009088637503
F0.0
tp925
sI951
(F235.29773360050001
F374.79567566337499
F0.0
tp926
sI952
(F255.46611076650001
F361.35009088637503
F0.0
tp927
sI953
(F248.7433183775
F364.71148708062498
F0.0
tp928
sI954
(F242.02052598899999
F361.35009088612497
F0.0
tp929
sI955
(F255.46611076650001
F351.26590230362501
F0.0
tp930
sI956
(F242.02052598899999
F351.26590230387501
F0.0
tp931
sI957
(F248.7433183775
F347.90450610937501
F0.0
tp932
sI958
(F457.1498824235
F243.701224086
F0.0
tp933
sI959
(F470.59546720050002
F243.701224086
F0.0
tp934
sI960
(F463.87267481250001
F240.33982789199999
F0.0
tp935
sI961
(F470.59546720050002
F253.78541266937501
F0.0
tp936
sI962
(F416.81312809249999
F226.894243114375
F0.0
tp937
sI963
(F423.53592048050001
F230.25563930862501
F0.0
tp938
sI964
(F430.25871286950002
F378.157071857625
F0.0
tp939
sI965
(F436.98150525800003
F374.795675663125
F0.0
tp940
sI966
(F423.53592048050001
F374.79567566337499
F0.0
tp941
sI967
(F436.98150525800003
F364.71148708087497
F0.0
tp942
sI968
(F470.59546720050002
F405.04824141199998
F0.0
tp943
sI969
(F463.87267481250001
F401.68684521799997
F0.0
tp944
sI970
(F463.87267481250001
F391.60265663462502
F0.0
tp945
sI971
(F470.59546720050002
F388.24126044037502
F0.0
tp946
sI972
(F450.42709003549999
F374.79567566337499
F0.0
tp947
sI973
(F457.1498824235
F378.157071857625
F0.0
tp948
sI974
(F497.4866367555
F307.56775177737501
F0.0
tp949
sI975
(F504.20942914350002
F310.92914797162501
F0.0
tp950
sI976
(F443.70429764649998
F415.13242999537499
F0.0
tp951
sI977
(F436.98150525800003
F418.49382618987499
F0.0
tp952
sI978
(F436.98150525800003
F428.57801477212502
F0.0
tp953
sI979
(F443.70429764649998
F431.93941096662502
F0.0
tp954
sI980
(F410.09033570349999
F472.27616529762503
F0.0
tp955
sI981
(F416.81312809249999
F431.93941096662502
F0.0
tp956
sI982
(F410.09033570349999
F428.57801477237501
F0.0
tp957
sI983
(F416.81312809249999
F442.02359954937498
F0.0
tp958
sI984
(F410.09033570349999
F445.38499574362498
F0.0
tp959
sI985
(F389.92195853750002
F458.83058052062501
F0.0
tp960
sI986
(F396.64475092650002
F455.469184326375
F0.0
tp961
sI987
(F403.36754331499998
F458.830580520875
F0.0
tp962
sI988
(F396.64475092650002
F472.27616529762503
F0.0
tp963
sI989
(F389.92195853750002
F468.91476910337502
F0.0
tp964
sI990
(F403.36754331499998
F468.91476910312502
F0.0
tp965
sI991
(F557.99176825250004
F428.57801477237501
F0.0
tp966
sI992
(F571.43735302949995
F428.57801477237501
F0.0
tp967
sI993
(F564.71456064100005
F431.93941096687502
F0.0
tp968
sI994
(F557.99176825250004
F418.493826189625
F0.0
tp969
sI995
(F564.71456064100005
F415.13242999512499
F0.0
tp970
sI996
(F571.43735302949995
F418.493826189625
F0.0
tp971
sI997
(F564.71456064100005
F442.02359954912498
F0.0
tp972
sI998
(F557.99176825250004
F445.38499574362498
F0.0
tp973
sI999
(F571.43735302949995
F445.38499574362498
F0.0
tp974
sI1000
(F557.99176825250004
F455.469184326375
F0.0
tp975
sI1001
(F571.43735302949995
F455.46918432637511
F0.0
tp976
sI1002
(F564.71456064100005
F458.830580520875
F0.0
tp977
sI1003
(F544.54618347550002
F428.57801477237501
F0.0
tp978
sI1004
(F544.54618347550002
F418.493826189625
F0.0
tp979
sI1005
(F537.82339108650001
F415.13242999537499
F0.0
tp980
sI1006
(F275.63448793200001
F15.1262828745375
F0.0
tp981
sI1007
(F235.29773360050001
F42.017452428600002
F0.0
tp982
sI1008
(F248.7433183775
F52.101641011599988
F0.0
tp983
sI1009
(F242.02052598899999
F11.764886679842499
F0.0
tp984
sI1010
(F383.1991661495
F15.126282874287501
F0.0
tp985
sI1011
(F376.4763737605
F11.76488668009249
F0.0
tp986
sI1012
(F369.75358137249998
F15.12628287428749
F0.0
tp987
sI1013
(F369.75358137249998
F25.21047145723751
F0.0
tp988
sI1014
(F376.4763737605
F38.656056234399998
F0.0
tp989
sI1015
(F376.4763737605
F28.571867651462501
F0.0
tp990
sI1016
(F389.92195853750002
F38.656056234400012
F0.0
tp991
sI1017
(F383.1991661495
F42.017452428600002
F0.0
tp992
sI1018
(F389.92195853750002
F28.57186765146249
F0.0
tp993
sI1019
(F383.1991661495
F25.210471457237489
F0.0
tp994
sI1020
(F94.119093440300006
F11.7648866799925
F0.0
tp995
sI1021
(F80.673508662999993
F28.571867651512498
F0.0
tp996
sI1022
(F73.950716274400008
F25.210471457187499
F0.0
tp997
sI1023
(F87.396301051600005
F25.210471457187499
F0.0
tp998
sI1024
(F80.673508662999993
F11.764886680042499
F0.0
tp999
sI1025
(F73.950716274399994
F15.1262828743375
F0.0
tp1000
sI1026
(F87.396301051600005
F15.1262828743375
F0.0
tp1001
sI1027
(F127.7330553835
F15.126282874287501
F0.0
tp1002
sI1028
(F174.7926021035
F136.13654586862501
F0.0
tp1003
sI1029
(F181.51539449149999
F132.775149674375
F0.0
tp1004
sI1030
(F194.96097926900001
F122.690961091875
F0.0
tp1005
sI1031
(F242.02052598899999
F82.354206760349996
F0.0
tp1006
sI1032
(F161.34701732600001
F11.764886679842499
F0.0
tp1007
sI1033
(F168.0698097145
F15.126282874287501
F0.0
tp1008
sI1034
(F154.6242249375
F15.126282874287501
F0.0
tp1009
sI1035
(F154.6242249375
F25.210471457237499
F0.0
tp1010
sI1036
(F161.34701732600001
F38.656056234150007
F0.0
tp1011
sI1037
(F174.7926021035
F28.571867651462501
F0.0
tp1012
sI1038
(F161.34701732600001
F28.571867651712491
F0.0
tp1013
sI1039
(F168.0698097145
F25.210471457237499
F0.0
tp1014
sI1040
(F168.0698097145
F52.101641011600002
F0.0
tp1015
sI1041
(F174.7926021035
F55.463037205800013
F0.0
tp1016
sI1042
(F174.7926021035
F38.656056234399998
F0.0
tp1017
sI1043
(F168.0698097145
F42.017452428600002
F0.0
tp1018
sI1044
(F127.7330553835
F68.908621982962501
F0.0
tp1019
sI1045
(F134.4558477715
F65.547225788737506
F0.0
tp1020
sI1046
(F134.4558477715
F55.463037205799999
F0.0
tp1021
sI1047
(F154.6242249375
F68.908621982962501
F0.0
tp1022
sI1048
(F161.34701732600001
F65.547225788487495
F0.0
tp1023
sI1049
(F147.9014325485
F65.547225788737492
F0.0
tp1024
sI1050
(F161.34701732600001
F55.463037206049997
F0.0
tp1025
sI1051
(F154.6242249375
F52.101641011599988
F0.0
tp1026
sI1052
(F147.9014325485
F55.463037205800013
F0.0
tp1027
sI1053
(F201.68377165749999
F55.463037205799999
F0.0
tp1028
sI1054
(F201.68377165749999
F65.547225788737492
F0.0
tp1029
sI1055
(F188.2381868805
F65.547225788737492
F0.0
tp1030
sI1056
(F194.96097926900001
F68.908621983212498
F0.0
tp1031
sI1057
(F242.02052598899999
F65.547225788487495
F0.0
tp1032
sI1058
(F228.5749412115
F55.463037205799999
F0.0
tp1033
sI1059
(F235.29773360050001
F52.101641011600002
F0.0
tp1034
sI1060
(F242.02052598899999
F55.463037206049997
F0.0
tp1035
sI1061
(F33.613961942899998
F159.66631922894999
F0.0
tp1036
sI1062
(F26.89116955435
F163.027715423025
F0.0
tp1037
sI1063
(F20.168377165750002
F159.666319228975
F0.0
tp1038
sI1064
(F20.168377165750002
F149.58213064565001
F0.0
tp1039
sI1065
(F26.89116955435
F173.11190400634999
F0.0
tp1040
sI1066
(F33.613961942899998
F176.473300200675
F0.0
tp1041
sI1067
(F20.168377165750002
F176.47330020064999
F0.0
tp1042
sI1068
(F33.613961942899998
F186.557488783325
F0.0
tp1043
sI1069
(F26.89116955435
F189.91888497765001
F0.0
tp1044
sI1070
(F20.168377165750002
F186.55748878335001
F0.0
tp1045
sI1071
(F60.505131497249998
F230.25563930864999
F0.0
tp1046
sI1072
(F47.059546720100002
F240.33982789194999
F0.0
tp1047
sI1073
(F60.505131497249998
F240.33982789197501
F0.0
tp1048
sI1074
(F53.7823391087
F243.70122408604999
F0.0
tp1049
sI1075
(F40.336754331500003
F216.81005453167501
F0.0
tp1050
sI1076
(F40.336754331500003
F226.89424311432501
F0.0
tp1051
sI1077
(F47.059546720100002
F230.255639308675
F0.0
tp1052
sI1078
(F53.7823391087
F226.89424311432501
F0.0
tp1053
sI1079
(F87.396301051600005
F203.36446975467501
F0.0
tp1054
sI1080
(F87.396301051600005
F213.44865833732501
F0.0
tp1055
sI1081
(F67.227923885849989
F173.11190400634999
F0.0
tp1056
sI1082
(F87.396301051600005
F68.908621983012495
F0.0
tp1057
sI1083
(F94.119093440300006
F65.54722578863749
F0.0
tp1058
sI1084
(F127.7330553835
F95.799791537375
F0.0
tp1059
sI1085
(F114.287470606
F42.01745242885
F0.0
tp1060
sI1086
(F127.7330553835
F52.101641011600002
F0.0
tp1061
sI1087
(F73.950716274399994
F52.101641011550001
F0.0
tp1062
sI1088
(F87.396301051600005
F52.101641011550001
F0.0
tp1063
sI1089
(F80.673508662999993
F55.46303720585
F0.0
tp1064
sI1090
(F80.673508662999993
F38.656056234349997
F0.0
tp1065
sI1091
(F87.396301051600005
F42.017452428650003
F0.0
tp1066
sI1092
(F73.950716274399994
F42.017452428650003
F0.0
tp1067
sI1093
(F26.89116955435
F136.13654586864999
F0.0
tp1068
sI1094
(F33.613961942899998
F149.58213064567499
F0.0
tp1069
sI1095
(F26.89116955435
F146.22073445135001
F0.0
tp1070
sI1096
(F94.119093440300006
F163.02771542310001
F0.0
tp1071
sI1097
(F100.8418858286
F159.66631922905
F0.0
tp1072
sI1099
(F13.44558477719
F65.547225788682496
F0.0
tp1073
sI1100
(F20.168377165750002
F68.908621982987498
F0.0
tp1074
sI1102
(F13.44558477719
F109.24537631468
F0.0
tp1075
sI1103
(F47.059546720100002
F52.101641011550001
F0.0
tp1076
sI1104
(F33.613961942899998
F42.017452428650003
F0.0
tp1077
sI1105
(F40.336754331500003
F38.656056234349997
F0.0
tp1078
sI1106
(F47.059546720100002
F42.017452428650003
F0.0
tp1079
sI1107
(F67.227923885850004
F65.547225788712495
F0.0
tp1080
sI1108
(F67.227923885850004
F55.463037205825003
F0.0
tp1081
sI1109
(F60.505131497249998
F52.101641011574998
F0.0
tp1082
sI1110
(F53.7823391087
F55.46303720585
F0.0
tp1083
sI1111
(F33.613961942899998
F78.992810565850007
F0.0
tp1084
sI1112
(F141.17864016050001
F105.883980120375
F0.0
tp1085
sI1113
(F147.9014325485
F109.24537631462501
F0.0
tp1086
sI1114
(F161.34701732600001
F146.220734451125
F0.0
tp1087
sI1115
(F154.6242249375
F149.582130645625
F0.0
tp1088
sI1116
(F168.0698097145
F149.582130645625
F0.0
tp1089
sI1117
(F174.7926021035
F146.22073445137499
F0.0
tp1090
sI1118
(F181.51539449149999
F149.582130645625
F0.0
tp1091
sI1119
(F396.64475092650002
F105.883980120375
F0.0
tp1092
sI1120
(F403.36754331499998
F109.245376314875
F0.0
tp1093
sI1121
(F389.92195853750002
F109.24537631462501
F0.0
tp1094
sI1122
(F389.92195853750002
F119.32956489737499
F0.0
tp1095
sI1123
(F369.75358137249998
F122.690961091625
F0.0
tp1096
sI1124
(F363.03078898349997
F136.13654586862501
F0.0
tp1097
sI1125
(F369.75358137249998
F132.775149674375
F0.0
tp1098
sI1126
(F376.4763737605
F92.438395343224997
F0.0
tp1099
sI1127
(F369.75358137249998
F95.799791537375
F0.0
tp1100
sI1128
(F363.03078898349997
F92.438395343225011
F0.0
tp1101
sI1129
(F376.4763737605
F82.354206760099999
F0.0
tp1102
sI1130
(F376.4763737605
F65.547225788737492
F0.0
tp1103
sI1131
(F376.4763737605
F55.463037205800013
F0.0
tp1104
sI1132
(F430.25871286950002
F119.32956489737499
F0.0
tp1105
sI1133
(F376.4763737605
F216.81005453162501
F0.0
tp1106
sI1134
(F376.4763737605
F200.00307356037499
F0.0
tp1107
sI1135
(F369.75358137249998
F213.44865833737501
F0.0
tp1108
sI1136
(F363.03078898349997
F216.81005453162501
F0.0
tp1109
sI1137
(F369.75358137249998
F203.36446975462499
F0.0
tp1110
sI1138
(F363.03078898349997
F200.00307356037499
F0.0
tp1111
sI1139
(F342.8624118175
F159.66631922900001
F0.0
tp1112
sI1140
(F356.30799659500002
F149.582130645875
F0.0
tp1113
sI1141
(F363.03078898349997
F189.918884977625
F0.0
tp1114
sI1142
(F389.92195853750002
F163.02771542299999
F0.0
tp1115
sI1143
(F383.1991661495
F159.66631922900001
F0.0
tp1116
sI1144
(F389.92195853750002
F173.111904006375
F0.0
tp1117
sI1146
(F571.43735302949995
F52.101641011600023
F0.0
tp1118
sI1147
(F557.99176825250004
F105.883980120375
F0.0
tp1119
sI1148
(F544.54618347550002
F95.799791537375015
F0.0
tp1120
sI1149
(F551.26897586350003
F82.354206760099999
F0.0
tp1121
sI1150
(F551.26897586350003
F92.438395343224997
F0.0
tp1122
sI1151
(F557.99176825250004
F95.799791537375015
F0.0
tp1123
sI1152
(F524.37780630949999
F55.463037205800013
F0.0
tp1124
sI1153
(F524.37780630949999
F65.547225788737492
F0.0
tp1125
sI1154
(F531.10059869849999
F68.908621982962501
F0.0
tp1126
sI1155
(F537.82339108650001
F65.547225788737492
F0.0
tp1127
sI1156
(F544.54618347550002
F52.101641011599988
F0.0
tp1128
sI1157
(F544.54618347550002
F42.017452428600002
F0.0
tp1129
sI1158
(F537.82339108650001
F55.463037205800013
F0.0
tp1130
sI1159
(F531.10059869849999
F52.101641011599988
F0.0
tp1131
sI1160
(F531.10059869849999
F42.017452428600002
F0.0
tp1132
sI1161
(F537.82339108650001
F38.656056234399998
F0.0
tp1133
sI1162
(F524.37780630949999
F11.76488668009249
F0.0
tp1134
sI1163
(F524.37780630949999
F28.571867651462501
F0.0
tp1135
sI1164
(F510.93222153250002
F38.656056234399998
F0.0
tp1136
sI1165
(F524.37780630949999
F38.656056234399998
F0.0
tp1137
sI1166
(F517.65501392099998
F42.017452428849992
F0.0
tp1138
sI1167
(F510.93222153250002
F11.764886680092509
F0.0
tp1139
sI1168
(F517.65501392099998
F15.126282874537489
F0.0
tp1140
sI1169
(F510.93222153250002
F28.57186765146249
F0.0
tp1141
sI1170
(F517.65501392099998
F25.210471456987509
F0.0
tp1142
sI1171
(F484.04105197799998
F11.764886679842499
F0.0
tp1143
sI1172
(F436.98150525800003
F78.992810565650018
F0.0
tp1144
sI1173
(F430.25871286950002
F82.354206760099999
F0.0
tp1145
sI1174
(F484.04105197799998
F82.354206760349996
F0.0
tp1146
sI1175
(F477.31825958949997
F78.992810565900015
F0.0
tp1147
sI1176
(F443.70429764649998
F92.438395343225011
F0.0
tp1148
sI1177
(F450.42709003549999
F78.992810565899987
F0.0
tp1149
sI1178
(F443.70429764649998
F82.354206760099984
F0.0
tp1150
sI1179
(F443.70429764649998
F109.24537631462501
F0.0
tp1151
sI1180
(F450.42709003549999
F122.690961091625
F0.0
tp1152
sI1181
(F443.70429764649998
F119.32956489737499
F0.0
tp1153
sI1182
(F484.04105197799998
F119.329564897125
F0.0
tp1154
sI1183
(F403.36754331499998
F38.65605623415
F0.0
tp1155
sI1184
(F403.36754331499998
F28.571867651712498
F0.0
tp1156
sI1185
(F410.09033570349999
F25.210471457237489
F0.0
tp1157
sI1186
(F416.81312809249999
F28.571867651462501
F0.0
tp1158
sI1187
(F410.09033570349999
F52.101641011599988
F0.0
tp1159
sI1188
(F423.53592048050001
F52.101641011599988
F0.0
tp1160
sI1189
(F416.81312809249999
F55.463037205800013
F0.0
tp1161
sI1190
(F410.09033570349999
F42.017452428600002
F0.0
tp1162
sI1191
(F423.53592048050001
F42.017452428600002
F0.0
tp1163
sI1192
(F416.81312809249999
F38.656056234399998
F0.0
tp1164
sI1193
(F389.92195853750002
F55.463037205799992
F0.0
tp1165
sI1194
(F403.36754331499998
F55.463037206049997
F0.0
tp1166
sI1195
(F396.64475092650002
F52.101641011600009
F0.0
tp1167
sI1196
(F403.36754331499998
F65.547225788487495
F0.0
tp1168
sI1197
(F389.92195853750002
F65.547225788737506
F0.0
tp1169
sI1198
(F396.64475092650002
F68.908621982962487
F0.0
tp1170
sI1199
(F430.25871286950002
F11.76488668009249
F0.0
tp1171
sI1200
(F423.53592048050001
F15.126282874287501
F0.0
tp1172
sI1201
(F436.98150525800003
F15.126282874537489
F0.0
tp1173
sI1202
(F423.53592048050001
F25.210471457237489
F0.0
tp1174
sI1203
(F436.98150525800003
F25.210471456987509
F0.0
tp1175
sI1204
(F430.25871286950002
F28.571867651462501
F0.0
tp1176
sI1205
(F457.1498824235
F11.76488668009249
F0.0
tp1177
sI1206
(F477.31825958949997
F15.12628287428749
F0.0
tp1178
sI1207
(F470.59546720050002
F11.764886680092509
F0.0
tp1179
sI1208
(F463.87267481250001
F15.126282874287501
F0.0
tp1180
sI1209
(F477.31825958949997
F25.21047145723751
F0.0
tp1181
sI1210
(F463.87267481250001
F42.017452428600002
F0.0
tp1182
sI1211
(F470.59546720050002
F38.656056234400012
F0.0
tp1183
sI1212
(F470.59546720050002
F28.57186765146249
F0.0
tp1184
sI1213
(F463.87267481250001
F25.210471457237489
F0.0
tp1185
sI1214
(F504.20942914350002
F122.690961091625
F0.0
tp1186
sI1215
(F510.93222153250002
F119.32956489737499
F0.0
tp1187
sI1216
(F517.65501392099998
F122.690961091875
F0.0
tp1188
sI1217
(F510.93222153250002
F136.13654586862501
F0.0
tp1189
sI1218
(F504.20942914350002
F132.775149674375
F0.0
tp1190
sI1219
(F517.65501392099998
F132.775149674125
F0.0
tp1191
sI1220
(F537.82339108650001
F136.13654586862501
F0.0
tp1192
sI1221
(F537.82339108650001
F146.22073445137499
F0.0
tp1193
sI1222
(F544.54618347550002
F149.582130645625
F0.0
tp1194
sI1223
(F551.26897586350003
F146.22073445137499
F0.0
tp1195
sI1224
(F551.26897586350003
F109.24537631462501
F0.0
tp1196
sI1225
(F544.54618347550002
F105.883980120375
F0.0
tp1197
sI1226
(F504.20942914350002
F149.582130645625
F0.0
tp1198
sI1227
(F504.20942914350002
F159.66631922900001
F0.0
tp1199
sI1228
(F524.37780630949999
F163.02771542299999
F0.0
tp1200
sI1229
(F531.10059869849999
F159.66631922900001
F0.0
tp1201
sI1230
(F517.65501392099998
F159.66631922875001
F0.0
tp1202
sI1231
(F531.10059869849999
F149.582130645625
F0.0
tp1203
sI1232
(F524.37780630949999
F146.22073445137499
F0.0
tp1204
sI1233
(F517.65501392099998
F149.582130645875
F0.0
tp1205
sI1234
(F557.99176825250004
F122.690961091625
F0.0
tp1206
sI1235
(F551.26897586350003
F119.32956489737499
F0.0
tp1207
sI1236
(F544.54618347550002
F122.690961091625
F0.0
tp1208
sI1237
(F557.99176825250004
F132.775149674375
F0.0
tp1209
sI1238
(F551.26897586350003
F136.13654586862501
F0.0
tp1210
sI1239
(F544.54618347550002
F132.775149674375
F0.0
tp1211
sI1240
(F477.31825958949997
F240.33982789199999
F0.0
tp1212
sI1241
(F484.04105197799998
F243.70122408624999
F0.0
tp1213
sI1242
(F490.7638443665
F240.33982789199999
F0.0
tp1214
sI1243
(F477.31825958949997
F230.25563930862501
F0.0
tp1215
sI1244
(F443.70429764649998
F253.78541266937501
F0.0
tp1216
sI1245
(F436.98150525800003
F257.14680886387498
F0.0
tp1217
sI1246
(F457.1498824235
F307.56775177737501
F0.0
tp1218
sI1247
(F490.7638443665
F321.01333655500002
F0.0
tp1219
sI1248
(F484.04105197799998
F307.56775177712501
F0.0
tp1220
sI1249
(F490.7638443665
F310.92914797162501
F0.0
tp1221
sI1250
(F524.37780630949999
F270.592393640625
F0.0
tp1222
sI1251
(F517.65501392099998
F267.230997446125
F0.0
tp1223
sI1252
(F510.93222153250002
F270.592393640625
F0.0
tp1224
sI1253
(F524.37780630949999
F280.67658222337502
F0.0
tp1225
sI1254
(F443.70429764649998
F146.22073445137499
F0.0
tp1226
sI1255
(F443.70429764649998
F136.13654586862501
F0.0
tp1227
sI1256
(F457.1498824235
F146.22073445137499
F0.0
tp1228
sI1257
(F450.42709003549999
F149.582130645625
F0.0
tp1229
sI1258
(F457.1498824235
F136.13654586862501
F0.0
tp1230
sI1259
(F450.42709003549999
F132.775149674375
F0.0
tp1231
sI1260
(F423.53592048050001
F132.775149674375
F0.0
tp1232
sI1261
(F423.53592048050001
F122.690961091625
F0.0
tp1233
sI1262
(F416.81312809249999
F119.32956489737499
F0.0
tp1234
sI1263
(F423.53592048050001
F159.66631922900001
F0.0
tp1235
sI1264
(F423.53592048050001
F149.582130645625
F0.0
tp1236
sI1265
(F403.36754331499998
F189.918884977875
F0.0
tp1237
sI1266
(F403.36754331499998
F200.00307356012499
F0.0
tp1238
sI1267
(F410.09033570349999
F203.36446975462499
F0.0
tp1239
sI1268
(F416.81312809249999
F200.00307356037499
F0.0
tp1240
sI1269
(F423.53592048050001
F176.473300200625
F0.0
tp1241
sI1270
(F410.09033570349999
F186.55748878337499
F0.0
tp1242
sI1271
(F423.53592048050001
F186.55748878337499
F0.0
tp1243
sI1272
(F416.81312809249999
F189.918884977625
F0.0
tp1244
sI1273
(F443.70429764649998
F189.918884977625
F0.0
tp1245
sI1274
(F450.42709003549999
F186.55748878337499
F0.0
tp1246
sI1275
(F457.1498824235
F189.918884977625
F0.0
tp1247
sI1276
(F443.70429764649998
F200.00307356037499
F0.0
tp1248
sI1277
(F450.42709003549999
F203.36446975462499
F0.0
tp1249
sI1278
(F457.1498824235
F200.00307356037499
F0.0
tp1250
sI1279
(F477.31825958949997
F213.44865833737501
F0.0
tp1251
sI1280
(F510.93222153250002
F216.81005453162501
F0.0
tp1252
sI1281
(F504.20942914350002
F230.25563930862501
F0.0
tp1253
sI1282
(F510.93222153250002
F226.894243114375
F0.0
tp1254
sI1283
(F571.43735302949995
F176.473300200625
F0.0
tp1255
sI1284
(F571.43735302949995
F186.55748878337499
F0.0
tp1256
sI1285
(F564.71456064100005
F189.918884977875
F0.0
tp1257
sI1286
(F490.7638443665
F159.66631922900001
F0.0
tp1258
sI1287
(F497.4866367555
F163.02771542299999
F0.0
tp1259
sI1288
(F470.59546720050002
F189.918884977625
F0.0
tp1260
sI1289
(F477.31825958949997
F186.55748878337499
F0.0
tp1261
sI1290
(F484.04105197799998
F189.918884977875
F0.0
tp1262
sI1291
(F470.59546720050002
F200.00307356037499
F0.0
tp1263
sI1292
(F477.31825958949997
F203.36446975462499
F0.0
tp1264
sI1293
(F484.04105197799998
F200.00307356012499
F0.0
tp1265
sI1294
(F490.7638443665
F186.55748878337499
F0.0
tp1266
sI1295
(F490.7638443665
F176.473300200625
F0.0
tp1267
sI1296
(F504.20942914350002
F176.473300200625
F0.0
tp1268
sI1297
(F497.4866367555
F173.111904006375
F0.0
tp1269
sI1298
(F497.4866367555
F189.918884977625
F0.0
tp1270
sI1299
(F504.20942914350002
F186.55748878337499
F0.0
tp1271
sI1300
(F524.37780630949999
F297.48356319462499
F0.0
tp1272
sI1301
(F524.37780630949999
F307.56775177737501
F0.0
tp1273
sI1302
(F537.82339108650001
F307.56775177737501
F0.0
tp1274
sI1303
(F531.10059869849999
F310.92914797162501
F0.0
tp1275
sI1304
(F544.54618347550002
F294.12216700037499
F0.0
tp1276
sI1305
(F544.54618347550002
F284.03797841762503
F0.0
tp1277
sI1306
(F537.82339108650001
F297.48356319462499
F0.0
tp1278
sI1307
(F531.10059869849999
F294.12216700037499
F0.0
tp1279
sI1308
(F537.82339108650001
F280.67658222337502
F0.0
tp1280
sI1309
(F531.10059869849999
F284.03797841762503
F0.0
tp1281
sI1310
(F510.93222153250002
F334.45892133237498
F0.0
tp1282
sI1311
(F510.93222153250002
F324.37473274899997
F0.0
tp1283
sI1312
(F497.4866367555
F334.45892133237498
F0.0
tp1284
sI1313
(F504.20942914350002
F337.82031752662499
F0.0
tp1285
sI1314
(F504.20942914350002
F321.01333655500002
F0.0
tp1286
sI1315
(F497.4866367555
F324.37473274899997
F0.0
tp1287
sI1316
(F537.82339108650001
F334.45892133237498
F0.0
tp1288
sI1317
(F517.65501392099998
F455.469184326125
F0.0
tp1289
sI1318
(F510.93222153250002
F458.83058052062501
F0.0
tp1290
sI1319
(F524.37780630949999
F458.83058052062501
F0.0
tp1291
sI1320
(F517.65501392099998
F472.27616529787502
F0.0
tp1292
sI1321
(F510.93222153250002
F468.91476910337502
F0.0
tp1293
sI1322
(F524.37780630949999
F468.91476910337502
F0.0
tp1294
sI1323
(F477.31825958949997
F455.469184326375
F0.0
tp1295
sI1324
(F484.04105197799998
F458.830580520875
F0.0
tp1296
sI1325
(F490.7638443665
F455.469184326375
F0.0
tp1297
sI1326
(F477.31825958949997
F445.38499574362498
F0.0
tp1298
sI1327
(F484.04105197799998
F442.02359954912498
F0.0
tp1299
sI1328
(F490.7638443665
F445.38499574362498
F0.0
tp1300
sI1329
(F497.4866367555
F405.04824141199998
F0.0
tp1301
sI1330
(F484.04105197799998
F415.13242999512499
F0.0
tp1302
sI1331
(F470.59546720050002
F415.13242999537499
F0.0
tp1303
sI1332
(F477.31825958949997
F418.493826189625
F0.0
tp1304
sI1333
(F470.59546720050002
F431.93941096662502
F0.0
tp1305
sI1334
(F477.31825958949997
F428.57801477237501
F0.0
tp1306
sI1335
(F517.65501392099998
F294.12216700012499
F0.0
tp1307
sI1336
(F510.93222153250002
F297.48356319462499
F0.0
tp1308
sI1337
(F504.20942914350002
F294.12216700037499
F0.0
tp1309
sI1338
(F504.20942914350002
F284.03797841762503
F0.0
tp1310
sI1339
(F510.93222153250002
F280.67658222337502
F0.0
tp1311
sI1340
(F517.65501392099998
F284.03797841787502
F0.0
tp1312
sI1342
(F571.43735302949995
F347.90450610937501
F0.0
tp1313
sI1343
(F242.02052598899999
F226.894243114125
F0.0
tp1314
sI1344
(F235.29773360050001
F230.25563930862501
F0.0
tp1315
sI1345
(F228.5749412115
F226.894243114375
F0.0
tp1316
sI1346
(F242.02052598899999
F216.81005453187501
F0.0
tp1317
sI1347
(F295.80286509749999
F189.918884977625
F0.0
tp1318
sI1348
(F315.97124226350002
F176.473300200625
F0.0
tp1319
sI1349
(F302.52565748649999
F186.55748878337499
F0.0
tp1320
sI1350
(F302.52565748649999
F176.473300200625
F0.0
tp1321
sI1351
(F309.24844987450001
F173.111904006375
F0.0
tp1322
sI1352
(F329.41682704049998
F176.473300200625
F0.0
tp1323
sI1353
(F336.13961942949999
F173.111904006375
F0.0
tp1324
sI1354
(F322.69403465200003
F173.111904006125
F0.0
tp1325
sI1355
(F336.13961942949999
F163.02771542299999
F0.0
tp1326
sI1356
(F329.41682704049998
F159.66631922900001
F0.0
tp1327
sI1357
(F322.69403465200003
F163.02771542324999
F0.0
tp1328
sI1358
(F275.63448793200001
F149.582130645875
F0.0
tp1329
sI1359
(F282.35728032050002
F163.02771542299999
F0.0
tp1330
sI1360
(F275.63448793200001
F159.66631922875001
F0.0
tp1331
sI1361
(F289.08007270949997
F159.66631922900001
F0.0
tp1332
sI1362
(F215.12935643450001
F189.918884977625
F0.0
tp1333
sI1363
(F215.12935643450001
F200.00307356037499
F0.0
tp1334
sI1364
(F235.29773360050001
F186.55748878337499
F0.0
tp1335
sI1365
(F228.5749412115
F189.918884977625
F0.0
tp1336
sI1366
(F221.85214882349999
F186.55748878337499
F0.0
tp1337
sI1367
(F235.29773360050001
F176.473300200625
F0.0
tp1338
sI1368
(F228.5749412115
F173.111904006375
F0.0
tp1339
sI1369
(F221.85214882349999
F176.473300200625
F0.0
tp1340
sI1370
(F235.29773360050001
F122.690961091625
F0.0
tp1341
sI1371
(F235.29773360050001
F132.775149674375
F0.0
tp1342
sI1372
(F228.5749412115
F136.13654586862501
F0.0
tp1343
sI1373
(F221.85214882349999
F132.775149674375
F0.0
tp1344
sI1374
(F235.29773360050001
F203.36446975462499
F0.0
tp1345
sI1375
(F228.5749412115
F200.00307356037499
F0.0
tp1346
sI1376
(F221.85214882349999
F203.36446975462499
F0.0
tp1347
sI1377
(F235.29773360050001
F213.44865833737501
F0.0
tp1348
sI1378
(F221.85214882349999
F213.44865833737501
F0.0
tp1349
sI1379
(F228.5749412115
F216.81005453162501
F0.0
tp1350
sI1380
(F181.51539449149999
F186.55748878337499
F0.0
tp1351
sI1381
(F188.2381868805
F189.918884977625
F0.0
tp1352
sI1382
(F194.96097926900001
F186.557488783125
F0.0
tp1353
sI1383
(F194.96097926900001
F176.473300200875
F0.0
tp1354
sI1384
(F147.9014325485
F163.02771542299999
F0.0
tp1355
sI1385
(F114.287470606
F203.36446975487499
F0.0
tp1356
sI1386
(F114.287470606
F213.44865833712501
F0.0
tp1357
sI1387
(F121.0102629945
F216.81005453162501
F0.0
tp1358
sI1388
(F67.227923885849989
F226.89424311434999
F0.0
tp1359
sI1389
(F73.950716274399994
F230.255639308675
F0.0
tp1360
sI1390
(F80.673508663000007
F226.89424311432501
F0.0
tp1361
sI1391
(F80.673508663000007
F216.81005453167501
F0.0
tp1362
sI1392
(F147.9014325485
F307.56775177737501
F0.0
tp1363
sI1393
(F154.6242249375
F294.12216700037499
F0.0
tp1364
sI1394
(F147.9014325485
F297.48356319462499
F0.0
tp1365
sI1395
(F181.51539449149999
F230.25563930862501
F0.0
tp1366
sI1396
(F168.0698097145
F240.33982789199999
F0.0
tp1367
sI1397
(F181.51539449149999
F240.33982789199999
F0.0
tp1368
sI1398
(F174.7926021035
F243.701224086
F0.0
tp1369
sI1399
(F80.673508662999993
F253.78541266932501
F0.0
tp1370
sI1400
(F94.119093440300006
F243.70122408610001
F0.0
tp1371
sI1401
(F80.673508662999993
F243.70122408604999
F0.0
tp1372
sI1402
(F87.396301051600005
F240.33982789194999
F0.0
tp1373
sI1403
(F154.6242249375
F472.27616529762503
F0.0
tp1374
sI1404
(F168.0698097145
F455.469184326375
F0.0
tp1375
sI1405
(F161.34701732600001
F458.830580520875
F0.0
tp1376
sI1406
(F73.950716274400008
F418.49382618967502
F0.0
tp1377
sI1407
(F13.44558477719
F431.93941096667999
F0.0
tp1378
sI1408
(F13.44558477719
F442.02359954932001
F0.0
tp1379
sI1409
(F60.505131497249998
F428.57801477235
F0.0
tp1380
sI1410
(F20.168377165750002
F455.46918432634999
F0.0
tp1381
sI1411
(F20.168377165750002
F445.38499574364999
F0.0
tp1382
sI1412
(F26.89116955435
F442.02359954935002
F0.0
tp1383
sI1414
(F13.44558477719
F405.04824141205489
F0.0
tp1384
sI1415
(F20.168377165750002
F418.49382618965001
F0.0
tp1385
sI1416
(F20.168377165750002
F428.57801477235
F0.0
tp1386
sI1417
(F26.89116955435
F431.93941096664997
F0.0
tp1387
sI1418
(F26.89116955435
F334.45892133234997
F0.0
tp1388
sI1419
(F67.227923885850004
F324.37473274902499
F0.0
tp1389
sI1420
(F67.227923885850004
F334.45892133234997
F0.0
tp1390
sI1421
(F60.505131497249998
F337.82031752665
F0.0
tp1391
sI1422
(F20.168377165750002
F284.03797841764998
F0.0
tp1392
sI1423
(F26.89116955435
F280.67658222335001
F0.0
tp1393
sI1424
(F33.613961942899998
F284.03797841767499
F0.0
tp1394
sI1425
(F33.613961942899998
F294.12216700032502
F0.0
tp1395
sI1426
(F47.059546720100002
F267.23099744632498
F0.0
tp1396
sI1427
(F53.7823391087
F270.59239364067503
F0.0
tp1397
sI1428
(F40.336754331500003
F270.59239364067503
F0.0
tp1398
sI1429
(F40.336754331500003
F280.676582223325
F0.0
tp1399
sI1430
(F33.613961942899998
F310.92914797167498
F0.0
tp1400
sI1431
(F20.168377165750002
F321.01333655497501
F0.0
tp1401
sI1432
(F33.613961942899998
F321.01333655495
F0.0
tp1402
sI1433
(F26.89116955435
F324.37473274902499
F0.0
tp1403
sI1434
(F47.059546720100002
F310.92914797167498
F0.0
tp1404
sI1435
(F60.505131497249998
F321.01333655497501
F0.0
tp1405
sI1436
(F47.059546720100002
F294.12216700032502
F0.0
tp1406
sI1437
(F53.7823391087
F280.676582223325
F0.0
tp1407
sI1438
(F47.059546720100002
F284.03797841767499
F0.0
tp1408
sI1439
(F40.336754331500003
F361.35009088632501
F0.0
tp1409
sI1440
(F13.44558477719
F351.26590230367998
F0.0
tp1410
sI1441
(F20.168377165750002
F347.90450610935
F0.0
tp1411
sI1442
(F26.89116955435
F351.26590230365002
F0.0
tp1412
sI1443
(F13.44558477719
F361.35009088632
F0.0
tp1413
sI1444
(F20.168377165750002
F364.71148708064999
F0.0
tp1414
sI1445
(F26.89116955435
F361.35009088635002
F0.0
tp1415
sI1446
(F194.96097926900001
F374.795675663125
F0.0
tp1416
sI1447
(F201.68377165749999
F405.04824141199998
F0.0
tp1417
sI1448
(F188.2381868805
F415.13242999537499
F0.0
tp1418
sI1449
(F194.96097926900001
F418.49382618987499
F0.0
tp1419
sI1450
(F201.68377165749999
F415.13242999537499
F0.0
tp1420
sI1451
(F228.5749412115
F388.24126044037502
F0.0
tp1421
sI1452
(F228.5749412115
F378.157071857625
F0.0
tp1422
sI1453
(F221.85214882349999
F374.79567566337499
F0.0
tp1423
sI1454
(F268.9116955435
F442.02359954937498
F0.0
tp1424
sI1455
(F275.63448793200001
F445.38499574387498
F0.0
tp1425
sI1456
(F282.35728032050002
F442.02359954937498
F0.0
tp1426
sI1457
(F282.35728032050002
F431.93941096662502
F0.0
tp1427
sI1458
(F275.63448793200001
F428.57801477212502
F0.0
tp1428
sI1459
(F268.9116955435
F431.93941096662502
F0.0
tp1429
sI1460
(F329.41682704049998
F445.38499574362498
F0.0
tp1430
sI1461
(F322.69403465200003
F442.02359954912498
F0.0
tp1431
sI1462
(F315.97124226350002
F445.38499574362498
F0.0
tp1432
sI1463
(F329.41682704049998
F455.469184326375
F0.0
tp1433
sI1464
(F322.69403465200003
F458.830580520875
F0.0
tp1434
sI1465
(F315.97124226350002
F455.469184326375
F0.0
tp1435
sI1466
(F221.85214882349999
F455.469184326375
F0.0
tp1436
sI1467
(F208.40656404649999
F455.469184326375
F0.0
tp1437
sI1468
(F215.12935643450001
F458.83058052062501
F0.0
tp1438
sI1469
(F228.5749412115
F431.93941096662502
F0.0
tp1439
sI1470
(F221.85214882349999
F428.57801477237501
F0.0
tp1440
sI1471
(F228.5749412115
F442.02359954937498
F0.0
tp1441
sI1472
(F221.85214882349999
F445.38499574362498
F0.0
tp1442
sI1473
(F248.7433183775
F428.57801477237501
F0.0
tp1443
sI1474
(F242.02052598899999
F431.93941096687502
F0.0
tp1444
sI1475
(F235.29773360050001
F428.57801477237501
F0.0
tp1445
sI1476
(F248.7433183775
F418.493826189625
F0.0
tp1446
sI1477
(F221.85214882349999
F401.68684521799997
F0.0
tp1447
sI1478
(F221.85214882349999
F391.60265663462502
F0.0
tp1448
sI1479
(F208.40656404649999
F401.68684521799997
F0.0
tp1449
sI1480
(F215.12935643450001
F405.04824141199998
F0.0
tp1450
sI1481
(F228.5749412115
F405.04824141199998
F0.0
tp1451
sI1482
(F235.29773360050001
F401.68684521799997
F0.0
tp1452
sI1483
(F242.02052598899999
F405.04824141224998
F0.0
tp1453
sI1484
(F228.5749412115
F415.13242999537499
F0.0
tp1454
sI1485
(F235.29773360050001
F418.493826189625
F0.0
tp1455
sI1486
(F242.02052598899999
F415.13242999512499
F0.0
tp1456
sI1487
(F295.80286509749999
F458.83058052062501
F0.0
tp1457
sI1488
(F302.52565748649999
F455.469184326375
F0.0
tp1458
sI1489
(F309.24844987450001
F458.83058052062501
F0.0
tp1459
sI1490
(F295.80286509749999
F468.91476910337502
F0.0
tp1460
sI1491
(F302.52565748649999
F472.27616529762503
F0.0
tp1461
sI1492
(F309.24844987450001
F468.91476910337502
F0.0
tp1462
sI1493
(F315.97124226350002
F401.68684521799997
F0.0
tp1463
sI1494
(F322.69403465200003
F405.04824141224998
F0.0
tp1464
sI1495
(F329.41682704049998
F401.68684521799997
F0.0
tp1465
sI1496
(F329.41682704049998
F391.60265663462502
F0.0
tp1466
sI1497
(F322.69403465200003
F388.24126044012502
F0.0
tp1467
sI1498
(F315.97124226350002
F391.60265663462502
F0.0
tp1468
sI1499
(F376.4763737605
F351.26590230362501
F0.0
tp1469
sI1500
(F322.69403465200003
F378.157071857875
F0.0
tp1470
sI1501
(F329.41682704049998
F374.79567566337499
F0.0
tp1471
sI1502
(F315.97124226350002
F374.79567566337499
F0.0
tp1472
sI1503
(F329.41682704049998
F364.71148708062498
F0.0
tp1473
sI1504
(F322.69403465200003
F361.35009088612497
F0.0
tp1474
sI1505
(F315.97124226350002
F364.71148708062498
F0.0
tp1475
sI1506
(F309.24844987450001
F405.04824141199998
F0.0
tp1476
sI1507
(F302.52565748649999
F401.68684521799997
F0.0
tp1477
sI1508
(F309.24844987450001
F415.13242999537499
F0.0
tp1478
sI1509
(F302.52565748649999
F418.493826189625
F0.0
tp1479
sI1510
(F356.30799659500002
F472.27616529787502
F0.0
tp1480
sI1511
(F363.03078898349997
F468.91476910337502
F0.0
tp1481
sI1512
(F349.58520420650001
F468.91476910337502
F0.0
tp1482
sI1513
(F349.58520420650001
F458.83058052062501
F0.0
tp1483
sI1514
(F356.30799659500002
F455.469184326125
F0.0
tp1484
sI1515
(F363.03078898349997
F458.83058052062501
F0.0
tp1485
sI1516
(F383.1991661495
F445.38499574362498
F0.0
tp1486
sI1517
(F383.1991661495
F455.469184326375
F0.0
tp1487
sI1518
(F376.4763737605
F442.02359954937498
F0.0
tp1488
sI1519
(F369.75358137249998
F445.38499574362498
F0.0
tp1489
sI1520
(F376.4763737605
F458.83058052062501
F0.0
tp1490
sI1521
(F369.75358137249998
F455.469184326375
F0.0
tp1491
sI1522
(F356.30799659500002
F428.57801477212502
F0.0
tp1492
sI1523
(F363.03078898349997
F431.93941096662502
F0.0
tp1493
sI1524
(F389.92195853750002
F378.157071857625
F0.0
tp1494
sI1525
(F342.8624118175
F401.68684521799997
F0.0
tp1495
sI1526
(F403.36754331499998
F388.24126044012502
F0.0
tp1496
sI1527
(F416.81312809249999
F388.24126044037502
F0.0
tp1497
sI1528
(F410.09033570349999
F391.60265663462502
F0.0
tp1498
sI1529
(F410.09033570349999
F374.79567566337499
F0.0
tp1499
sI1530
(F416.81312809249999
F378.157071857625
F0.0
tp1500
sI1531
(F403.36754331499998
F378.157071857875
F0.0
tp1501
sI1532
(F403.36754331499998
F405.04824141224998
F0.0
tp1502
sI1533
(F396.64475092650002
F418.493826189625
F0.0
tp1503
sI1534
(F403.36754331499998
F415.13242999512499
F0.0
tp1504
sI1535
(F194.96097926900001
F267.230997446125
F0.0
tp1505
sI1536
(F181.51539449149999
F257.14680886362498
F0.0
tp1506
sI1537
(F194.96097926900001
F257.14680886387498
F0.0
tp1507
sI1538
(F188.2381868805
F253.78541266937501
F0.0
tp1508
sI1539
(F188.2381868805
F280.67658222337502
F0.0
tp1509
sI1540
(F181.51539449149999
F284.03797841762503
F0.0
tp1510
sI1541
(F174.7926021035
F280.67658222337502
F0.0
tp1511
sI1542
(F188.2381868805
F270.592393640625
F0.0
tp1512
sI1543
(F174.7926021035
F270.592393640625
F0.0
tp1513
sI1544
(F181.51539449149999
F267.230997446375
F0.0
tp1514
sI1545
(F282.35728032050002
F297.48356319462499
F0.0
tp1515
sI1546
(F235.29773360050001
F310.92914797162501
F0.0
tp1516
sI1547
(F242.02052598899999
F307.56775177712501
F0.0
tp1517
sI1548
(F228.5749412115
F307.56775177737501
F0.0
tp1518
sI1549
(F228.5749412115
F297.48356319462499
F0.0
tp1519
sI1550
(F248.7433183775
F284.03797841762503
F0.0
tp1520
sI1551
(F242.02052598899999
F280.67658222312502
F0.0
tp1521
sI1552
(F235.29773360050001
F284.03797841762503
F0.0
tp1522
sI1553
(F248.7433183775
F294.12216700037499
F0.0
tp1523
sI1554
(F242.02052598899999
F297.48356319487499
F0.0
tp1524
sI1555
(F235.29773360050001
F294.12216700037499
F0.0
tp1525
sI1556
(F302.52565748649999
F337.82031752662499
F0.0
tp1526
sI1557
(F302.52565748649999
F347.90450610937501
F0.0
tp1527
sI1558
(F289.08007270949997
F337.82031752662499
F0.0
tp1528
sI1559
(F295.80286509749999
F334.45892133237498
F0.0
tp1529
sI1560
(F295.80286509749999
F351.26590230362501
F0.0
tp1530
sI1561
(F289.08007270949997
F347.90450610937501
F0.0
tp1531
sI1562
(F309.24844987450001
F334.45892133237498
F0.0
tp1532
sI1563
(F268.9116955435
F334.45892133237498
F0.0
tp1533
sI1564
(F262.1889031545
F337.82031752662499
F0.0
tp1534
sI1565
(F255.46611076650001
F334.45892133237498
F0.0
tp1535
sI1566
(F208.40656404649999
F321.01333655500002
F0.0
tp1536
sI1567
(F403.36754331499998
F226.894243114125
F0.0
tp1537
sI1568
(F410.09033570349999
F230.25563930862501
F0.0
tp1538
sI1569
(F430.25871286950002
F253.78541266937501
F0.0
tp1539
sI1570
(F430.25871286950002
F243.701224086
F0.0
tp1540
sI1571
(F423.53592048050001
F240.33982789199999
F0.0
tp1541
sI1572
(F450.42709003549999
F240.33982789199999
F0.0
tp1542
sI1573
(F443.70429764649998
F243.701224086
F0.0
tp1543
sI1574
(F436.98150525800003
F240.33982789174999
F0.0
tp1544
sI1575
(F443.70429764649998
F226.894243114375
F0.0
tp1545
sI1576
(F450.42709003549999
F230.25563930862501
F0.0
tp1546
sI1577
(F436.98150525800003
F230.255639308875
F0.0
tp1547
sI1578
(F315.97124226350002
F257.14680886362498
F0.0
tp1548
sI1579
(F329.41682704049998
F240.33982789199999
F0.0
tp1549
sI1580
(F322.69403465200003
F243.70122408624999
F0.0
tp1550
sI1581
(F322.69403465200003
F253.78541266912501
F0.0
tp1551
sI1582
(F329.41682704049998
F257.14680886362498
F0.0
tp1552
sI1583
(F490.7638443665
F364.71148708062498
F0.0
tp1553
sI1584
(F490.7638443665
F374.79567566337499
F0.0
tp1554
sI1585
(F497.4866367555
F378.157071857625
F0.0
tp1555
sI1586
(F504.20942914350002
F374.79567566337499
F0.0
tp1556
sI1587
(F504.20942914350002
F364.71148708062498
F0.0
tp1557
sI1588
(F497.4866367555
F361.35009088637503
F0.0
tp1558
sI1589
(F504.20942914350002
F347.90450610937501
F0.0
tp1559
sI1590
(F497.4866367555
F351.26590230362501
F0.0
tp1560
sI1591
(F436.98150525800003
F347.90450610912501
F0.0
tp1561
sI1592
(F450.42709003549999
F321.01333655500002
F0.0
tp1562
sI1593
(F450.42709003549999
F310.92914797162501
F0.0
tp1563
sI1594
(F443.70429764649998
F307.56775177737501
F0.0
tp1564
sI1595
(F396.64475092650002
F364.71148708062498
F0.0
tp1565
sI1596
(F389.92195853750002
F361.35009088637503
F0.0
tp1566
sI1597
(F396.64475092650002
F428.57801477237501
F0.0
tp1567
sI1598
(F389.92195853750002
F431.93941096662502
F0.0
tp1568
sI1599
(F403.36754331499998
F431.93941096687502
F0.0
tp1569
sI1600
(F396.64475092650002
F445.38499574362498
F0.0
tp1570
sI1601
(F389.92195853750002
F442.02359954937498
F0.0
tp1571
sI1602
(F403.36754331499998
F442.02359954912498
F0.0
tp1572
sI1603
(F537.82339108650001
F431.93941096662502
F0.0
tp1573
sI1604
(F524.37780630949999
F442.02359954937498
F0.0
tp1574
sI1605
(F531.10059869849999
F445.38499574362498
F0.0
tp1575
sI1606
(F537.82339108650001
F442.02359954937498
F0.0
tp1576
sI1607
(F268.9116955435
F11.76488668009249
F0.0
tp1577
sI1608
(F262.1889031545
F42.017452428600002
F0.0
tp1578
sI1609
(F289.08007270949997
F42.017452428599988
F0.0
tp1579
sI1610
(F282.35728032050002
F11.764886680092509
F0.0
tp1580
sI1611
(F302.52565748649999
F15.126282874287501
F0.0
tp1581
sI1612
(F289.08007270949997
F25.21047145723751
F0.0
tp1582
sI1613
(F295.80286509749999
F11.76488668009249
F0.0
tp1583
sI1614
(F289.08007270949997
F15.12628287428749
F0.0
tp1584
sI1615
(F268.9116955435
F28.571867651462501
F0.0
tp1585
sI1616
(F282.35728032050002
F28.57186765146249
F0.0
tp1586
sI1617
(F275.63448793200001
F25.210471456987499
F0.0
tp1587
sI1618
(F282.35728032050002
F38.656056234400012
F0.0
tp1588
sI1619
(F268.9116955435
F38.656056234399998
F0.0
tp1589
sI1620
(F275.63448793200001
F42.017452428850007
F0.0
tp1590
sI1621
(F255.46611076650001
F38.656056234399998
F0.0
tp1591
sI1622
(F248.7433183775
F42.017452428600002
F0.0
tp1592
sI1623
(F242.02052598899999
F38.65605623415
F0.0
tp1593
sI1624
(F242.02052598899999
F28.571867651712498
F0.0
tp1594
sI1625
(F235.29773360050001
F15.126282874287501
F0.0
tp1595
sI1626
(F228.5749412115
F11.7648866800925
F0.0
tp1596
sI1627
(F221.85214882349999
F15.126282874287501
F0.0
tp1597
sI1628
(F235.29773360050001
F25.210471457237499
F0.0
tp1598
sI1629
(F221.85214882349999
F25.210471457237499
F0.0
tp1599
sI1630
(F228.5749412115
F28.571867651462501
F0.0
tp1600
sI1631
(F349.58520420650001
F11.76488668009249
F0.0
tp1601
sI1632
(F356.30799659500002
F15.1262828745375
F0.0
tp1602
sI1633
(F363.03078898349997
F11.764886680092509
F0.0
tp1603
sI1634
(F147.9014325485
F11.76488668009249
F0.0
tp1604
sI1635
(F141.17864016050001
F15.126282874287501
F0.0
tp1605
sI1636
(F134.4558477715
F11.764886680092509
F0.0
tp1606
sI1637
(F147.9014325485
F28.571867651462501
F0.0
tp1607
sI1638
(F141.17864016050001
F25.210471457237499
F0.0
tp1608
sI1639
(F147.9014325485
F38.656056234399998
F0.0
tp1609
sI1640
(F141.17864016050001
F42.017452428600002
F0.0
tp1610
sI1641
(F161.34701732600001
F119.329564897125
F0.0
tp1611
sI1642
(F168.0698097145
F122.690961091625
F0.0
tp1612
sI1643
(F168.0698097145
F132.775149674375
F0.0
tp1613
sI1644
(F161.34701732600001
F136.136545868875
F0.0
tp1614
sI1645
(F188.2381868805
F119.32956489737499
F0.0
tp1615
sI1646
(F174.7926021035
F119.32956489737499
F0.0
tp1616
sI1647
(F181.51539449149999
F122.690961091625
F0.0
tp1617
sI1648
(F188.2381868805
F109.24537631462501
F0.0
tp1618
sI1649
(F208.40656404649999
F122.690961091625
F0.0
tp1619
sI1650
(F201.68377165749999
F119.32956489737499
F0.0
tp1620
sI1651
(F168.0698097145
F78.992810565900001
F0.0
tp1621
sI1652
(F168.0698097145
F68.908621982962501
F0.0
tp1622
sI1653
(F174.7926021035
F65.547225788737492
F0.0
tp1623
sI1654
(F181.51539449149999
F68.908621982962501
F0.0
tp1624
sI1655
(F235.29773360050001
F78.992810565900001
F0.0
tp1625
sI1656
(F235.29773360050001
F68.908621982962501
F0.0
tp1626
sI1657
(F228.5749412115
F65.547225788737492
F0.0
tp1627
sI1658
(F242.02052598899999
F109.245376314875
F0.0
tp1628
sI1659
(F248.7433183775
F105.883980120375
F0.0
tp1629
sI1660
(F248.7433183775
F95.799791537375015
F0.0
tp1630
sI1661
(F242.02052598899999
F92.438395342974999
F0.0
tp1631
sI1662
(F121.0102629945
F65.547225788737492
F0.0
tp1632
sI1663
(F107.5646782175
F55.463037205799999
F0.0
tp1633
sI1664
(F114.287470606
F52.101641011349997
F0.0
tp1634
sI1665
(F121.0102629945
F55.463037205800013
F0.0
tp1635
sI1666
(F181.51539449149999
F52.101641011600002
F0.0
tp1636
sI1667
(F188.2381868805
F55.463037205799999
F0.0
tp1637
sI1668
(F194.96097926900001
F52.101641011349997
F0.0
tp1638
sI1669
(F194.96097926900001
F42.01745242885
F0.0
tp1639
sI1670
(F188.2381868805
F38.656056234399998
F0.0
tp1640
sI1671
(F181.51539449149999
F42.017452428600002
F0.0
tp1641
sI1672
(F60.505131497249998
F159.666319228975
F0.0
tp1642
sI1673
(F67.227923885849989
F163.027715423025
F0.0
tp1643
sI1674
(F40.336754331500003
F163.02771542305001
F0.0
tp1644
sI1675
(F47.059546720100002
F159.66631922894999
F0.0
tp1645
sI1676
(F53.7823391087
F163.02771542305001
F0.0
tp1646
sI1677
(F40.336754331500003
F173.11190400632501
F0.0
tp1647
sI1678
(F87.396301051600005
F176.473300200675
F0.0
tp1648
sI1679
(F80.673508662999993
F173.11190400632501
F0.0
tp1649
sI1680
(F73.950716274400008
F176.473300200675
F0.0
tp1650
sI1681
(F87.396301051600005
F186.557488783325
F0.0
tp1651
sI1682
(F121.0102629945
F92.438395343225011
F0.0
tp1652
sI1683
(F121.0102629945
F82.354206760099999
F0.0
tp1653
sI1684
(F33.613961942899998
F132.77514967432501
F0.0
tp1654
sI1685
(F47.059546720100002
F149.58213064567499
F0.0
tp1655
sI1686
(F40.336754331500003
F146.220734451325
F0.0
tp1656
sI1687
(F47.059546720100002
F132.77514967432501
F0.0
tp1657
sI1688
(F40.336754331500003
F136.136545868675
F0.0
tp1658
sI1689
(F87.396301051600005
F78.992810565850007
F0.0
tp1659
sI1690
(F94.119093440300006
F82.3542067602
F0.0
tp1660
sI1691
(F26.89116955435
F82.354206760124995
F0.0
tp1661
sI1692
(F20.168377165750002
F78.992810565875004
F0.0
tp1662
sI1693
(F13.44558477719
F82.354206760154995
F0.0
tp1663
sI1694
(F13.44558477719
F92.438395343170001
F0.0
tp1664
sI1695
(F26.89116955435
F55.463037205825003
F0.0
tp1665
sI1696
(F33.613961942899998
F52.101641011550001
F0.0
tp1666
sI1697
(F40.336754331500003
F55.46303720585
F0.0
tp1667
sI1698
(F26.89116955435
F65.547225788712495
F0.0
tp1668
sI1699
(F33.613961942899998
F68.908621983012495
F0.0
tp1669
sI1700
(F40.336754331500003
F65.547225788687498
F0.0
tp1670
sI1701
(F40.336754331500003
F82.354206760149992
F0.0
tp1671
sI1702
(F40.336754331500003
F92.438395343175003
F0.0
tp1672
sI1703
(F127.7330553835
F105.883980120375
F0.0
tp1673
sI1704
(F134.4558477715
F109.24537631462501
F0.0
tp1674
sI1705
(F147.9014325485
F146.22073445137499
F0.0
tp1675
sI1706
(F188.2381868805
F163.02771542299999
F0.0
tp1676
sI1707
(F181.51539449149999
F159.66631922900001
F0.0
tp1677
sI1708
(F188.2381868805
F173.111904006375
F0.0
tp1678
sI1709
(F181.51539449149999
F176.473300200625
F0.0
tp1679
sI1710
(F255.46611076650001
F82.354206760099999
F0.0
tp1680
sI1711
(F255.46611076650001
F92.438395343225011
F0.0
tp1681
sI1712
(F289.08007270949997
F52.101641011600009
F0.0
tp1682
sI1713
(F262.1889031545
F105.883980120375
F0.0
tp1683
sI1714
(F262.1889031545
F95.799791537375
F0.0
tp1684
sI1715
(F268.9116955435
F92.438395343224997
F0.0
tp1685
sI1716
(F322.69403465200003
F11.76488667984251
F0.0
tp1686
sI1717
(F315.97124226350002
F15.126282874287501
F0.0
tp1687
sI1718
(F477.31825958949997
F149.582130645625
F0.0
tp1688
sI1719
(F463.87267481250001
F159.66631922900001
F0.0
tp1689
sI1720
(F463.87267481250001
F149.582130645625
F0.0
tp1690
sI1721
(F470.59546720050002
F146.22073445137499
F0.0
tp1691
sI1722
(F410.09033570349999
F105.883980120375
F0.0
tp1692
sI1723
(F416.81312809249999
F109.24537631462501
F0.0
tp1693
sI1724
(F410.09033570349999
F95.799791537375015
F0.0
tp1694
sI1725
(F416.81312809249999
F92.438395343224997
F0.0
tp1695
sI1726
(F329.41682704049998
F230.25563930862501
F0.0
tp1696
sI1727
(F342.8624118175
F176.473300200625
F0.0
tp1697
sI1728
(F356.30799659500002
F186.557488783125
F0.0
tp1698
sI1729
(F342.8624118175
F186.55748878337499
F0.0
tp1699
sI1730
(F349.58520420650001
F189.918884977625
F0.0
tp1700
sI1731
(F356.30799659500002
F159.66631922875001
F0.0
tp1701
sI1732
(F349.58520420650001
F163.02771542299999
F0.0
tp1702
sI1733
(F349.58520420650001
F173.111904006375
F0.0
tp1703
sI1734
(F356.30799659500002
F176.473300200875
F0.0
tp1704
sI1735
(F383.1991661495
F176.473300200625
F0.0
tp1705
sI1736
(F383.1991661495
F186.55748878337499
F0.0
tp1706
sI1737
(F376.4763737605
F189.918884977625
F0.0
tp1707
sI1738
(F369.75358137249998
F186.55748878337499
F0.0
tp1708
sI1739
(F551.26897586350003
F65.547225788737492
F0.0
tp1709
sI1740
(F551.26897586350003
F55.463037205800013
F0.0
tp1710
sI1741
(F557.99176825250004
F52.101641011599988
F0.0
tp1711
sI1742
(F564.71456064100005
F55.463037206049997
F0.0
tp1712
sI1743
(F557.99176825250004
F78.992810565900001
F0.0
tp1713
sI1744
(F571.43735302949995
F68.908621982962472
F0.0
tp1714
sI1745
(F557.99176825250004
F68.908621982962501
F0.0
tp1715
sI1746
(F564.71456064100005
F65.547225788487495
F0.0
tp1716
sI1748
(F571.43735302949995
F78.992810565900029
F0.0
tp1717
sI1749
(F564.71456064100005
F82.354206760349996
F0.0
tp1718
sI1750
(F571.43735302949995
F95.799791537374986
F0.0
tp1719
sI1751
(F564.71456064100005
F92.438395342974999
F0.0
tp1720
sI1752
(F497.4866367555
F11.76488668009249
F0.0
tp1721
sI1753
(F504.20942914350002
F15.126282874287501
F0.0
tp1722
sI1754
(F490.7638443665
F15.126282874287501
F0.0
tp1723
sI1755
(F490.7638443665
F25.210471457237489
F0.0
tp1724
sI1756
(F497.4866367555
F28.571867651462501
F0.0
tp1725
sI1757
(F504.20942914350002
F25.210471457237499
F0.0
tp1726
sI1758
(F463.87267481250001
F78.992810565899987
F0.0
tp1727
sI1759
(F470.59546720050002
F82.354206760099984
F0.0
tp1728
sI1760
(F457.1498824235
F82.354206760099999
F0.0
tp1729
sI1761
(F470.59546720050002
F92.438395343225011
F0.0
tp1730
sI1762
(F477.31825958949997
F122.690961091625
F0.0
tp1731
sI1763
(F477.31825958949997
F132.775149674375
F0.0
tp1732
sI1764
(F463.87267481250001
F132.775149674375
F0.0
tp1733
sI1765
(F470.59546720050002
F136.13654586862501
F0.0
tp1734
sI1766
(F457.1498824235
F119.32956489737499
F0.0
tp1735
sI1767
(F463.87267481250001
F122.690961091625
F0.0
tp1736
sI1768
(F470.59546720050002
F119.32956489737499
F0.0
tp1737
sI1769
(F470.59546720050002
F109.24537631462501
F0.0
tp1738
sI1770
(F490.7638443665
F105.883980120375
F0.0
tp1739
sI1771
(F484.04105197799998
F109.245376314875
F0.0
tp1740
sI1772
(F477.31825958949997
F105.883980120375
F0.0
tp1741
sI1773
(F490.7638443665
F95.799791537375015
F0.0
tp1742
sI1774
(F484.04105197799998
F92.438395342974999
F0.0
tp1743
sI1775
(F477.31825958949997
F95.799791537375
F0.0
tp1744
sI1776
(F450.42709003549999
F42.017452428600002
F0.0
tp1745
sI1777
(F457.1498824235
F38.656056234399998
F0.0
tp1746
sI1778
(F443.70429764649998
F38.656056234400012
F0.0
tp1747
sI1779
(F443.70429764649998
F28.57186765146249
F0.0
tp1748
sI1780
(F450.42709003549999
F25.210471457237489
F0.0
tp1749
sI1781
(F457.1498824235
F28.571867651462501
F0.0
tp1750
sI1782
(F531.10059869849999
F105.883980120375
F0.0
tp1751
sI1783
(F537.82339108650001
F109.24537631462501
F0.0
tp1752
sI1784
(F524.37780630949999
F109.24537631462501
F0.0
tp1753
sI1785
(F524.37780630949999
F119.32956489737499
F0.0
tp1754
sI1786
(F531.10059869849999
F122.690961091625
F0.0
tp1755
sI1787
(F537.82339108650001
F119.32956489737499
F0.0
tp1756
sI1788
(F484.04105197799998
F146.220734451125
F0.0
tp1757
sI1789
(F497.4866367555
F146.22073445137499
F0.0
tp1758
sI1790
(F490.7638443665
F149.582130645625
F0.0
tp1759
sI1791
(F497.4866367555
F136.13654586862501
F0.0
tp1760
sI1792
(F490.7638443665
F132.775149674375
F0.0
tp1761
sI1793
(F484.04105197799998
F136.136545868875
F0.0
tp1762
sI1794
(F436.98150525800003
F267.230997446125
F0.0
tp1763
sI1795
(F463.87267481250001
F267.230997446375
F0.0
tp1764
sI1796
(F463.87267481250001
F257.14680886362498
F0.0
tp1765
sI1797
(F457.1498824235
F253.78541266937501
F0.0
tp1766
sI1798
(F450.42709003549999
F257.14680886362498
F0.0
tp1767
sI1799
(F484.04105197799998
F324.37473274924997
F0.0
tp1768
sI1800
(F396.64475092650002
F132.775149674375
F0.0
tp1769
sI1801
(F403.36754331499998
F119.329564897125
F0.0
tp1770
sI1802
(F396.64475092650002
F122.690961091625
F0.0
tp1771
sI1803
(F410.09033570349999
F122.690961091625
F0.0
tp1772
sI1804
(F416.81312809249999
F163.02771542299999
F0.0
tp1773
sI1805
(F403.36754331499998
F173.111904006125
F0.0
tp1774
sI1806
(F416.81312809249999
F173.111904006375
F0.0
tp1775
sI1807
(F410.09033570349999
F176.473300200625
F0.0
tp1776
sI1808
(F416.81312809249999
F146.22073445137499
F0.0
tp1777
sI1809
(F416.81312809249999
F136.13654586862501
F0.0
tp1778
sI1810
(F403.36754331499998
F136.136545868875
F0.0
tp1779
sI1811
(F410.09033570349999
F132.775149674375
F0.0
tp1780
sI1812
(F490.7638443665
F203.36446975462499
F0.0
tp1781
sI1813
(F504.20942914350002
F203.36446975462499
F0.0
tp1782
sI1814
(F497.4866367555
F200.00307356037499
F0.0
tp1783
sI1815
(F504.20942914350002
F213.44865833737501
F0.0
tp1784
sI1816
(F564.71456064100005
F173.111904006125
F0.0
tp1785
sI1817
(F557.99176825250004
F159.66631922900001
F0.0
tp1786
sI1818
(F551.26897586350003
F163.02771542299999
F0.0
tp1787
sI1819
(F564.71456064100005
F163.02771542324999
F0.0
tp1788
sI1820
(F517.65501392099998
F203.36446975487499
F0.0
tp1789
sI1821
(F524.37780630949999
F200.00307356037499
F0.0
tp1790
sI1822
(F510.93222153250002
F200.00307356037499
F0.0
tp1791
sI1823
(F524.37780630949999
F189.918884977625
F0.0
tp1792
sI1824
(F517.65501392099998
F186.557488783125
F0.0
tp1793
sI1825
(F510.93222153250002
F189.918884977625
F0.0
tp1794
sI1826
(F517.65501392099998
F337.82031752687499
F0.0
tp1795
sI1827
(F524.37780630949999
F334.45892133237498
F0.0
tp1796
sI1828
(F531.10059869849999
F337.82031752662499
F0.0
tp1797
sI1829
(F531.10059869849999
F347.90450610937501
F0.0
tp1798
sI1830
(F537.82339108650001
F388.24126044037502
F0.0
tp1799
sI1831
(F564.71456064100005
F351.26590230387501
F0.0
tp1800
sI1832
(F564.71456064100005
F405.04824141224998
F0.0
tp1801
sI1833
(F571.43735302949995
F401.68684521799997
F0.0
tp1802
sI1834
(F490.7638443665
F418.493826189625
F0.0
tp1803
sI1835
(F490.7638443665
F428.57801477237501
F0.0
tp1804
sI1836
(F504.20942914350002
F418.493826189625
F0.0
tp1805
sI1837
(F497.4866367555
F415.13242999537499
F0.0
tp1806
sI1838
(F504.20942914350002
F428.57801477237501
F0.0
tp1807
sI1839
(F497.4866367555
F431.93941096662502
F0.0
tp1808
sI1840
(F477.31825958949997
F401.68684521799997
F0.0
tp1809
sI1841
(F484.04105197799998
F405.04824141224998
F0.0
tp1810
sI1842
(F490.7638443665
F401.68684521799997
F0.0
tp1811
sI1843
(F484.04105197799998
F388.24126044012502
F0.0
tp1812
sI1844
(F490.7638443665
F391.60265663462502
F0.0
tp1813
sI1845
(F477.31825958949997
F391.60265663462502
F0.0
tp1814
sI1846
(F463.87267481250001
F418.493826189625
F0.0
tp1815
sI1847
(F457.1498824235
F415.13242999537499
F0.0
tp1816
sI1848
(F450.42709003549999
F418.493826189625
F0.0
tp1817
sI1849
(F463.87267481250001
F428.57801477237501
F0.0
tp1818
sI1850
(F457.1498824235
F431.93941096662502
F0.0
tp1819
sI1851
(F450.42709003549999
F428.57801477237501
F0.0
tp1820
sI1853
(F571.43735302950006
F391.60265663462502
F0.0
tp1821
sI1854
(F564.71456064100005
F388.24126044012502
F0.0
tp1822
sI1855
(F544.54618347550002
F337.82031752662499
F0.0
tp1823
sI1856
(F557.99176825250004
F347.90450610937501
F0.0
tp1824
sI1857
(F551.26897586350003
F324.37473274899997
F0.0
tp1825
sI1858
(F551.26897586350003
F334.45892133237498
F0.0
tp1826
sI1859
(F557.99176825250004
F337.82031752662499
F0.0
tp1827
sI1860
(F289.08007270949997
F203.36446975462499
F0.0
tp1828
sI1861
(F295.80286509749999
F200.00307356037499
F0.0
tp1829
sI1862
(F289.08007270949997
F213.44865833737501
F0.0
tp1830
sI1863
(F121.0102629945
F200.00307356037499
F0.0
tp1831
sI1864
(F141.17864016050001
F159.66631922900001
F0.0
tp1832
sI1865
(F134.4558477715
F146.22073445137499
F0.0
tp1833
sI1866
(F141.17864016050001
F149.582130645625
F0.0
tp1834
sI1867
(F141.17864016050001
F213.44865833737501
F0.0
tp1835
sI1868
(F134.4558477715
F216.81005453162501
F0.0
tp1836
sI1869
(F127.7330553835
F213.44865833737501
F0.0
tp1837
sI1870
(F127.7330553835
F203.36446975462499
F0.0
tp1838
sI1871
(F154.6242249375
F186.55748878337499
F0.0
tp1839
sI1872
(F154.6242249375
F176.473300200625
F0.0
tp1840
sI1873
(F147.9014325485
F173.111904006375
F0.0
tp1841
sI1874
(F174.7926021035
F189.918884977625
F0.0
tp1842
sI1875
(F168.0698097145
F186.55748878337499
F0.0
tp1843
sI1876
(F161.34701732600001
F189.918884977875
F0.0
tp1844
sI1877
(F174.7926021035
F200.00307356037499
F0.0
tp1845
sI1878
(F168.0698097145
F203.36446975462499
F0.0
tp1846
sI1879
(F161.34701732600001
F200.00307356012499
F0.0
tp1847
sI1880
(F161.34701732600001
F226.894243114125
F0.0
tp1848
sI1881
(F168.0698097145
F230.25563930862501
F0.0
tp1849
sI1882
(F174.7926021035
F226.894243114375
F0.0
tp1850
sI1883
(F168.0698097145
F213.44865833737501
F0.0
tp1851
sI1884
(F161.34701732600001
F216.81005453187501
F0.0
tp1852
sI1885
(F174.7926021035
F216.81005453162501
F0.0
tp1853
sI1886
(F87.396301051600005
F257.14680886367501
F0.0
tp1854
sI1887
(F87.396301051600005
F267.23099744632498
F0.0
tp1855
sI1888
(F100.8418858286
F257.14680886357502
F0.0
tp1856
sI1889
(F94.119093440300006
F253.78541266927499
F0.0
tp1857
sI1890
(F94.119093440300006
F270.59239364072499
F0.0
tp1858
sI1891
(F100.8418858286
F267.23099744642502
F0.0
tp1859
sI1892
(F147.9014325485
F468.91476910337502
F0.0
tp1860
sI1893
(F154.6242249375
F455.469184326375
F0.0
tp1861
sI1894
(F141.17864016050001
F455.469184326375
F0.0
tp1862
sI1895
(F147.9014325485
F458.83058052062501
F0.0
tp1863
sI1896
(F174.7926021035
F442.02359954937498
F0.0
tp1864
sI1897
(F168.0698097145
F445.38499574362498
F0.0
tp1865
sI1898
(F174.7926021035
F431.93941096662502
F0.0
tp1866
sI1899
(F127.7330553835
F337.82031752662499
F0.0
tp1867
sI1900
(F67.227923885850004
F415.13242999534998
F0.0
tp1868
sI1901
(F53.7823391087
F415.13242999532503
F0.0
tp1869
sI1902
(F60.505131497249998
F418.49382618965001
F0.0
tp1870
sI1903
(F20.168377165750002
F472.27616529764998
F0.0
tp1871
sI1904
(F53.7823391087
F431.93941096667498
F0.0
tp1872
sI1905
(F154.6242249375
F347.90450610937501
F0.0
tp1873
sI1906
(F161.34701732600001
F351.26590230387501
F0.0
tp1874
sI1907
(F194.96097926900001
F391.60265663487502
F0.0
tp1875
sI1908
(F181.51539449149999
F401.68684521799997
F0.0
tp1876
sI1909
(F188.2381868805
F405.04824141199998
F0.0
tp1877
sI1910
(F194.96097926900001
F401.68684521774998
F0.0
tp1878
sI1911
(F107.5646782175
F442.02359954937498
F0.0
tp1879
sI1912
(F80.673508663000007
F415.13242999532503
F0.0
tp1880
sI1913
(F121.0102629945
F415.13242999537499
F0.0
tp1881
sI1914
(F107.5646782175
F405.04824141199998
F0.0
tp1882
sI1915
(F94.119093440300006
F431.93941096672501
F0.0
tp1883
sI1916
(F87.396301051600005
F428.57801477232499
F0.0
tp1884
sI1917
(F87.396301051600005
F418.49382618967502
F0.0
tp1885
sI1918
(F94.119093440300006
F415.132429995275
F0.0
tp1886
sI1919
(F13.44558477719
F388.24126044031999
F0.0
tp1887
sI1920
(F13.44558477719
F378.15707185768002
F0.0
tp1888
sI1921
(F20.168377165750002
F374.79567566334998
F0.0
tp1889
sI1922
(F26.89116955435
F415.13242999534998
F0.0
tp1890
sI1923
(F13.44558477719
F307.56775177731998
F0.0
tp1891
sI1924
(F20.168377165750002
F310.92914797165002
F0.0
tp1892
sI1925
(F26.89116955435
F307.56775177735
F0.0
tp1893
sI1926
(F13.44558477719
F297.48356319468002
F0.0
tp1894
sI1927
(F20.168377165750002
F294.12216700034998
F0.0
tp1895
sI1928
(F26.89116955435
F297.48356319465
F0.0
tp1896
sI1929
(F40.336754331500003
F324.37473274905
F0.0
tp1897
sI1930
(F47.059546720100002
F321.01333655495
F0.0
tp1898
sI1931
(F53.7823391087
F324.37473274905
F0.0
tp1899
sI1932
(F53.7823391087
F334.45892133232502
F0.0
tp1900
sI1933
(F53.7823391087
F297.48356319467501
F0.0
tp1901
sI1934
(F60.505131497249998
F310.92914797165002
F0.0
tp1902
sI1935
(F53.7823391087
F307.56775177732499
F0.0
tp1903
sI1936
(F47.059546720100002
F364.711487080675
F0.0
tp1904
sI1937
(F53.7823391087
F351.26590230367498
F0.0
tp1905
sI1938
(F60.505131497249998
F347.90450610935
F0.0
tp1906
sI1939
(F53.7823391087
F361.35009088632501
F0.0
tp1907
sI1940
(F33.613961942899998
F347.90450610932498
F0.0
tp1908
sI1941
(F47.059546720100002
F347.90450610932498
F0.0
tp1909
sI1942
(F40.336754331500003
F351.26590230367498
F0.0
tp1910
sI1943
(F33.613961942899998
F337.82031752667501
F0.0
tp1911
sI1944
(F47.059546720100002
F337.82031752667501
F0.0
tp1912
sI1945
(F40.336754331500003
F334.45892133232502
F0.0
tp1913
sI1946
(F201.68377165749999
F388.24126044037502
F0.0
tp1914
sI1947
(F201.68377165749999
F378.157071857625
F0.0
tp1915
sI1948
(F208.40656404649999
F391.60265663462502
F0.0
tp1916
sI1949
(F215.12935643450001
F388.24126044037502
F0.0
tp1917
sI1950
(F208.40656404649999
F374.79567566337499
F0.0
tp1918
sI1951
(F215.12935643450001
F378.157071857625
F0.0
tp1919
sI1952
(F201.68377165749999
F431.93941096662502
F0.0
tp1920
sI1953
(F208.40656404649999
F428.57801477237501
F0.0
tp1921
sI1954
(F215.12935643450001
F431.93941096662502
F0.0
tp1922
sI1955
(F201.68377165749999
F442.02359954937498
F0.0
tp1923
sI1956
(F208.40656404649999
F445.38499574362498
F0.0
tp1924
sI1957
(F215.12935643450001
F442.02359954937498
F0.0
tp1925
sI1958
(F369.75358137249998
F347.90450610937501
F0.0
tp1926
sI1959
(F356.30799659500002
F337.82031752687499
F0.0
tp1927
sI1960
(F289.08007270949997
F418.493826189625
F0.0
tp1928
sI1961
(F295.80286509749999
F415.13242999537499
F0.0
tp1929
sI1962
(F282.35728032050002
F415.13242999537499
F0.0
tp1930
sI1963
(F282.35728032050002
F405.04824141199998
F0.0
tp1931
sI1964
(F289.08007270949997
F401.68684521799997
F0.0
tp1932
sI1965
(F295.80286509749999
F405.04824141199998
F0.0
tp1933
sI1966
(F349.58520420650001
F415.13242999537499
F0.0
tp1934
sI1967
(F356.30799659500002
F418.49382618987499
F0.0
tp1935
sI1968
(F356.30799659500002
F401.68684521774998
F0.0
tp1936
sI1969
(F349.58520420650001
F405.04824141199998
F0.0
tp1937
sI1970
(F389.92195853750002
F415.13242999537499
F0.0
tp1938
sI1971
(F396.64475092650002
F391.60265663462502
F0.0
tp1939
sI1972
(F389.92195853750002
F388.24126044037502
F0.0
tp1940
sI1973
(F396.64475092650002
F401.68684521799997
F0.0
tp1941
sI1974
(F389.92195853750002
F405.04824141199998
F0.0
tp1942
sI1975
(F383.1991661495
F374.79567566337499
F0.0
tp1943
sI1976
(F383.1991661495
F364.71148708062498
F0.0
tp1944
sI1977
(F369.75358137249998
F364.71148708062498
F0.0
tp1945
sI1978
(F376.4763737605
F361.35009088637503
F0.0
tp1946
sI1979
(F369.75358137249998
F374.79567566337499
F0.0
tp1947
sI1980
(F376.4763737605
F378.157071857625
F0.0
tp1948
sI1981
(F275.63448793200001
F294.12216700012499
F0.0
tp1949
sI1982
(F275.63448793200001
F284.03797841787502
F0.0
tp1950
sI1983
(F268.9116955435
F280.67658222337502
F0.0
tp1951
sI1984
(F262.1889031545
F284.03797841762503
F0.0
tp1952
sI1985
(F289.08007270949997
F310.92914797162501
F0.0
tp1953
sI1986
(F282.35728032050002
F307.56775177737501
F0.0
tp1954
sI1987
(F289.08007270949997
F321.01333655500002
F0.0
tp1955
sI1988
(F282.35728032050002
F324.37473274899997
F0.0
tp1956
sI1989
(F315.97124226350002
F337.82031752662499
F0.0
tp1957
sI1990
(F322.69403465200003
F351.26590230387501
F0.0
tp1958
sI1991
(F315.97124226350002
F347.90450610937501
F0.0
tp1959
sI1992
(F329.41682704049998
F347.90450610937501
F0.0
tp1960
sI1993
(F302.52565748649999
F310.92914797162501
F0.0
tp1961
sI1994
(F302.52565748649999
F321.01333655500002
F0.0
tp1962
sI1995
(F309.24844987450001
F324.37473274899997
F0.0
tp1963
sI1996
(F188.2381868805
F361.35009088637503
F0.0
tp1964
sI1997
(F194.96097926900001
F364.71148708087497
F0.0
tp1965
sI1998
(F221.85214882349999
F347.90450610937501
F0.0
tp1966
sI1999
(F221.85214882349999
F337.82031752662499
F0.0
tp1967
sI2000
(F215.12935643450001
F334.45892133237498
F0.0
tp1968
sI2001
(F208.40656404649999
F337.82031752662499
F0.0
tp1969
sI2002
(F208.40656404649999
F294.12216700037499
F0.0
tp1970
sI2003
(F215.12935643450001
F297.48356319462499
F0.0
tp1971
sI2004
(F215.12935643450001
F307.56775177737501
F0.0
tp1972
sI2005
(F208.40656404649999
F310.92914797162501
F0.0
tp1973
sI2006
(F181.51539449149999
F294.12216700037499
F0.0
tp1974
sI2007
(F403.36754331499998
F243.70122408624999
F0.0
tp1975
sI2008
(F410.09033570349999
F240.33982789199999
F0.0
tp1976
sI2009
(F416.81312809249999
F243.701224086
F0.0
tp1977
sI2010
(F363.03078898349997
F324.37473274899997
F0.0
tp1978
sI2011
(F369.75358137249998
F337.82031752662499
F0.0
tp1979
sI2012
(F363.03078898349997
F334.45892133237498
F0.0
tp1980
sI2013
(F342.8624118175
F337.82031752662499
F0.0
tp1981
sI2014
(F349.58520420650001
F334.45892133237498
F0.0
tp1982
sI2015
(F309.24844987450001
F270.592393640625
F0.0
tp1983
sI2016
(F315.97124226350002
F267.230997446375
F0.0
tp1984
sI2017
(F396.64475092650002
F240.33982789199999
F0.0
tp1985
sI2018
(F389.92195853750002
F226.894243114375
F0.0
tp1986
sI2019
(F396.64475092650002
F230.25563930862501
F0.0
tp1987
sI2020
(F450.42709003549999
F337.82031752662499
F0.0
tp1988
sI2021
(F457.1498824235
F334.45892133237498
F0.0
tp1989
sI2022
(F443.70429764649998
F351.26590230362501
F0.0
tp1990
sI2023
(F443.70429764649998
F361.35009088637503
F0.0
tp1991
sI2024
(F450.42709003549999
F347.90450610937501
F0.0
tp1992
sI2025
(F457.1498824235
F351.26590230362501
F0.0
tp1993
sI2026
(F450.42709003549999
F364.71148708062498
F0.0
tp1994
sI2027
(F457.1498824235
F361.35009088637503
F0.0
tp1995
sI2028
(F484.04105197799998
F361.35009088612497
F0.0
tp1996
sI2029
(F430.25871286950002
F351.26590230362501
F0.0
tp1997
sI2030
(F430.25871286950002
F361.35009088637503
F0.0
tp1998
sI2031
(F423.53592048050001
F364.71148708062498
F0.0
tp1999
sI2032
(F443.70429764649998
F324.37473274899997
F0.0
tp2000
sI2033
(F443.70429764649998
F334.45892133237498
F0.0
tp2001
sI2034
(F436.98150525800003
F337.82031752687499
F0.0
tp2002
sI2035
(F430.25871286950002
F334.45892133237498
F0.0
tp2003
sI2036
(F436.98150525800003
F310.92914797187501
F0.0
tp2004
sI2037
(F430.25871286950002
F324.37473274899997
F0.0
tp2005
sI2038
(F436.98150525800003
F321.01333655475003
F0.0
tp2006
sI2039
(F517.65501392099998
F428.57801477212502
F0.0
tp2007
sI2040
(F524.37780630949999
F431.93941096662502
F0.0
tp2008
sI2041
(F531.10059869849999
F428.57801477237501
F0.0
tp2009
sI2042
(F524.37780630949999
F415.13242999537499
F0.0
tp2010
sI2043
(F517.65501392099998
F418.49382618987499
F0.0
tp2011
sI2044
(F531.10059869849999
F418.493826189625
F0.0
tp2012
sI2045
(F275.63448793200001
F52.101641011349997
F0.0
tp2013
sI2046
(F282.35728032050002
F55.463037205799992
F0.0
tp2014
sI2047
(F248.7433183775
F25.210471457237489
F0.0
tp2015
sI2048
(F248.7433183775
F15.126282874287501
F0.0
tp2016
sI2049
(F262.1889031545
F25.210471457237499
F0.0
tp2017
sI2050
(F255.46611076650001
F28.571867651462501
F0.0
tp2018
sI2051
(F255.46611076650001
F11.7648866800925
F0.0
tp2019
sI2052
(F262.1889031545
F15.126282874287501
F0.0
tp2020
sI2053
(F121.0102629945
F38.656056234399998
F0.0
tp2021
sI2054
(F121.0102629945
F28.571867651462501
F0.0
tp2022
sI2055
(F127.7330553835
F42.017452428600002
F0.0
tp2023
sI2056
(F134.4558477715
F38.656056234399998
F0.0
tp2024
sI2057
(F127.7330553835
F25.210471457237499
F0.0
tp2025
sI2058
(F134.4558477715
F28.57186765146249
F0.0
tp2026
sI2059
(F147.9014325485
F119.32956489737499
F0.0
tp2027
sI2060
(F154.6242249375
F122.690961091625
F0.0
tp2028
sI2061
(F154.6242249375
F132.775149674375
F0.0
tp2029
sI2062
(F147.9014325485
F136.13654586862501
F0.0
tp2030
sI2063
(F168.0698097145
F95.799791537375
F0.0
tp2031
sI2064
(F168.0698097145
F105.883980120375
F0.0
tp2032
sI2065
(F174.7926021035
F109.24537631462501
F0.0
tp2033
sI2066
(F181.51539449149999
F105.883980120375
F0.0
tp2034
sI2067
(F174.7926021035
F82.354206760099999
F0.0
tp2035
sI2068
(F181.51539449149999
F78.992810565900001
F0.0
tp2036
sI2069
(F174.7926021035
F92.438395343224997
F0.0
tp2037
sI2070
(F181.51539449149999
F95.799791537375
F0.0
tp2038
sI2071
(F215.12935643450001
F119.32956489737499
F0.0
tp2039
sI2072
(F228.5749412115
F119.32956489737499
F0.0
tp2040
sI2073
(F221.85214882349999
F122.690961091625
F0.0
tp2041
sI2074
(F194.96097926900001
F105.883980120125
F0.0
tp2042
sI2075
(F201.68377165749999
F109.24537631462501
F0.0
tp2043
sI2076
(F100.8418858286
F68.908621982912493
F0.0
tp2044
sI2077
(F107.5646782175
F65.547225788737492
F0.0
tp2045
sI2078
(F114.287470606
F68.908621983212498
F0.0
tp2046
sI2079
(F114.287470606
F78.992810565650004
F0.0
tp2047
sI2080
(F100.8418858286
F78.992810565950009
F0.0
tp2048
sI2081
(F107.5646782175
F82.354206760099999
F0.0
tp2049
sI2082
(F80.673508662999993
F163.02771542305001
F0.0
tp2050
sI2083
(F87.396301051600005
F159.66631922894999
F0.0
tp2051
sI2084
(F73.950716274399994
F159.66631922894999
F0.0
tp2052
sI2085
(F73.950716274400008
F149.58213064567499
F0.0
tp2053
sI2086
(F60.505131497249998
F176.47330020064999
F0.0
tp2054
sI2087
(F47.059546720100002
F176.473300200675
F0.0
tp2055
sI2088
(F53.7823391087
F173.11190400632501
F0.0
tp2056
sI2089
(F60.505131497249998
F186.55748878335001
F0.0
tp2057
sI2090
(F67.227923885850004
F216.81005453165
F0.0
tp2058
sI2091
(F73.950716274400008
F213.44865833732501
F0.0
tp2059
sI2092
(F40.336754331500003
F200.00307356032499
F0.0
tp2060
sI2093
(F40.336754331500003
F189.91888497767499
F0.0
tp2061
sI2094
(F47.059546720100002
F186.557488783325
F0.0
tp2062
sI2095
(F53.7823391087
F189.91888497767499
F0.0
tp2063
sI2096
(F107.5646782175
F92.438395343225011
F0.0
tp2064
sI2097
(F114.287470606
F95.799791537625012
F0.0
tp2065
sI2098
(F26.89116955435
F119.32956489735
F0.0
tp2066
sI2099
(F33.613961942899998
F122.69096109167501
F0.0
tp2067
sI2100
(F53.7823391087
F136.136545868675
F0.0
tp2068
sI2101
(F60.505131497249998
F149.58213064565001
F0.0
tp2069
sI2102
(F67.227923885850004
F146.22073445135001
F0.0
tp2070
sI2103
(F53.7823391087
F146.220734451325
F0.0
tp2071
sI2104
(F53.7823391087
F92.438395343175003
F0.0
tp2072
sI2105
(F47.059546720100002
F95.799791537425008
F0.0
tp2073
sI2106
(F33.613961942899998
F95.799791537425008
F0.0
tp2074
sI2107
(F26.89116955435
F92.438395343200014
F0.0
tp2075
sI2108
(F20.168377165750002
F95.799791537400012
F0.0
tp2076
sI2109
(F20.168377165750002
F105.88398012035
F0.0
tp2077
sI2110
(F26.89116955435
F109.24537631465
F0.0
tp2078
sI2111
(F33.613961942899998
F105.88398012032501
F0.0
tp2079
sI2112
(F60.505131497249998
F78.992810565875004
F0.0
tp2080
sI2113
(F53.7823391087
F82.354206760149992
F0.0
tp2081
sI2114
(F47.059546720100002
F78.992810565850007
F0.0
tp2082
sI2115
(F47.059546720100002
F68.908621983012495
F0.0
tp2083
sI2116
(F60.505131497249998
F68.908621982987498
F0.0
tp2084
sI2117
(F53.7823391087
F65.547225788687498
F0.0
tp2085
sI2118
(F127.7330553835
F132.775149674375
F0.0
tp2086
sI2119
(F134.4558477715
F136.13654586862501
F0.0
tp2087
sI2120
(F141.17864016050001
F132.775149674375
F0.0
tp2088
sI2121
(F141.17864016050001
F122.690961091625
F0.0
tp2089
sI2122
(F134.4558477715
F119.32956489737499
F0.0
tp2090
sI2123
(F127.7330553835
F122.690961091625
F0.0
tp2091
sI2124
(F168.0698097145
F176.473300200625
F0.0
tp2092
sI2125
(F161.34701732600001
F173.111904006125
F0.0
tp2093
sI2126
(F174.7926021035
F173.111904006375
F0.0
tp2094
sI2127
(F161.34701732600001
F163.02771542324999
F0.0
tp2095
sI2128
(F168.0698097145
F159.66631922900001
F0.0
tp2096
sI2129
(F174.7926021035
F163.02771542299999
F0.0
tp2097
sI2130
(F282.35728032050002
F92.438395343225011
F0.0
tp2098
sI2131
(F275.63448793200001
F95.799791537625012
F0.0
tp2099
sI2132
(F282.35728032050002
F119.32956489737499
F0.0
tp2100
sI2133
(F268.9116955435
F109.24537631462501
F0.0
tp2101
sI2134
(F282.35728032050002
F109.24537631462501
F0.0
tp2102
sI2135
(F275.63448793200001
F105.883980120125
F0.0
tp2103
sI2136
(F356.30799659500002
F95.799791537625012
F0.0
tp2104
sI2137
(F329.41682704049998
F15.12628287428749
F0.0
tp2105
sI2138
(F336.13961942949999
F11.76488668009249
F0.0
tp2106
sI2139
(F342.8624118175
F15.126282874287501
F0.0
tp2107
sI2140
(F329.41682704049998
F25.21047145723751
F0.0
tp2108
sI2141
(F356.30799659500002
F25.210471456987499
F0.0
tp2109
sI2142
(F363.03078898349997
F28.57186765146249
F0.0
tp2110
sI2143
(F336.13961942949999
F55.463037205800013
F0.0
tp2111
sI2144
(F342.8624118175
F52.101641011599988
F0.0
tp2112
sI2145
(F336.13961942949999
F65.547225788737492
F0.0
tp2113
sI2146
(F342.8624118175
F68.908621982962501
F0.0
tp2114
sI2147
(F369.75358137249998
F68.908621982962487
F0.0
tp2115
sI2148
(F363.03078898349997
F82.354206760099984
F0.0
tp2116
sI2149
(F369.75358137249998
F78.992810565900015
F0.0
tp2117
sI2150
(F356.30799659500002
F78.992810565650004
F0.0
tp2118
sI2151
(F484.04105197799998
F163.02771542324999
F0.0
tp2119
sI2152
(F470.59546720050002
F163.02771542299999
F0.0
tp2120
sI2153
(F477.31825958949997
F159.66631922900001
F0.0
tp2121
sI2154
(F477.31825958949997
F176.473300200625
F0.0
tp2122
sI2155
(F470.59546720050002
F173.111904006375
F0.0
tp2123
sI2156
(F484.04105197799998
F173.111904006125
F0.0
tp2124
sI2157
(F430.25871286950002
F92.438395343224997
F0.0
tp2125
sI2158
(F436.98150525800003
F95.799791537624998
F0.0
tp2126
sI2159
(F423.53592048050001
F95.799791537375015
F0.0
tp2127
sI2160
(F436.98150525800003
F105.883980120125
F0.0
tp2128
sI2161
(F430.25871286950002
F109.24537631462501
F0.0
tp2129
sI2162
(F423.53592048050001
F105.883980120375
F0.0
tp2130
sI2163
(F329.41682704049998
F186.55748878337499
F0.0
tp2131
sI2164
(F336.13961942949999
F189.918884977625
F0.0
tp2132
sI2165
(F336.13961942949999
F200.00307356037499
F0.0
tp2133
sI2166
(F349.58520420650001
F200.00307356037499
F0.0
tp2134
sI2167
(F356.30799659500002
F203.36446975487499
F0.0
tp2135
sI2168
(F342.8624118175
F203.36446975462499
F0.0
tp2136
sI2169
(F356.30799659500002
F213.44865833712501
F0.0
tp2137
sI2170
(F315.97124226350002
F230.25563930862501
F0.0
tp2138
sI2171
(F322.69403465200003
F226.894243114125
F0.0
tp2139
sI2172
(F363.03078898349997
F163.02771542299999
F0.0
tp2140
sI2173
(F369.75358137249998
F159.66631922900001
F0.0
tp2141
sI2174
(F376.4763737605
F163.02771542299999
F0.0
tp2142
sI2175
(F363.03078898349997
F173.111904006375
F0.0
tp2143
sI2176
(F369.75358137249998
F176.473300200625
F0.0
tp2144
sI2177
(F376.4763737605
F173.111904006375
F0.0
tp2145
sI2178
(F463.87267481250001
F95.799791537375015
F0.0
tp2146
sI2179
(F463.87267481250001
F105.883980120375
F0.0
tp2147
sI2180
(F450.42709003549999
F95.799791537375015
F0.0
tp2148
sI2181
(F457.1498824235
F92.438395343224997
F0.0
tp2149
sI2182
(F450.42709003549999
F105.883980120375
F0.0
tp2150
sI2183
(F457.1498824235
F109.24537631462501
F0.0
tp2151
sI2184
(F423.53592048050001
F257.14680886362498
F0.0
tp2152
sI2185
(F416.81312809249999
F253.78541266937501
F0.0
tp2153
sI2186
(F443.70429764649998
F297.48356319462499
F0.0
tp2154
sI2187
(F443.70429764649998
F270.592393640625
F0.0
tp2155
sI2188
(F457.1498824235
F270.592393640625
F0.0
tp2156
sI2189
(F450.42709003549999
F267.230997446375
F0.0
tp2157
sI2190
(F443.70429764649998
F280.67658222337502
F0.0
tp2158
sI2191
(F463.87267481250001
F321.01333655500002
F0.0
tp2159
sI2192
(F470.59546720050002
F324.37473274899997
F0.0
tp2160
sI2193
(F477.31825958949997
F321.01333655500002
F0.0
tp2161
sI2194
(F477.31825958949997
F310.92914797162501
F0.0
tp2162
sI2195
(F463.87267481250001
F310.92914797162501
F0.0
tp2163
sI2196
(F470.59546720050002
F307.56775177737501
F0.0
tp2164
sI2197
(F396.64475092650002
F159.66631922900001
F0.0
tp2165
sI2198
(F403.36754331499998
F163.02771542324999
F0.0
tp2166
sI2199
(F410.09033570349999
F159.66631922900001
F0.0
tp2167
sI2200
(F396.64475092650002
F149.582130645625
F0.0
tp2168
sI2201
(F403.36754331499998
F146.220734451125
F0.0
tp2169
sI2202
(F410.09033570349999
F149.582130645625
F0.0
tp2170
sI2203
(F484.04105197799998
F216.81005453187501
F0.0
tp2171
sI2204
(F490.7638443665
F213.44865833737501
F0.0
tp2172
sI2205
(F497.4866367555
F216.81005453162501
F0.0
tp2173
sI2206
(F484.04105197799998
F226.894243114125
F0.0
tp2174
sI2207
(F490.7638443665
F230.25563930862501
F0.0
tp2175
sI2208
(F497.4866367555
F226.894243114375
F0.0
tp2176
sI2209
(F544.54618347550002
F176.473300200625
F0.0
tp2177
sI2210
(F551.26897586350003
F173.111904006375
F0.0
tp2178
sI2211
(F557.99176825250004
F176.473300200625
F0.0
tp2179
sI2212
(F557.99176825250004
F186.55748878337499
F0.0
tp2180
sI2213
(F551.26897586350003
F189.918884977625
F0.0
tp2181
sI2214
(F544.54618347550002
F186.55748878337499
F0.0
tp2182
sI2215
(F510.93222153250002
F351.26590230362501
F0.0
tp2183
sI2216
(F517.65501392099998
F347.90450610912501
F0.0
tp2184
sI2217
(F524.37780630949999
F351.26590230362501
F0.0
tp2185
sI2218
(F524.37780630949999
F361.35009088637503
F0.0
tp2186
sI2219
(F517.65501392099998
F364.71148708087497
F0.0
tp2187
sI2220
(F510.93222153250002
F361.35009088637503
F0.0
tp2188
sI2221
(F571.43735302949995
F364.71148708062498
F0.0
tp2189
sI2222
(F564.71456064100005
F361.35009088612497
F0.0
tp2190
sI2223
(F564.71456064100005
F378.157071857875
F0.0
tp2191
sI2224
(F571.43735302949995
F374.79567566337511
F0.0
tp2192
sI2225
(F531.10059869849999
F364.71148708062498
F0.0
tp2193
sI2226
(F531.10059869849999
F374.79567566337499
F0.0
tp2194
sI2227
(F537.82339108650001
F378.157071857625
F0.0
tp2195
sI2228
(F557.99176825250004
F401.68684521799997
F0.0
tp2196
sI2229
(F551.26897586350003
F405.04824141199998
F0.0
tp2197
sI2230
(F544.54618347550002
F401.68684521799997
F0.0
tp2198
sI2231
(F557.99176825250004
F391.60265663462502
F0.0
tp2199
sI2232
(F544.54618347550002
F391.60265663462502
F0.0
tp2200
sI2233
(F551.26897586350003
F388.24126044037502
F0.0
tp2201
sI2234
(F557.99176825250004
F321.01333655500002
F0.0
tp2202
sI2235
(F564.71456064100005
F307.56775177712501
F0.0
tp2203
sI2236
(F571.43735302949995
F310.92914797162501
F0.0
tp2204
sI2237
(F557.99176825250004
F310.92914797162501
F0.0
tp2205
sI2239
(F571.43735302949995
F321.01333655500002
F0.0
tp2206
sI2240
(F564.71456064100005
F324.37473274924997
F0.0
tp2207
sI2241
(F571.43735302950006
F337.82031752662499
F0.0
tp2208
sI2242
(F564.71456064100005
F334.45892133212499
F0.0
tp2209
sI2243
(F121.0102629945
F189.918884977625
F0.0
tp2210
sI2244
(F127.7330553835
F149.582130645625
F0.0
tp2211
sI2245
(F147.9014325485
F189.918884977625
F0.0
tp2212
sI2246
(F134.4558477715
F200.00307356037499
F0.0
tp2213
sI2247
(F147.9014325485
F200.00307356037499
F0.0
tp2214
sI2248
(F141.17864016050001
F203.36446975462499
F0.0
tp2215
sI2249
(F134.4558477715
F458.83058052062501
F0.0
tp2216
sI2250
(F141.17864016050001
F445.38499574362498
F0.0
tp2217
sI2251
(F80.673508663000007
F431.93941096667498
F0.0
tp2218
sI2252
(F67.227923885849989
F431.93941096664997
F0.0
tp2219
sI2253
(F73.950716274400008
F428.57801477232499
F0.0
tp2220
sI2254
(F80.673508662999993
F442.02359954932501
F0.0
tp2221
sI2255
(F87.396301051600005
F455.46918432632498
F0.0
tp2222
sI2256
(F87.396301051600005
F445.38499574367501
F0.0
tp2223
sI2257
(F100.8418858286
F445.38499574357502
F0.0
tp2224
sI2258
(F94.119093440300006
F442.02359954927499
F0.0
tp2225
sI2259
(F114.287470606
F364.71148708087497
F0.0
tp2226
sI2260
(F127.7330553835
F374.79567566337499
F0.0
tp2227
sI2261
(F127.7330553835
F347.90450610937501
F0.0
tp2228
sI2262
(F121.0102629945
F351.26590230362501
F0.0
tp2229
sI2263
(F121.0102629945
F361.35009088637503
F0.0
tp2230
sI2264
(F127.7330553835
F364.71148708062498
F0.0
tp2231
sI2265
(F114.287470606
F347.90450610912501
F0.0
tp2232
sI2266
(F73.950716274400008
F337.82031752667501
F0.0
tp2233
sI2267
(F87.396301051600005
F364.711487080675
F0.0
tp2234
sI2268
(F67.227923885850004
F405.04824141202499
F0.0
tp2235
sI2269
(F67.227923885850004
F388.24126044035
F0.0
tp2236
sI2270
(F67.227923885850004
F442.02359954935002
F0.0
tp2237
sI2271
(F73.950716274399994
F445.38499574367501
F0.0
tp2238
sI2272
(F174.7926021035
F361.35009088637503
F0.0
tp2239
sI2273
(F181.51539449149999
F364.71148708062498
F0.0
tp2240
sI2274
(F188.2381868805
F378.157071857625
F0.0
tp2241
sI2275
(F188.2381868805
F388.24126044037502
F0.0
tp2242
sI2276
(F181.51539449149999
F374.79567566337499
F0.0
tp2243
sI2277
(F174.7926021035
F378.157071857625
F0.0
tp2244
sI2278
(F181.51539449149999
F391.60265663462502
F0.0
tp2245
sI2279
(F174.7926021035
F388.24126044037502
F0.0
tp2246
sI2280
(F168.0698097145
F428.57801477237501
F0.0
tp2247
sI2281
(F121.0102629945
F405.04824141199998
F0.0
tp2248
sI2282
(F114.287470606
F401.68684521774998
F0.0
tp2249
sI2283
(F121.0102629945
F378.157071857625
F0.0
tp2250
sI2284
(F114.287470606
F374.795675663125
F0.0
tp2251
sI2285
(F121.0102629945
F388.24126044037502
F0.0
tp2252
sI2286
(F114.287470606
F391.60265663487502
F0.0
tp2253
sI2287
(F80.673508663000007
F378.15707185767502
F0.0
tp2254
sI2288
(F87.396301051600005
F374.79567566332503
F0.0
tp2255
sI2289
(F107.5646782175
F431.93941096662502
F0.0
tp2256
sI2290
(F100.8418858286
F428.57801477242498
F0.0
tp2257
sI2291
(F114.287470606
F428.57801477212502
F0.0
tp2258
sI2292
(F114.287470606
F418.49382618987499
F0.0
tp2259
sI2293
(F107.5646782175
F415.13242999537499
F0.0
tp2260
sI2294
(F100.8418858286
F418.49382618957497
F0.0
tp2261
sI2295
(F33.613961942899998
F374.79567566332503
F0.0
tp2262
sI2296
(F26.89116955435
F378.15707185765001
F0.0
tp2263
sI2297
(F47.059546720100002
F418.49382618967502
F0.0
tp2264
sI2298
(F40.336754331500003
F415.13242999532503
F0.0
tp2265
sI2299
(F33.613961942899998
F418.49382618967502
F0.0
tp2266
sI2300
(F33.613961942899998
F428.57801477232499
F0.0
tp2267
sI2301
(F40.336754331500003
F431.93941096667498
F0.0
tp2268
sI2302
(F47.059546720100002
F428.57801477232499
F0.0
tp2269
sI2303
(F60.505131497249998
F294.12216700034998
F0.0
tp2270
sI2304
(F73.950716274399994
F284.03797841767499
F0.0
tp2271
sI2305
(F67.227923885850004
F280.67658222335001
F0.0
tp2272
sI2306
(F60.505131497249998
F284.03797841764998
F0.0
tp2273
sI2307
(F60.505131497249998
F364.71148708064999
F0.0
tp2274
sI2308
(F67.227923885849989
F378.15707185765001
F0.0
tp2275
sI2309
(F73.950716274400008
F374.79567566332503
F0.0
tp2276
sI2310
(F60.505131497249998
F374.79567566334998
F0.0
tp2277
sI2311
(F349.58520420650001
F351.26590230362501
F0.0
tp2278
sI2312
(F356.30799659500002
F347.90450610912501
F0.0
tp2279
sI2313
(F363.03078898349997
F351.26590230362501
F0.0
tp2280
sI2314
(F349.58520420650001
F361.35009088637503
F0.0
tp2281
sI2315
(F356.30799659500002
F364.71148708087497
F0.0
tp2282
sI2316
(F363.03078898349997
F361.35009088637503
F0.0
tp2283
sI2317
(F383.1991661495
F418.493826189625
F0.0
tp2284
sI2318
(F383.1991661495
F428.57801477237501
F0.0
tp2285
sI2319
(F376.4763737605
F431.93941096662502
F0.0
tp2286
sI2320
(F369.75358137249998
F428.57801477237501
F0.0
tp2287
sI2321
(F363.03078898349997
F405.04824141199998
F0.0
tp2288
sI2322
(F363.03078898349997
F415.13242999537499
F0.0
tp2289
sI2323
(F369.75358137249998
F418.493826189625
F0.0
tp2290
sI2324
(F376.4763737605
F415.13242999537499
F0.0
tp2291
sI2325
(F383.1991661495
F391.60265663462502
F0.0
tp2292
sI2326
(F369.75358137249998
F391.60265663462502
F0.0
tp2293
sI2327
(F376.4763737605
F388.24126044037502
F0.0
tp2294
sI2328
(F383.1991661495
F401.68684521799997
F0.0
tp2295
sI2329
(F369.75358137249998
F401.68684521799997
F0.0
tp2296
sI2330
(F376.4763737605
F405.04824141199998
F0.0
tp2297
sI2331
(F342.8624118175
F374.79567566337499
F0.0
tp2298
sI2332
(F336.13961942949999
F378.157071857625
F0.0
tp2299
sI2333
(F336.13961942949999
F388.24126044037502
F0.0
tp2300
sI2334
(F342.8624118175
F391.60265663462502
F0.0
tp2301
sI2335
(F268.9116955435
F297.48356319462499
F0.0
tp2302
sI2336
(F255.46611076650001
F297.48356319462499
F0.0
tp2303
sI2337
(F262.1889031545
F294.12216700037499
F0.0
tp2304
sI2338
(F268.9116955435
F324.37473274899997
F0.0
tp2305
sI2339
(F275.63448793200001
F321.01333655475003
F0.0
tp2306
sI2340
(F275.63448793200001
F310.92914797187501
F0.0
tp2307
sI2341
(F268.9116955435
F307.56775177737501
F0.0
tp2308
sI2342
(F309.24844987450001
F307.56775177737501
F0.0
tp2309
sI2343
(F201.68377165749999
F361.35009088637503
F0.0
tp2310
sI2344
(F215.12935643450001
F361.35009088637503
F0.0
tp2311
sI2345
(F208.40656404649999
F364.71148708062498
F0.0
tp2312
sI2346
(F201.68377165749999
F351.26590230362501
F0.0
tp2313
sI2347
(F215.12935643450001
F351.26590230362501
F0.0
tp2314
sI2348
(F208.40656404649999
F347.90450610937501
F0.0
tp2315
sI2349
(F201.68377165749999
F307.56775177737501
F0.0
tp2316
sI2350
(F201.68377165749999
F297.48356319462499
F0.0
tp2317
sI2351
(F194.96097926900001
F294.12216700012499
F0.0
tp2318
sI2352
(F188.2381868805
F297.48356319462499
F0.0
tp2319
sI2353
(F376.4763737605
F280.67658222337502
F0.0
tp2320
sI2354
(F376.4763737605
F270.592393640625
F0.0
tp2321
sI2355
(F329.41682704049998
F267.230997446375
F0.0
tp2322
sI2356
(F322.69403465200003
F270.592393640875
F0.0
tp2323
sI2357
(F349.58520420650001
F226.894243114375
F0.0
tp2324
sI2358
(F349.58520420650001
F216.81005453162501
F0.0
tp2325
sI2359
(F336.13961942949999
F226.894243114375
F0.0
tp2326
sI2360
(F342.8624118175
F230.25563930862501
F0.0
tp2327
sI2361
(F336.13961942949999
F216.81005453162501
F0.0
tp2328
sI2362
(F342.8624118175
F213.44865833737501
F0.0
tp2329
sI2363
(F349.58520420650001
F243.701224086
F0.0
tp2330
sI2364
(F349.58520420650001
F253.78541266937501
F0.0
tp2331
sI2365
(F336.13961942949999
F243.701224086
F0.0
tp2332
sI2366
(F342.8624118175
F240.33982789199999
F0.0
tp2333
sI2367
(F336.13961942949999
F253.78541266937501
F0.0
tp2334
sI2368
(F342.8624118175
F257.14680886362498
F0.0
tp2335
sI2369
(F356.30799659500002
F240.33982789174999
F0.0
tp2336
sI2370
(F363.03078898349997
F226.894243114375
F0.0
tp2337
sI2371
(F356.30799659500002
F230.255639308875
F0.0
tp2338
sI2372
(F470.59546720050002
F334.45892133237498
F0.0
tp2339
sI2373
(F463.87267481250001
F337.82031752662499
F0.0
tp2340
sI2374
(F463.87267481250001
F347.90450610937501
F0.0
tp2341
sI2375
(F470.59546720050002
F351.26590230362501
F0.0
tp2342
sI2376
(F463.87267481250001
F364.71148708062498
F0.0
tp2343
sI2377
(F470.59546720050002
F361.35009088637503
F0.0
tp2344
sI2378
(F477.31825958949997
F364.71148708062498
F0.0
tp2345
sI2379
(F477.31825958949997
F374.79567566337499
F0.0
tp2346
sI2380
(F470.59546720050002
F378.157071857625
F0.0
tp2347
sI2381
(F463.87267481250001
F374.79567566337499
F0.0
tp2348
sI2382
(F436.98150525800003
F294.12216700012499
F0.0
tp2349
sI2383
(F436.98150525800003
F284.03797841787502
F0.0
tp2350
sI2384
(F423.53592048050001
F337.82031752662499
F0.0
tp2351
sI2385
(F423.53592048050001
F347.90450610937501
F0.0
tp2352
sI2386
(F423.53592048050001
F321.01333655500002
F0.0
tp2353
sI2387
(F383.1991661495
F347.90450610937501
F0.0
tp2354
sI2388
(F389.92195853750002
F351.26590230362501
F0.0
tp2355
sI2389
(F376.4763737605
F334.45892133237498
F0.0
tp2356
sI2390
(F383.1991661495
F337.82031752662499
F0.0
tp2357
sI2391
(F389.92195853750002
F334.45892133237498
F0.0
tp2358
sI2392
(F389.92195853750002
F324.37473274899997
F0.0
tp2359
sI2393
(F255.46611076650001
F65.547225788737506
F0.0
tp2360
sI2394
(F268.9116955435
F55.463037205800013
F0.0
tp2361
sI2395
(F255.46611076650001
F55.463037205799999
F0.0
tp2362
sI2396
(F262.1889031545
F52.101641011600002
F0.0
tp2363
sI2397
(F282.35728032050002
F82.354206760099984
F0.0
tp2364
sI2398
(F282.35728032050002
F65.547225788737506
F0.0
tp2365
sI2399
(F315.97124226350002
F25.210471457237489
F0.0
tp2366
sI2400
(F322.69403465200003
F28.571867651712491
F0.0
tp2367
sI2401
(F194.96097926900001
F78.992810565650004
F0.0
tp2368
sI2402
(F188.2381868805
F82.354206760099999
F0.0
tp2369
sI2403
(F188.2381868805
F92.438395343225011
F0.0
tp2370
sI2404
(F194.96097926900001
F95.799791537625012
F0.0
tp2371
sI2405
(F228.5749412115
F82.354206760099999
F0.0
tp2372
sI2406
(F80.673508663000007
F200.00307356032499
F0.0
tp2373
sI2407
(F73.950716274399994
F203.36446975467501
F0.0
tp2374
sI2408
(F67.227923885849989
F200.00307356035
F0.0
tp2375
sI2409
(F67.227923885849989
F189.91888497765001
F0.0
tp2376
sI2410
(F80.673508663000007
F189.91888497767499
F0.0
tp2377
sI2411
(F73.950716274399994
F186.557488783325
F0.0
tp2378
sI2412
(F60.505131497249998
F213.44865833735
F0.0
tp2379
sI2413
(F47.059546720100002
F213.44865833732501
F0.0
tp2380
sI2414
(F53.7823391087
F216.81005453167501
F0.0
tp2381
sI2415
(F60.505131497249998
F203.36446975465
F0.0
tp2382
sI2416
(F47.059546720100002
F203.36446975467501
F0.0
tp2383
sI2417
(F53.7823391087
F200.00307356032499
F0.0
tp2384
sI2418
(F94.119093440300006
F92.438395343125009
F0.0
tp2385
sI2419
(F100.8418858286
F95.799791537325007
F0.0
tp2386
sI2420
(F100.8418858286
F105.88398012042499
F0.0
tp2387
sI2421
(F121.0102629945
F109.24537631462501
F0.0
tp2388
sI2422
(F114.287470606
F105.883980120125
F0.0
tp2389
sI2423
(F107.5646782175
F109.24537631462501
F0.0
tp2390
sI2424
(F121.0102629945
F119.32956489737499
F0.0
tp2391
sI2425
(F80.673508663000007
F146.220734451325
F0.0
tp2392
sI2426
(F87.396301051600005
F149.58213064567499
F0.0
tp2393
sI2427
(F114.287470606
F122.690961091875
F0.0
tp2394
sI2428
(F100.8418858286
F122.69096109157501
F0.0
tp2395
sI2429
(F107.5646782175
F119.32956489737499
F0.0
tp2396
sI2430
(F53.7823391087
F119.329564897325
F0.0
tp2397
sI2431
(F47.059546720100002
F122.69096109167501
F0.0
tp2398
sI2432
(F40.336754331500003
F119.329564897325
F0.0
tp2399
sI2433
(F40.336754331500003
F109.245376314675
F0.0
tp2400
sI2434
(F47.059546720100002
F105.88398012032501
F0.0
tp2401
sI2435
(F53.7823391087
F109.245376314675
F0.0
tp2402
sI2436
(F80.673508663000007
F82.354206760150007
F0.0
tp2403
sI2437
(F73.950716274400008
F78.992810565849993
F0.0
tp2404
sI2438
(F67.227923885850004
F82.354206760124995
F0.0
tp2405
sI2439
(F60.505131497249998
F105.88398012035
F0.0
tp2406
sI2440
(F67.227923885850004
F109.24537631465
F0.0
tp2407
sI2441
(F60.505131497249998
F95.799791537400012
F0.0
tp2408
sI2442
(F67.227923885849989
F92.438395343200014
F0.0
tp2409
sI2443
(F80.673508663000007
F136.136545868675
F0.0
tp2410
sI2444
(F87.396301051600005
F132.77514967432501
F0.0
tp2411
sI2445
(F295.80286509749999
F55.463037205800013
F0.0
tp2412
sI2446
(F302.52565748649999
F52.101641011599988
F0.0
tp2413
sI2447
(F262.1889031545
F122.690961091625
F0.0
tp2414
sI2448
(F268.9116955435
F119.32956489737499
F0.0
tp2415
sI2449
(F275.63448793200001
F122.690961091875
F0.0
tp2416
sI2450
(F268.9116955435
F136.13654586862501
F0.0
tp2417
sI2451
(F262.1889031545
F132.775149674375
F0.0
tp2418
sI2452
(F275.63448793200001
F132.775149674125
F0.0
tp2419
sI2453
(F289.08007270949997
F122.690961091625
F0.0
tp2420
sI2454
(F329.41682704049998
F149.582130645625
F0.0
tp2421
sI2455
(F329.41682704049998
F122.690961091625
F0.0
tp2422
sI2456
(F329.41682704049998
F132.775149674375
F0.0
tp2423
sI2457
(F349.58520420650001
F92.438395343224997
F0.0
tp2424
sI2458
(F349.58520420650001
F82.354206760099999
F0.0
tp2425
sI2459
(F336.13961942949999
F92.438395343224997
F0.0
tp2426
sI2460
(F342.8624118175
F95.799791537375015
F0.0
tp2427
sI2461
(F336.13961942949999
F82.354206760099999
F0.0
tp2428
sI2462
(F342.8624118175
F78.992810565899987
F0.0
tp2429
sI2463
(F336.13961942949999
F119.32956489737499
F0.0
tp2430
sI2464
(F336.13961942949999
F109.24537631462501
F0.0
tp2431
sI2465
(F342.8624118175
F105.883980120375
F0.0
tp2432
sI2466
(F289.08007270949997
F105.883980120375
F0.0
tp2433
sI2467
(F289.08007270949997
F95.799791537375
F0.0
tp2434
sI2468
(F322.69403465200003
F119.329564897125
F0.0
tp2435
sI2469
(F315.97124226350002
F122.690961091625
F0.0
tp2436
sI2470
(F349.58520420650001
F38.656056234399998
F0.0
tp2437
sI2471
(F336.13961942949999
F38.656056234399998
F0.0
tp2438
sI2472
(F342.8624118175
F42.017452428600002
F0.0
tp2439
sI2473
(F349.58520420650001
F28.571867651462501
F0.0
tp2440
sI2474
(F342.8624118175
F25.210471457237489
F0.0
tp2441
sI2475
(F336.13961942949999
F28.571867651462501
F0.0
tp2442
sI2476
(F369.75358137249998
F42.017452428600002
F0.0
tp2443
sI2477
(F363.03078898349997
F38.656056234400012
F0.0
tp2444
sI2478
(F356.30799659500002
F42.01745242885
F0.0
tp2445
sI2479
(F369.75358137249998
F52.101641011600009
F0.0
tp2446
sI2480
(F295.80286509749999
F216.81005453162501
F0.0
tp2447
sI2481
(F295.80286509749999
F226.894243114375
F0.0
tp2448
sI2482
(F302.52565748649999
F230.25563930862501
F0.0
tp2449
sI2483
(F309.24844987450001
F226.894243114375
F0.0
tp2450
sI2484
(F302.52565748649999
F203.36446975462499
F0.0
tp2451
sI2485
(F302.52565748649999
F213.44865833737501
F0.0
tp2452
sI2486
(F309.24844987450001
F216.81005453162501
F0.0
tp2453
sI2487
(F403.36754331499998
F253.78541266912501
F0.0
tp2454
sI2488
(F410.09033570349999
F257.14680886362498
F0.0
tp2455
sI2489
(F463.87267481250001
F284.03797841762503
F0.0
tp2456
sI2490
(F463.87267481250001
F294.12216700037499
F0.0
tp2457
sI2491
(F457.1498824235
F280.67658222337502
F0.0
tp2458
sI2492
(F450.42709003549999
F284.03797841762503
F0.0
tp2459
sI2493
(F457.1498824235
F297.48356319462499
F0.0
tp2460
sI2494
(F450.42709003549999
F294.12216700037499
F0.0
tp2461
sI2495
(F537.82339108650001
F361.35009088637503
F0.0
tp2462
sI2496
(F537.82339108650001
F351.26590230362501
F0.0
tp2463
sI2497
(F544.54618347550002
F347.90450610937501
F0.0
tp2464
sI2498
(F551.26897586350003
F351.26590230362501
F0.0
tp2465
sI2499
(F557.99176825250004
F374.79567566337499
F0.0
tp2466
sI2500
(F551.26897586350003
F378.157071857625
F0.0
tp2467
sI2501
(F544.54618347550002
F374.79567566337499
F0.0
tp2468
sI2502
(F557.99176825250004
F364.71148708062498
F0.0
tp2469
sI2503
(F551.26897586350003
F361.35009088637503
F0.0
tp2470
sI2504
(F544.54618347550002
F364.71148708062498
F0.0
tp2471
sI2505
(F100.8418858286
F176.47330020057501
F0.0
tp2472
sI2506
(F114.287470606
F186.557488783125
F0.0
tp2473
sI2507
(F107.5646782175
F189.918884977625
F0.0
tp2474
sI2508
(F100.8418858286
F186.55748878342499
F0.0
tp2475
sI2509
(F134.4558477715
F163.02771542299999
F0.0
tp2476
sI2510
(F127.7330553835
F159.66631922900001
F0.0
tp2477
sI2511
(F141.17864016050001
F186.55748878337499
F0.0
tp2478
sI2512
(F141.17864016050001
F176.473300200625
F0.0
tp2479
sI2513
(F127.7330553835
F186.55748878337499
F0.0
tp2480
sI2514
(F134.4558477715
F189.918884977625
F0.0
tp2481
sI2515
(F127.7330553835
F176.473300200625
F0.0
tp2482
sI2516
(F134.4558477715
F173.111904006375
F0.0
tp2483
sI2517
(F127.7330553835
F455.469184326375
F0.0
tp2484
sI2518
(F114.287470606
F445.38499574387498
F0.0
tp2485
sI2519
(F100.8418858286
F455.46918432642502
F0.0
tp2486
sI2520
(F94.119093440300006
F458.83058052072499
F0.0
tp2487
sI2521
(F127.7330553835
F418.493826189625
F0.0
tp2488
sI2522
(F161.34701732600001
F442.02359954912498
F0.0
tp2489
sI2523
(F154.6242249375
F445.38499574362498
F0.0
tp2490
sI2524
(F147.9014325485
F442.02359954937498
F0.0
tp2491
sI2525
(F161.34701732600001
F431.93941096687502
F0.0
tp2492
sI2526
(F134.4558477715
F351.26590230362501
F0.0
tp2493
sI2527
(F141.17864016050001
F347.90450610937501
F0.0
tp2494
sI2528
(F147.9014325485
F351.26590230362501
F0.0
tp2495
sI2529
(F134.4558477715
F361.35009088637503
F0.0
tp2496
sI2530
(F147.9014325485
F361.35009088637503
F0.0
tp2497
sI2531
(F141.17864016050001
F364.71148708062498
F0.0
tp2498
sI2532
(F121.0102629945
F324.37473274899997
F0.0
tp2499
sI2533
(F114.287470606
F321.01333655475003
F0.0
tp2500
sI2534
(F121.0102629945
F334.45892133237498
F0.0
tp2501
sI2535
(F114.287470606
F337.82031752687499
F0.0
tp2502
sI2536
(F87.396301051600005
F347.90450610932498
F0.0
tp2503
sI2537
(F107.5646782175
F361.35009088637503
F0.0
tp2504
sI2538
(F100.8418858286
F364.71148708057501
F0.0
tp2505
sI2539
(F94.119093440300006
F361.35009088627498
F0.0
tp2506
sI2540
(F107.5646782175
F351.26590230362501
F0.0
tp2507
sI2541
(F94.119093440300006
F351.265902303725
F0.0
tp2508
sI2542
(F100.8418858286
F347.90450610942497
F0.0
tp2509
sI2543
(F53.7823391087
F442.02359954932501
F0.0
tp2510
sI2544
(F60.505131497249998
F445.38499574364999
F0.0
tp2511
sI2545
(F60.505131497249998
F455.46918432634999
F0.0
tp2512
sI2546
(F53.7823391087
F458.83058052067503
F0.0
tp2513
sI2547
(F26.89116955435
F458.83058052065002
F0.0
tp2514
sI2548
(F33.613961942899998
F472.27616529767499
F0.0
tp2515
sI2549
(F40.336754331500003
F468.914769103325
F0.0
tp2516
sI2550
(F26.89116955435
F468.91476910335001
F0.0
tp2517
sI2551
(F73.950716274400008
F472.27616529767499
F0.0
tp2518
sI2552
(F80.673508662999993
F468.914769103325
F0.0
tp2519
sI2553
(F67.227923885850004
F468.91476910335001
F0.0
tp2520
sI2554
(F80.673508663000007
F458.83058052067503
F0.0
tp2521
sI2555
(F73.950716274400008
F455.46918432632498
F0.0
tp2522
sI2556
(F67.227923885849989
F458.83058052065002
F0.0
tp2523
sI2557
(F47.059546720100002
F472.27616529767499
F0.0
tp2524
sI2558
(F53.7823391087
F468.914769103325
F0.0
tp2525
sI2559
(F60.505131497249998
F472.27616529764998
F0.0
tp2526
sI2560
(F168.0698097145
F374.79567566337499
F0.0
tp2527
sI2561
(F161.34701732600001
F361.35009088612497
F0.0
tp2528
sI2562
(F154.6242249375
F364.71148708062498
F0.0
tp2529
sI2563
(F168.0698097145
F364.71148708062498
F0.0
tp2530
sI2564
(F174.7926021035
F415.13242999537499
F0.0
tp2531
sI2565
(F168.0698097145
F418.493826189625
F0.0
tp2532
sI2566
(F161.34701732600001
F415.13242999512499
F0.0
tp2533
sI2567
(F174.7926021035
F405.04824141199998
F0.0
tp2534
sI2568
(F168.0698097145
F391.60265663462502
F0.0
tp2535
sI2569
(F154.6242249375
F401.68684521799997
F0.0
tp2536
sI2570
(F168.0698097145
F401.68684521799997
F0.0
tp2537
sI2571
(F161.34701732600001
F405.04824141224998
F0.0
tp2538
sI2572
(F154.6242249375
F374.79567566337499
F0.0
tp2539
sI2573
(F161.34701732600001
F378.157071857875
F0.0
tp2540
sI2574
(F161.34701732600001
F388.24126044012502
F0.0
tp2541
sI2575
(F154.6242249375
F391.60265663462502
F0.0
tp2542
sI2576
(F147.9014325485
F405.04824141199998
F0.0
tp2543
sI2577
(F134.4558477715
F415.13242999537499
F0.0
tp2544
sI2578
(F80.673508662999993
F405.04824141205
F0.0
tp2545
sI2579
(F73.950716274399994
F401.68684521795001
F0.0
tp2546
sI2580
(F73.950716274400008
F391.60265663467499
F0.0
tp2547
sI2581
(F80.673508662999993
F388.24126044032499
F0.0
tp2548
sI2582
(F107.5646782175
F388.24126044037502
F0.0
tp2549
sI2583
(F100.8418858286
F374.79567566342502
F0.0
tp2550
sI2584
(F107.5646782175
F378.157071857625
F0.0
tp2551
sI2585
(F94.119093440300006
F378.15707185772499
F0.0
tp2552
sI2586
(F40.336754331500003
F405.04824141205
F0.0
tp2553
sI2587
(F80.673508663000007
F297.48356319467501
F0.0
tp2554
sI2588
(F73.950716274400008
F294.12216700032502
F0.0
tp2555
sI2589
(F67.227923885849989
F297.48356319465
F0.0
tp2556
sI2590
(F67.227923885849989
F307.56775177735
F0.0
tp2557
sI2591
(F80.673508663000007
F307.56775177732499
F0.0
tp2558
sI2592
(F73.950716274400008
F310.92914797167498
F0.0
tp2559
sI2593
(F80.673508662999993
F361.35009088632501
F0.0
tp2560
sI2594
(F73.950716274400008
F364.711487080675
F0.0
tp2561
sI2595
(F67.227923885850004
F361.35009088635002
F0.0
tp2562
sI2596
(F67.227923885849989
F351.26590230365002
F0.0
tp2563
sI2597
(F73.950716274400008
F347.90450610932498
F0.0
tp2564
sI2598
(F80.673508663000007
F351.26590230367498
F0.0
tp2565
sI2599
(F356.30799659500002
F391.60265663487502
F0.0
tp2566
sI2600
(F363.03078898349997
F388.24126044037502
F0.0
tp2567
sI2601
(F349.58520420650001
F388.24126044037502
F0.0
tp2568
sI2602
(F363.03078898349997
F378.157071857625
F0.0
tp2569
sI2603
(F356.30799659500002
F374.795675663125
F0.0
tp2570
sI2604
(F349.58520420650001
F378.157071857625
F0.0
tp2571
sI2605
(F248.7433183775
F321.01333655500002
F0.0
tp2572
sI2606
(F255.46611076650001
F324.37473274899997
F0.0
tp2573
sI2607
(F262.1889031545
F321.01333655500002
F0.0
tp2574
sI2608
(F248.7433183775
F310.92914797162501
F0.0
tp2575
sI2609
(F255.46611076650001
F307.56775177737501
F0.0
tp2576
sI2610
(F262.1889031545
F310.92914797162501
F0.0
tp2577
sI2611
(F329.41682704049998
F284.03797841762503
F0.0
tp2578
sI2612
(F322.69403465200003
F280.67658222312502
F0.0
tp2579
sI2613
(F329.41682704049998
F294.12216700037499
F0.0
tp2580
sI2614
(F322.69403465200003
F297.48356319487499
F0.0
tp2581
sI2615
(F174.7926021035
F307.56775177737501
F0.0
tp2582
sI2616
(F161.34701732600001
F297.48356319487499
F0.0
tp2583
sI2617
(F168.0698097145
F294.12216700037499
F0.0
tp2584
sI2618
(F174.7926021035
F297.48356319462499
F0.0
tp2585
sI2619
(F154.6242249375
F321.01333655500002
F0.0
tp2586
sI2620
(F154.6242249375
F310.92914797162501
F0.0
tp2587
sI2621
(F161.34701732600001
F307.56775177712501
F0.0
tp2588
sI2622
(F168.0698097145
F310.92914797162501
F0.0
tp2589
sI2623
(F161.34701732600001
F334.45892133212499
F0.0
tp2590
sI2624
(F161.34701732600001
F324.37473274924997
F0.0
tp2591
sI2625
(F168.0698097145
F321.01333655500002
F0.0
tp2592
sI2626
(F201.68377165749999
F334.45892133237498
F0.0
tp2593
sI2627
(F201.68377165749999
F324.37473274899997
F0.0
tp2594
sI2628
(F389.92195853750002
F280.67658222337502
F0.0
tp2595
sI2629
(F383.1991661495
F284.03797841762503
F0.0
tp2596
sI2630
(F363.03078898349997
F307.56775177737501
F0.0
tp2597
sI2631
(F389.92195853750002
F243.701224086
F0.0
tp2598
sI2632
(F356.30799659500002
F257.14680886387498
F0.0
tp2599
sI2633
(F369.75358137249998
F267.230997446375
F0.0
tp2600
sI2634
(F363.03078898349997
F270.592393640625
F0.0
tp2601
sI2635
(F356.30799659500002
F267.230997446125
F0.0
tp2602
sI2636
(F342.8624118175
F267.230997446375
F0.0
tp2603
sI2637
(F336.13961942949999
F270.592393640625
F0.0
tp2604
sI2638
(F349.58520420650001
F270.592393640625
F0.0
tp2605
sI2639
(F336.13961942949999
F280.67658222337502
F0.0
tp2606
sI2640
(F376.4763737605
F226.894243114375
F0.0
tp2607
sI2641
(F369.75358137249998
F230.25563930862501
F0.0
tp2608
sI2642
(F383.1991661495
F230.25563930862501
F0.0
tp2609
sI2643
(F383.1991661495
F240.33982789199999
F0.0
tp2610
sI2644
(F342.8624118175
F284.03797841762503
F0.0
tp2611
sI2645
(F349.58520420650001
F280.67658222337502
F0.0
tp2612
sI2646
(F490.7638443665
F347.90450610937501
F0.0
tp2613
sI2647
(F484.04105197799998
F351.26590230387501
F0.0
tp2614
sI2648
(F477.31825958949997
F347.90450610937501
F0.0
tp2615
sI2649
(F484.04105197799998
F334.45892133212499
F0.0
tp2616
sI2650
(F490.7638443665
F337.82031752662499
F0.0
tp2617
sI2651
(F477.31825958949997
F337.82031752662499
F0.0
tp2618
sI2652
(F430.25871286950002
F297.48356319462499
F0.0
tp2619
sI2653
(F430.25871286950002
F307.56775177737501
F0.0
tp2620
sI2654
(F416.81312809249999
F307.56775177737501
F0.0
tp2621
sI2655
(F423.53592048050001
F310.92914797162501
F0.0
tp2622
sI2656
(F430.25871286950002
F280.67658222337502
F0.0
tp2623
sI2657
(F430.25871286950002
F270.592393640625
F0.0
tp2624
sI2658
(F423.53592048050001
F267.230997446375
F0.0
tp2625
sI2659
(F416.81312809249999
F351.26590230362501
F0.0
tp2626
sI2660
(F403.36754331499998
F361.35009088612497
F0.0
tp2627
sI2661
(F410.09033570349999
F364.71148708062498
F0.0
tp2628
sI2662
(F416.81312809249999
F361.35009088637503
F0.0
tp2629
sI2663
(F416.81312809249999
F334.45892133237498
F0.0
tp2630
sI2664
(F416.81312809249999
F324.37473274899997
F0.0
tp2631
sI2665
(F268.9116955435
F82.354206760099999
F0.0
tp2632
sI2666
(F262.1889031545
F78.992810565900001
F0.0
tp2633
sI2667
(F275.63448793200001
F78.992810565650004
F0.0
tp2634
sI2668
(F262.1889031545
F68.908621982962501
F0.0
tp2635
sI2669
(F268.9116955435
F65.547225788737492
F0.0
tp2636
sI2670
(F275.63448793200001
F68.908621983212498
F0.0
tp2637
sI2671
(F302.52565748649999
F25.210471457237489
F0.0
tp2638
sI2672
(F309.24844987450001
F28.571867651462501
F0.0
tp2639
sI2673
(F295.80286509749999
F28.571867651462501
F0.0
tp2640
sI2674
(F295.80286509749999
F38.656056234399998
F0.0
tp2641
sI2675
(F309.24844987450001
F38.656056234399998
F0.0
tp2642
sI2676
(F302.52565748649999
F42.017452428600002
F0.0
tp2643
sI2677
(F329.41682704049998
F42.017452428600002
F0.0
tp2644
sI2678
(F322.69403465200003
F38.656056234150007
F0.0
tp2645
sI2679
(F315.97124226350002
F42.017452428600002
F0.0
tp2646
sI2680
(F329.41682704049998
F52.101641011600009
F0.0
tp2647
sI2681
(F221.85214882349999
F78.992810565900001
F0.0
tp2648
sI2682
(F221.85214882349999
F68.908621982962501
F0.0
tp2649
sI2683
(F208.40656404649999
F68.908621982962501
F0.0
tp2650
sI2684
(F215.12935643450001
F65.547225788737492
F0.0
tp2651
sI2685
(F201.68377165749999
F92.438395343225011
F0.0
tp2652
sI2686
(F201.68377165749999
F82.354206760099999
F0.0
tp2653
sI2687
(F208.40656404649999
F78.992810565900001
F0.0
tp2654
sI2688
(F215.12935643450001
F82.354206760099999
F0.0
tp2655
sI2689
(F215.12935643450001
F109.24537631462501
F0.0
tp2656
sI2690
(F208.40656404649999
F105.883980120375
F0.0
tp2657
sI2691
(F208.40656404649999
F95.799791537375
F0.0
tp2658
sI2692
(F215.12935643450001
F92.438395343225011
F0.0
tp2659
sI2693
(F94.119093440300006
F109.24537631472499
F0.0
tp2660
sI2694
(F80.673508663000007
F119.329564897325
F0.0
tp2661
sI2695
(F94.119093440300006
F119.32956489727501
F0.0
tp2662
sI2696
(F87.396301051600005
F122.69096109167501
F0.0
tp2663
sI2697
(F100.8418858286
F149.58213064557501
F0.0
tp2664
sI2698
(F94.119093440300006
F146.22073445127501
F0.0
tp2665
sI2699
(F94.119093440300006
F136.13654586872499
F0.0
tp2666
sI2700
(F100.8418858286
F132.77514967442499
F0.0
tp2667
sI2701
(F80.673508662999993
F92.438395343175003
F0.0
tp2668
sI2702
(F87.396301051600005
F95.799791537425008
F0.0
tp2669
sI2703
(F73.950716274400008
F95.799791537425008
F0.0
tp2670
sI2704
(F73.950716274399994
F105.88398012032501
F0.0
tp2671
sI2705
(F80.673508663000007
F109.245376314675
F0.0
tp2672
sI2706
(F87.396301051600005
F105.88398012032501
F0.0
tp2673
sI2707
(F60.505131497249998
F132.77514967434999
F0.0
tp2674
sI2708
(F67.227923885850004
F136.13654586864999
F0.0
tp2675
sI2709
(F73.950716274400008
F132.77514967432501
F0.0
tp2676
sI2710
(F60.505131497249998
F122.69096109165
F0.0
tp2677
sI2711
(F67.227923885850004
F119.32956489735
F0.0
tp2678
sI2712
(F73.950716274400008
F122.69096109167501
F0.0
tp2679
sI2713
(F302.52565748649999
F68.908621982962501
F0.0
tp2680
sI2714
(F289.08007270949997
F78.992810565900015
F0.0
tp2681
sI2715
(F289.08007270949997
F68.908621982962487
F0.0
tp2682
sI2716
(F295.80286509749999
F65.547225788737492
F0.0
tp2683
sI2717
(F302.52565748649999
F149.582130645625
F0.0
tp2684
sI2718
(F302.52565748649999
F132.775149674375
F0.0
tp2685
sI2719
(F336.13961942949999
F136.13654586862501
F0.0
tp2686
sI2720
(F349.58520420650001
F146.22073445137499
F0.0
tp2687
sI2721
(F342.8624118175
F149.582130645625
F0.0
tp2688
sI2722
(F336.13961942949999
F146.22073445137499
F0.0
tp2689
sI2723
(F342.8624118175
F122.690961091625
F0.0
tp2690
sI2724
(F356.30799659500002
F132.775149674125
F0.0
tp2691
sI2725
(F349.58520420650001
F136.13654586862501
F0.0
tp2692
sI2726
(F342.8624118175
F132.775149674375
F0.0
tp2693
sI2727
(F329.41682704049998
F78.992810565900015
F0.0
tp2694
sI2728
(F322.69403465200003
F82.354206760349996
F0.0
tp2695
sI2729
(F315.97124226350002
F78.992810565900001
F0.0
tp2696
sI2730
(F329.41682704049998
F68.908621982962487
F0.0
tp2697
sI2731
(F302.52565748649999
F122.690961091625
F0.0
tp2698
sI2732
(F309.24844987450001
F119.32956489737499
F0.0
tp2699
sI2733
(F295.80286509749999
F119.32956489737499
F0.0
tp2700
sI2734
(F295.80286509749999
F109.24537631462501
F0.0
tp2701
sI2735
(F309.24844987450001
F109.24537631462501
F0.0
tp2702
sI2736
(F302.52565748649999
F105.883980120375
F0.0
tp2703
sI2737
(F329.41682704049998
F105.883980120375
F0.0
tp2704
sI2738
(F322.69403465200003
F109.245376314875
F0.0
tp2705
sI2739
(F315.97124226350002
F105.883980120375
F0.0
tp2706
sI2740
(F322.69403465200003
F92.438395342975014
F0.0
tp2707
sI2741
(F329.41682704049998
F95.799791537375
F0.0
tp2708
sI2742
(F315.97124226350002
F95.799791537375015
F0.0
tp2709
sI2743
(F349.58520420650001
F55.463037205800013
F0.0
tp2710
sI2744
(F363.03078898349997
F55.463037205799992
F0.0
tp2711
sI2745
(F356.30799659500002
F52.101641011349997
F0.0
tp2712
sI2746
(F349.58520420650001
F65.547225788737492
F0.0
tp2713
sI2747
(F363.03078898349997
F65.547225788737506
F0.0
tp2714
sI2748
(F356.30799659500002
F68.908621983212498
F0.0
tp2715
sI2749
(F309.24844987450001
F200.00307356037499
F0.0
tp2716
sI2750
(F309.24844987450001
F189.918884977625
F0.0
tp2717
sI2751
(F315.97124226350002
F186.55748878337499
F0.0
tp2718
sI2752
(F322.69403465200003
F189.918884977875
F0.0
tp2719
sI2753
(F396.64475092650002
F267.230997446375
F0.0
tp2720
sI2754
(F389.92195853750002
F270.592393640625
F0.0
tp2721
sI2755
(F383.1991661495
F267.230997446375
F0.0
tp2722
sI2756
(F396.64475092650002
F257.14680886362498
F0.0
tp2723
sI2757
(F389.92195853750002
F253.78541266937501
F0.0
tp2724
sI2758
(F383.1991661495
F257.14680886362498
F0.0
tp2725
sI2759
(F114.287470606
F176.473300200875
F0.0
tp2726
sI2760
(F107.5646782175
F173.111904006375
F0.0
tp2727
sI2761
(F121.0102629945
F173.111904006375
F0.0
tp2728
sI2762
(F107.5646782175
F163.02771542299999
F0.0
tp2729
sI2763
(F114.287470606
F159.66631922875001
F0.0
tp2730
sI2764
(F121.0102629945
F163.02771542299999
F0.0
tp2731
sI2765
(F121.0102629945
F442.02359954937498
F0.0
tp2732
sI2766
(F121.0102629945
F431.93941096662502
F0.0
tp2733
sI2767
(F134.4558477715
F442.02359954937498
F0.0
tp2734
sI2768
(F127.7330553835
F445.38499574362498
F0.0
tp2735
sI2769
(F127.7330553835
F428.57801477237501
F0.0
tp2736
sI2770
(F134.4558477715
F431.93941096662502
F0.0
tp2737
sI2771
(F154.6242249375
F418.493826189625
F0.0
tp2738
sI2772
(F147.9014325485
F415.13242999537499
F0.0
tp2739
sI2773
(F141.17864016050001
F418.493826189625
F0.0
tp2740
sI2774
(F154.6242249375
F428.57801477237501
F0.0
tp2741
sI2775
(F141.17864016050001
F428.57801477237501
F0.0
tp2742
sI2776
(F147.9014325485
F431.93941096662502
F0.0
tp2743
sI2777
(F100.8418858286
F321.01333655504999
F0.0
tp2744
sI2778
(F107.5646782175
F324.37473274899997
F0.0
tp2745
sI2779
(F107.5646782175
F334.45892133237498
F0.0
tp2746
sI2780
(F100.8418858286
F337.82031752657502
F0.0
tp2747
sI2781
(F47.059546720100002
F455.46918432632498
F0.0
tp2748
sI2782
(F33.613961942899998
F455.46918432632498
F0.0
tp2749
sI2783
(F40.336754331500003
F458.83058052067503
F0.0
tp2750
sI2784
(F40.336754331500003
F442.02359954932501
F0.0
tp2751
sI2785
(F33.613961942899998
F445.38499574367501
F0.0
tp2752
sI2786
(F47.059546720100002
F445.38499574367501
F0.0
tp2753
sI2787
(F147.9014325485
F388.24126044037502
F0.0
tp2754
sI2788
(F134.4558477715
F378.157071857625
F0.0
tp2755
sI2789
(F141.17864016050001
F374.79567566337499
F0.0
tp2756
sI2790
(F147.9014325485
F378.157071857625
F0.0
tp2757
sI2791
(F141.17864016050001
F401.68684521799997
F0.0
tp2758
sI2792
(F141.17864016050001
F391.60265663462502
F0.0
tp2759
sI2793
(F127.7330553835
F401.68684521799997
F0.0
tp2760
sI2794
(F134.4558477715
F405.04824141199998
F0.0
tp2761
sI2795
(F127.7330553835
F391.60265663462502
F0.0
tp2762
sI2796
(F134.4558477715
F388.24126044037502
F0.0
tp2763
sI2797
(F87.396301051600005
F401.68684521795001
F0.0
tp2764
sI2798
(F94.119093440300006
F405.04824141210003
F0.0
tp2765
sI2799
(F100.8418858286
F401.68684521805
F0.0
tp2766
sI2800
(F87.396301051600005
F391.60265663467499
F0.0
tp2767
sI2801
(F100.8418858286
F391.602656634575
F0.0
tp2768
sI2802
(F94.119093440300006
F388.24126044027503
F0.0
tp2769
sI2803
(F40.336754331500003
F388.24126044032499
F0.0
tp2770
sI2804
(F53.7823391087
F378.15707185767502
F0.0
tp2771
sI2805
(F47.059546720100002
F374.79567566332503
F0.0
tp2772
sI2806
(F40.336754331500003
F378.15707185767502
F0.0
tp2773
sI2807
(F26.89116955435
F405.04824141202499
F0.0
tp2774
sI2808
(F20.168377165750002
F401.68684521797502
F0.0
tp2775
sI2809
(F33.613961942899998
F401.68684521795001
F0.0
tp2776
sI2810
(F20.168377165750002
F391.60265663464997
F0.0
tp2777
sI2811
(F26.89116955435
F388.24126044035
F0.0
tp2778
sI2812
(F33.613961942899998
F391.60265663467499
F0.0
tp2779
sI2813
(F315.97124226350002
F284.03797841762503
F0.0
tp2780
sI2814
(F302.52565748649999
F284.03797841762503
F0.0
tp2781
sI2815
(F309.24844987450001
F280.67658222337502
F0.0
tp2782
sI2816
(F315.97124226350002
F294.12216700037499
F0.0
tp2783
sI2817
(F302.52565748649999
F294.12216700037499
F0.0
tp2784
sI2818
(F309.24844987450001
F297.48356319462499
F0.0
tp2785
sI2819
(F356.30799659500002
F310.92914797187501
F0.0
tp2786
sI2820
(F356.30799659500002
F321.01333655475003
F0.0
tp2787
sI2821
(F349.58520420650001
F324.37473274899997
F0.0
tp2788
sI2822
(F342.8624118175
F321.01333655500002
F0.0
tp2789
sI2823
(F168.0698097145
F337.82031752662499
F0.0
tp2790
sI2824
(F174.7926021035
F351.26590230362501
F0.0
tp2791
sI2825
(F168.0698097145
F347.90450610937501
F0.0
tp2792
sI2826
(F194.96097926900001
F321.01333655475003
F0.0
tp2793
sI2827
(F188.2381868805
F307.56775177737501
F0.0
tp2794
sI2828
(F194.96097926900001
F310.92914797187501
F0.0
tp2795
sI2829
(F181.51539449149999
F310.92914797162501
F0.0
tp2796
sI2830
(F396.64475092650002
F284.03797841762503
F0.0
tp2797
sI2831
(F403.36754331499998
F297.48356319487499
F0.0
tp2798
sI2832
(F396.64475092650002
F294.12216700037499
F0.0
tp2799
sI2833
(F369.75358137249998
F310.92914797162501
F0.0
tp2800
sI2834
(F383.1991661495
F321.01333655500002
F0.0
tp2801
sI2835
(F369.75358137249998
F321.01333655500002
F0.0
tp2802
sI2836
(F376.4763737605
F324.37473274899997
F0.0
tp2803
sI2837
(F376.4763737605
F253.78541266937501
F0.0
tp2804
sI2838
(F369.75358137249998
F257.14680886362498
F0.0
tp2805
sI2839
(F363.03078898349997
F253.78541266937501
F0.0
tp2806
sI2840
(F363.03078898349997
F243.701224086
F0.0
tp2807
sI2841
(F369.75358137249998
F240.33982789199999
F0.0
tp2808
sI2842
(F376.4763737605
F243.701224086
F0.0
tp2809
sI2843
(F349.58520420650001
F297.48356319462499
F0.0
tp2810
sI2844
(F349.58520420650001
F307.56775177737501
F0.0
tp2811
sI2845
(F336.13961942949999
F297.48356319462499
F0.0
tp2812
sI2846
(F342.8624118175
F294.12216700037499
F0.0
tp2813
sI2847
(F336.13961942949999
F307.56775177737501
F0.0
tp2814
sI2848
(F342.8624118175
F310.92914797162501
F0.0
tp2815
sI2849
(F369.75358137249998
F284.03797841762503
F0.0
tp2816
sI2850
(F363.03078898349997
F280.67658222337502
F0.0
tp2817
sI2851
(F356.30799659500002
F284.03797841787502
F0.0
tp2818
sI2852
(F369.75358137249998
F294.12216700037499
F0.0
tp2819
sI2853
(F363.03078898349997
F297.48356319462499
F0.0
tp2820
sI2854
(F356.30799659500002
F294.12216700012499
F0.0
tp2821
sI2855
(F396.64475092650002
F337.82031752662499
F0.0
tp2822
sI2856
(F403.36754331499998
F334.45892133212499
F0.0
tp2823
sI2857
(F410.09033570349999
F337.82031752662499
F0.0
tp2824
sI2858
(F396.64475092650002
F347.90450610937501
F0.0
tp2825
sI2859
(F403.36754331499998
F351.26590230387501
F0.0
tp2826
sI2860
(F410.09033570349999
F347.90450610937501
F0.0
tp2827
sI2861
(F403.36754331499998
F324.37473274924997
F0.0
tp2828
sI2862
(F396.64475092650002
F321.01333655500002
F0.0
tp2829
sI2863
(F410.09033570349999
F321.01333655500002
F0.0
tp2830
sI2864
(F410.09033570349999
F310.92914797162501
F0.0
tp2831
sI2865
(F396.64475092650002
F310.92914797162501
F0.0
tp2832
sI2866
(F403.36754331499998
F307.56775177712501
F0.0
tp2833
sI2867
(F309.24844987450001
F55.463037205800013
F0.0
tp2834
sI2868
(F322.69403465200003
F55.463037206049989
F0.0
tp2835
sI2869
(F315.97124226350002
F52.101641011599988
F0.0
tp2836
sI2870
(F309.24844987450001
F65.547225788737492
F0.0
tp2837
sI2871
(F322.69403465200003
F65.547225788487509
F0.0
tp2838
sI2872
(F315.97124226350002
F68.908621982962501
F0.0
tp2839
sI2873
(F235.29773360050001
F105.883980120375
F0.0
tp2840
sI2874
(F228.5749412115
F109.24537631462501
F0.0
tp2841
sI2875
(F221.85214882349999
F105.883980120375
F0.0
tp2842
sI2876
(F235.29773360050001
F95.799791537375
F0.0
tp2843
sI2877
(F228.5749412115
F92.438395343225011
F0.0
tp2844
sI2878
(F221.85214882349999
F95.799791537375
F0.0
tp2845
sI2879
(F121.0102629945
F136.13654586862501
F0.0
tp2846
sI2880
(F114.287470606
F132.775149674125
F0.0
tp2847
sI2881
(F107.5646782175
F136.13654586862501
F0.0
tp2848
sI2882
(F114.287470606
F149.582130645875
F0.0
tp2849
sI2883
(F121.0102629945
F146.22073445137499
F0.0
tp2850
sI2884
(F107.5646782175
F146.22073445137499
F0.0
tp2851
sI2885
(F309.24844987450001
F82.354206760099999
F0.0
tp2852
sI2886
(F302.52565748649999
F78.992810565899987
F0.0
tp2853
sI2887
(F295.80286509749999
F82.354206760099999
F0.0
tp2854
sI2888
(F295.80286509749999
F92.438395343224997
F0.0
tp2855
sI2889
(F302.52565748649999
F95.799791537375015
F0.0
tp2856
sI2890
(F309.24844987450001
F92.438395343224997
F0.0
tp2857
sI2891
(F282.35728032050002
F146.22073445137499
F0.0
tp2858
sI2892
(F282.35728032050002
F136.13654586862501
F0.0
tp2859
sI2893
(F289.08007270949997
F149.582130645625
F0.0
tp2860
sI2894
(F295.80286509749999
F146.22073445137499
F0.0
tp2861
sI2895
(F289.08007270949997
F132.775149674375
F0.0
tp2862
sI2896
(F295.80286509749999
F136.13654586862501
F0.0
tp2863
sI2897
(F322.69403465200003
F146.220734451125
F0.0
tp2864
sI2898
(F315.97124226350002
F149.582130645625
F0.0
tp2865
sI2899
(F309.24844987450001
F146.22073445137499
F0.0
tp2866
sI2900
(F315.97124226350002
F132.775149674375
F0.0
tp2867
sI2901
(F322.69403465200003
F136.136545868875
F0.0
tp2868
sI2902
(F309.24844987450001
F136.13654586862501
F0.0
tp2869
sI2903
(F363.03078898349997
F119.32956489737499
F0.0
tp2870
sI2904
(F356.30799659500002
F122.690961091875
F0.0
tp2871
sI2905
(F349.58520420650001
F119.32956489737499
F0.0
tp2872
sI2906
(F356.30799659500002
F105.883980120125
F0.0
tp2873
sI2907
(F363.03078898349997
F109.24537631462501
F0.0
tp2874
sI2908
(F349.58520420650001
F109.24537631462501
F0.0
tp2875
sI2909
(F329.41682704049998
F203.36446975462499
F0.0
tp2876
sI2910
(F322.69403465200003
F200.00307356012499
F0.0
tp2877
sI2911
(F315.97124226350002
F203.36446975462499
F0.0
tp2878
sI2912
(F322.69403465200003
F216.81005453187501
F0.0
tp2879
sI2913
(F329.41682704049998
F213.44865833737501
F0.0
tp2880
sI2914
(F315.97124226350002
F213.44865833737501
F0.0
tp2881
sI2915
(F121.0102629945
F468.91476910337502
F0.0
tp2882
sI2916
(F121.0102629945
F458.83058052062501
F0.0
tp2883
sI2917
(F114.287470606
F455.469184326125
F0.0
tp2884
sI2918
(F107.5646782175
F458.83058052062501
F0.0
tp2885
sI2919
(F107.5646782175
F468.91476910337502
F0.0
tp2886
sI2920
(F114.287470606
F472.27616529787502
F0.0
tp2887
sI2921
(F141.17864016050001
F472.27616529762503
F0.0
tp2888
sI2922
(F134.4558477715
F468.91476910337502
F0.0
tp2889
sI2923
(F127.7330553835
F472.27616529762503
F0.0
tp2890
sI2924
(F94.119093440300006
F334.458921332275
F0.0
tp2891
sI2925
(F80.673508663000007
F334.45892133232502
F0.0
tp2892
sI2926
(F87.396301051600005
F337.82031752667501
F0.0
tp2893
sI2927
(F94.119093440300006
F324.37473274910002
F0.0
tp2894
sI2928
(F80.673508662999993
F324.37473274905
F0.0
tp2895
sI2929
(F87.396301051600005
F321.01333655495
F0.0
tp2896
sI2930
(F60.505131497249998
F391.60265663464997
F0.0
tp2897
sI2931
(F53.7823391087
F388.24126044032499
F0.0
tp2898
sI2932
(F47.059546720100002
F391.60265663467499
F0.0
tp2899
sI2933
(F53.7823391087
F405.04824141205
F0.0
tp2900
sI2934
(F47.059546720100002
F401.68684521795001
F0.0
tp2901
sI2935
(F60.505131497249998
F401.68684521797502
F0.0
tp2902
sI2936
(F336.13961942949999
F324.37473274899997
F0.0
tp2903
sI2937
(F322.69403465200003
F334.45892133212499
F0.0
tp2904
sI2938
(F329.41682704049998
F337.82031752662499
F0.0
tp2905
sI2939
(F336.13961942949999
F334.45892133237498
F0.0
tp2906
sI2940
(F174.7926021035
F334.45892133237498
F0.0
tp2907
sI2941
(F188.2381868805
F324.37473274899997
F0.0
tp2908
sI2942
(F174.7926021035
F324.37473274899997
F0.0
tp2909
sI2943
(F181.51539449149999
F321.01333655500002
F0.0
tp2910
sI2944
(F403.36754331499998
F280.67658222312502
F0.0
tp2911
sI2945
(F410.09033570349999
F267.230997446375
F0.0
tp2912
sI2946
(F403.36754331499998
F270.592393640875
F0.0
tp2913
sI2947
(F416.81312809249999
F270.592393640625
F0.0
tp2914
sI2948
(F410.09033570349999
F294.12216700037499
F0.0
tp2915
sI2949
(F416.81312809249999
F297.48356319462499
F0.0
tp2916
sI2950
(F423.53592048050001
F294.12216700037499
F0.0
tp2917
sI2951
(F410.09033570349999
F284.03797841762503
F0.0
tp2918
sI2952
(F423.53592048050001
F284.03797841762503
F0.0
tp2919
sI2953
(F416.81312809249999
F280.67658222337502
F0.0
tp2920
sI2954
(F389.92195853750002
F307.56775177737501
F0.0
tp2921
sI2955
(F383.1991661495
F310.92914797162501
F0.0
tp2922
sI2956
(F376.4763737605
F307.56775177737501
F0.0
tp2923
sI2957
(F376.4763737605
F297.48356319462499
F0.0
tp2924
sI2958
(F383.1991661495
F294.12216700037499
F0.0
tp2925
sI2959
(F389.92195853750002
F297.48356319462499
F0.0
tp2926
sI2960
(F87.396301051600005
F472.27616529767499
F0.0
tp2927
sI2961
(F94.119093440300006
F468.91476910327498
F0.0
tp2928
sI2962
(F100.8418858286
F472.27616529757501
F0.0
tp2929
sI2963
(F315.97124226350002
F321.01333655500002
F0.0
tp2930
sI2964
(F322.69403465200003
F324.37473274924997
F0.0
tp2931
sI2965
(F329.41682704049998
F321.01333655500002
F0.0
tp2932
sI2966
(F322.69403465200003
F307.56775177712501
F0.0
tp2933
sI2967
(F315.97124226350002
F310.92914797162501
F0.0
tp2934
sI2968
(F329.41682704049998
F310.92914797162501
F0.0
tp2935
sI2969
(F194.96097926900001
F337.82031752687499
F0.0
tp2936
sI2970
(F188.2381868805
F334.45892133237498
F0.0
tp2937
sI2971
(F181.51539449149999
F337.82031752662499
F0.0
tp2938
sI2972
(F194.96097926900001
F347.90450610912501
F0.0
tp2939
sI2973
(F188.2381868805
F351.26590230362501
F0.0
tp2940
sI2974
(F181.51539449149999
F347.90450610937501
F0.0
tp2941
stp2942
Rp2943
(dp2944
S'scale'
p2945
I2
sS'description'
p2946
S'_positions'
p2947
sb.