ccopy_reg
_reconstructor
p0
(copenalea.stse.io.walled_tissue.native_representation
IOTissueProperty
p1
c__builtin__
dict
p2
(dp3
I1
(lp4
sI2
(lp5
sI4
(lp6
sI5
(lp7
sI6
(lp8
sI7
(lp9
sI8
(lp10
sI9
(lp11
sI10
(lp12
sI12
(lp13
sI13
(lp14
sI14
(lp15
sI15
(lp16
sI16
(lp17
sI17
(lp18
sI18
(lp19
sI20
(lp20
sI21
(lp21
sI22
(lp22
sI23
(lp23
sI24
(lp24
sI25
(lp25
sI26
(lp26
sI27
(lp27
sI28
(lp28
sI30
(lp29
sI31
(lp30
sI32
(lp31
sI33
(lp32
sI34
(lp33
sI35
(lp34
sI36
(lp35
sI37
(lp36
sI38
(lp37
sI39
(lp38
sI40
(lp39
sI41
(lp40
sI42
(lp41
sI44
(lp42
sI45
(lp43
sI48
(lp44
sI50
(lp45
sI51
(lp46
sI52
(lp47
sI53
(lp48
sI54
(lp49
sI55
(lp50
sI56
(lp51
sI57
(lp52
sI58
(lp53
sI59
(lp54
sI60
(lp55
sI61
(lp56
sI62
(lp57
sI63
(lp58
sI64
(lp59
sI65
(lp60
sI66
(lp61
sI67
(lp62
sI68
(lp63
sI69
(lp64
sI70
(lp65
sI71
(lp66
sI72
(lp67
sI73
(lp68
sI74
(lp69
sI75
(lp70
sI76
(lp71
sI77
(lp72
sI78
(lp73
sI79
(lp74
sI80
(lp75
sI81
(lp76
sI82
(lp77
sI83
(lp78
sI84
(lp79
sI85
(lp80
sI86
(lp81
sI87
(lp82
sI88
(lp83
sI89
(lp84
sI90
(lp85
sI91
(lp86
sI92
(lp87
sI93
(lp88
sI94
(lp89
sI95
(lp90
sI96
(lp91
sI97
(lp92
sI98
(lp93
sI99
(lp94
sI100
(lp95
sI101
(lp96
sI102
(lp97
sI103
(lp98
sI105
(lp99
sI106
(lp100
sI107
(lp101
sI108
(lp102
sI109
(lp103
sI110
(lp104
sI111
(lp105
sI112
(lp106
sI113
(lp107
sI114
(lp108
sI115
(lp109
sI116
(lp110
sI117
(lp111
sI118
(lp112
sI119
(lp113
sI120
(lp114
sI121
(lp115
sI122
(lp116
sI123
(lp117
sI124
(lp118
sI125
(lp119
sI126
(lp120
sI127
(lp121
sI128
(lp122
sI129
(lp123
sI130
(lp124
sI131
(lp125
sI132
(lp126
sI133
(lp127
sI134
(lp128
sI135
(lp129
sI136
(lp130
sI137
(lp131
sI138
(lp132
sI139
(lp133
sI140
(lp134
sI141
(lp135
sI142
(lp136
sI143
(lp137
sI144
(lp138
sI145
(lp139
sI148
(lp140
sI149
(lp141
sI150
(lp142
sI151
(lp143
sI152
(lp144
sI153
(lp145
sI154
(lp146
sI155
(lp147
sI156
(lp148
sI159
(lp149
sI162
(lp150
sI163
(lp151
sI164
(lp152
sI165
(lp153
sI166
(lp154
sI167
(lp155
sI168
(lp156
sI169
(lp157
sI170
(lp158
sI171
(lp159
sI172
(lp160
sI173
(lp161
sI174
(lp162
sI175
(lp163
sI176
(lp164
sI177
(lp165
sI178
(lp166
sI179
(lp167
sI180
(lp168
sI181
(lp169
sI183
(lp170
sI184
(lp171
sI185
(lp172
sI186
(lp173
sI187
(lp174
sI188
(lp175
sI189
(lp176
sI190
(lp177
sI191
(lp178
sI192
(lp179
sI193
(lp180
sI194
(lp181
sI195
(lp182
sI196
(lp183
sI197
(lp184
sI198
(lp185
sI199
(lp186
sI200
(lp187
sI201
(lp188
sI202
(lp189
sI203
(lp190
sI204
(lp191
sI205
(lp192
sI206
(lp193
sI207
(lp194
sI208
(lp195
sI209
(lp196
sI210
(lp197
sI211
(lp198
sI212
(lp199
sI213
(lp200
sI214
(lp201
sI215
(lp202
sI216
(lp203
sI217
(lp204
sI218
(lp205
sI219
(lp206
sI220
(lp207
sI221
(lp208
sI222
(lp209
sI223
(lp210
sI224
(lp211
sI225
(lp212
sI226
(lp213
sI228
(lp214
sI229
(lp215
sI230
(lp216
sI231
(lp217
sI232
(lp218
sI233
(lp219
sI234
(lp220
sI235
(lp221
sI236
(lp222
sI237
(lp223
sI238
(lp224
sI239
(lp225
sI240
(lp226
sI241
(lp227
sI242
(lp228
sI243
(lp229
sI245
(lp230
sI246
(lp231
sI247
(lp232
sI248
(lp233
sI249
(lp234
sI250
(lp235
sI251
(lp236
sI252
(lp237
sI253
(lp238
sI254
(lp239
sI255
(lp240
sI256
(lp241
sI257
(lp242
sI258
(lp243
sI259
(lp244
sI260
(lp245
sI261
(lp246
sI262
(lp247
sI263
(lp248
sI264
(lp249
sI265
(lp250
sI266
(lp251
sI267
(lp252
sI268
(lp253
sI269
(lp254
sI270
(lp255
sI271
(lp256
sI272
(lp257
sI273
(lp258
sI274
(lp259
sI275
(lp260
sI276
(lp261
sI277
(lp262
sI278
(lp263
sI279
(lp264
sI280
(lp265
sI281
(lp266
sI282
(lp267
sI283
(lp268
sI284
(lp269
sI285
(lp270
sI286
(lp271
sI287
(lp272
sI288
(lp273
sI289
(lp274
sI290
(lp275
sI291
(lp276
sI292
(lp277
sI293
(lp278
sI294
(lp279
sI295
(lp280
sI296
(lp281
sI297
(lp282
sI298
(lp283
sI299
(lp284
sI300
(lp285
sI301
(lp286
sI302
(lp287
sI303
(lp288
sI304
(lp289
sI305
(lp290
sI306
(lp291
sI307
(lp292
sI308
(lp293
sI309
(lp294
sI310
(lp295
sI311
(lp296
sI312
(lp297
sI313
(lp298
sI314
(lp299
sI315
(lp300
sI316
(lp301
sI317
(lp302
sI318
(lp303
sI319
(lp304
sI320
(lp305
sI321
(lp306
sI322
(lp307
sI323
(lp308
sI324
(lp309
sI325
(lp310
sI326
(lp311
sI329
(lp312
sI330
(lp313
sI331
(lp314
sI332
(lp315
sI335
(lp316
sI336
(lp317
sI338
(lp318
sI339
(lp319
sI340
(lp320
sI341
(lp321
sI342
(lp322
sI343
(lp323
sI344
(lp324
sI345
(lp325
sI346
(lp326
sI347
(lp327
sI348
(lp328
sI349
(lp329
sI350
(lp330
sI351
(lp331
sI352
(lp332
sI353
(lp333
sI354
(lp334
sI355
(lp335
sI356
(lp336
sI357
(lp337
sI358
(lp338
sI359
(lp339
sI360
(lp340
sI361
(lp341
sI362
(lp342
sI363
(lp343
sI364
(lp344
sI365
(lp345
sI366
(lp346
sI367
(lp347
sI368
(lp348
sI369
(lp349
sI370
(lp350
sI371
(lp351
sI372
(lp352
sI373
(lp353
sI374
(lp354
sI375
(lp355
sI376
(lp356
sI377
(lp357
sI378
(lp358
sI379
(lp359
sI380
(lp360
sI381
(lp361
sI382
(lp362
sI383
(lp363
sI384
(lp364
sI385
(lp365
sI386
(lp366
sI387
(lp367
sI388
(lp368
sI389
(lp369
sI390
(lp370
sI391
(lp371
sI392
(lp372
sI393
(lp373
sI394
(lp374
sI395
(lp375
sI396
(lp376
sI397
(lp377
sI398
(lp378
sI399
(lp379
sI400
(lp380
sI401
(lp381
sI402
(lp382
sI403
(lp383
sI404
(lp384
sI405
(lp385
sI406
(lp386
sI407
(lp387
sI408
(lp388
sI409
(lp389
sI410
(lp390
sI411
(lp391
sI412
(lp392
sI413
(lp393
sI414
(lp394
sI415
(lp395
sI416
(lp396
sI417
(lp397
sI418
(lp398
sI419
(lp399
sI420
(lp400
sI421
(lp401
sI422
(lp402
sI423
(lp403
sI424
(lp404
sI425
(lp405
sI426
(lp406
sI427
(lp407
sI428
(lp408
sI429
(lp409
sI430
(lp410
sI431
(lp411
sI432
(lp412
sI433
(lp413
sI434
(lp414
sI435
(lp415
sI436
(lp416
sI437
(lp417
sI438
(lp418
sI439
(lp419
sI440
(lp420
sI441
(lp421
sI442
(lp422
sI443
(lp423
sI444
(lp424
sI445
(lp425
sI446
(lp426
sI447
(lp427
sI448
(lp428
sI449
(lp429
sI450
(lp430
sI451
(lp431
sI453
(lp432
sI454
(lp433
sI455
(lp434
sI456
(lp435
sI457
(lp436
sI458
(lp437
sI459
(lp438
sI460
(lp439
sI461
(lp440
sI462
(lp441
sI463
(lp442
sI464
(lp443
sI465
(lp444
sI466
(lp445
sI467
(lp446
sI468
(lp447
sI469
(lp448
sI470
(lp449
sI471
(lp450
sI472
(lp451
sI473
(lp452
sI474
(lp453
sI475
(lp454
sI476
(lp455
sI477
(lp456
sI478
(lp457
sI479
(lp458
sI480
(lp459
sI481
(lp460
sI482
(lp461
sI483
(lp462
sI484
(lp463
sI485
(lp464
sI486
(lp465
sI487
(lp466
sI488
(lp467
sI489
(lp468
sI490
(lp469
sI491
(lp470
sI492
(lp471
sI493
(lp472
sI494
(lp473
sI495
(lp474
sI496
(lp475
sI497
(lp476
sI498
(lp477
sI499
(lp478
sI500
(lp479
sI501
(lp480
sI502
(lp481
sI503
(lp482
sI504
(lp483
sI505
(lp484
sI506
(lp485
sI507
(lp486
sI508
(lp487
sI509
(lp488
sI510
(lp489
sI511
(lp490
sI512
(lp491
sI513
(lp492
sI514
(lp493
sI515
(lp494
sI516
(lp495
sI517
(lp496
sI518
(lp497
sI519
(lp498
sI520
(lp499
sI521
(lp500
sI522
(lp501
sI523
(lp502
sI524
(lp503
sI525
(lp504
sI526
(lp505
sI527
(lp506
sI528
(lp507
sI529
(lp508
sI530
(lp509
sI531
(lp510
sI532
(lp511
sI533
(lp512
sI534
(lp513
sI535
(lp514
sI536
(lp515
sI538
(lp516
sI539
(lp517
sI540
(lp518
sI541
(lp519
sI542
(lp520
sI543
(lp521
sI544
(lp522
sI545
(lp523
sI546
(lp524
sI547
(lp525
sI548
(lp526
sI549
(lp527
sI550
(lp528
sI551
(lp529
sI552
(lp530
sI553
(lp531
sI554
(lp532
sI555
(lp533
sI556
(lp534
sI557
(lp535
sI558
(lp536
sI559
(lp537
sI560
(lp538
sI561
(lp539
sI562
(lp540
sI563
(lp541
sI564
(lp542
sI565
(lp543
sI566
(lp544
sI567
(lp545
sI568
(lp546
sI569
(lp547
sI570
(lp548
sI571
(lp549
sI572
(lp550
sI573
(lp551
sI574
(lp552
sI575
(lp553
sI576
(lp554
sI577
(lp555
sI578
(lp556
sI579
(lp557
sI580
(lp558
sI581
(lp559
sI582
(lp560
sI583
(lp561
sI584
(lp562
sI585
(lp563
sI586
(lp564
sI587
(lp565
sI588
(lp566
sI589
(lp567
sI590
(lp568
sI591
(lp569
sI592
(lp570
sI593
(lp571
sI594
(lp572
sI595
(lp573
sI596
(lp574
sI597
(lp575
sI598
(lp576
sI599
(lp577
sI600
(lp578
sI601
(lp579
sI602
(lp580
sI604
(lp581
sI605
(lp582
sI606
(lp583
sI608
(lp584
sI609
(lp585
sI610
(lp586
sI611
(lp587
sI612
(lp588
sI613
(lp589
sI614
(lp590
sI615
(lp591
sI616
(lp592
sI617
(lp593
sI618
(lp594
sI619
(lp595
sI620
(lp596
sI621
(lp597
sI622
(lp598
sI623
(lp599
sI624
(lp600
sI625
(lp601
sI626
(lp602
sI627
(lp603
sI628
(lp604
sI629
(lp605
sI630
(lp606
sI631
(lp607
sI632
(lp608
sI633
(lp609
sI634
(lp610
sI635
(lp611
sI636
(lp612
sI637
(lp613
sI638
(lp614
sI639
(lp615
sI640
(lp616
sI641
(lp617
sI642
(lp618
sI643
(lp619
sI644
(lp620
sI645
(lp621
sI646
(lp622
sI647
(lp623
sI648
(lp624
sI649
(lp625
sI650
(lp626
sI651
(lp627
sI652
(lp628
sI653
(lp629
sI654
(lp630
sI655
(lp631
sI656
(lp632
sI657
(lp633
sI658
(lp634
sI659
(lp635
sI660
(lp636
sI661
(lp637
sI662
(lp638
sI663
(lp639
sI664
(lp640
sI665
(lp641
sI666
(lp642
sI667
(lp643
sI668
(lp644
sI669
(lp645
sI670
(lp646
sI671
(lp647
sI672
(lp648
sI673
(lp649
sI674
(lp650
sI675
(lp651
sI676
(lp652
sI677
(lp653
sI678
(lp654
sI679
(lp655
sI680
(lp656
sI681
(lp657
sI682
(lp658
sI683
(lp659
sI684
(lp660
sI685
(lp661
sI686
(lp662
sI687
(lp663
sI688
(lp664
sI689
(lp665
sI690
(lp666
sI691
(lp667
sI692
(lp668
sI693
(lp669
sI694
(lp670
sI695
(lp671
sI696
(lp672
sI697
(lp673
sI698
(lp674
sI699
(lp675
sI700
(lp676
sI701
(lp677
sI702
(lp678
sI703
(lp679
sI704
(lp680
sI705
(lp681
sI706
(lp682
sI707
(lp683
sI708
(lp684
sI709
(lp685
sI710
(lp686
sI711
(lp687
sI712
(lp688
sI713
(lp689
sI714
(lp690
sI715
(lp691
sI716
(lp692
sI717
(lp693
sI718
(lp694
sI719
(lp695
sI720
(lp696
sI721
(lp697
sI722
(lp698
sI723
(lp699
sI724
(lp700
sI725
(lp701
sI726
(lp702
sI727
(lp703
sI728
(lp704
sI729
(lp705
sI730
(lp706
sI731
(lp707
sI732
(lp708
sI733
(lp709
sI734
(lp710
sI735
(lp711
sI736
(lp712
sI737
(lp713
sI738
(lp714
sI739
(lp715
sI740
(lp716
sI741
(lp717
sI742
(lp718
sI743
(lp719
sI744
(lp720
sI745
(lp721
sI746
(lp722
sI747
(lp723
sI748
(lp724
sI749
(lp725
sI750
(lp726
sI751
(lp727
sI752
(lp728
sI753
(lp729
sI754
(lp730
sI755
(lp731
sI756
(lp732
sI757
(lp733
sI758
(lp734
sI759
(lp735
sI760
(lp736
sI761
(lp737
sI762
(lp738
sI763
(lp739
sI764
(lp740
sI765
(lp741
sI766
(lp742
sI767
(lp743
sI768
(lp744
sI769
(lp745
sI770
(lp746
sI771
(lp747
sI772
(lp748
sI773
(lp749
sI774
(lp750
sI775
(lp751
sI776
(lp752
sI777
(lp753
sI778
(lp754
sI779
(lp755
sI780
(lp756
sI781
(lp757
sI782
(lp758
sI783
(lp759
sI784
(lp760
sI785
(lp761
sI786
(lp762
sI787
(lp763
sI788
(lp764
sI789
(lp765
sI790
(lp766
sI791
(lp767
sI792
(lp768
sI793
(lp769
sI794
(lp770
sI795
(lp771
sI796
(lp772
sI797
(lp773
sI798
(lp774
sI799
(lp775
sI800
(lp776
sI801
(lp777
sI802
(lp778
sI803
(lp779
sI804
(lp780
sI806
(lp781
sI807
(lp782
sI808
(lp783
sI809
(lp784
sI810
(lp785
sI811
(lp786
sI812
(lp787
sI813
(lp788
sI814
(lp789
sI815
(lp790
sI816
(lp791
sI817
(lp792
sI818
(lp793
sI819
(lp794
sI820
(lp795
sI821
(lp796
sI822
(lp797
sI823
(lp798
sI824
(lp799
sI825
(lp800
sI826
(lp801
sI827
(lp802
sI828
(lp803
sI829
(lp804
sI830
(lp805
sI831
(lp806
sI832
(lp807
sI833
(lp808
sI834
(lp809
sI835
(lp810
sI836
(lp811
sI837
(lp812
sI838
(lp813
sI839
(lp814
sI840
(lp815
sI841
(lp816
sI842
(lp817
sI843
(lp818
sI844
(lp819
sI845
(lp820
sI846
(lp821
sI847
(lp822
sI848
(lp823
sI849
(lp824
sI850
(lp825
sI851
(lp826
sI852
(lp827
sI853
(lp828
sI854
(lp829
sI855
(lp830
sI856
(lp831
sI857
(lp832
sI858
(lp833
sI859
(lp834
sI860
(lp835
sI861
(lp836
sI862
(lp837
sI863
(lp838
sI864
(lp839
sI865
(lp840
sI866
(lp841
sI867
(lp842
sI868
(lp843
sI869
(lp844
sI870
(lp845
sI871
(lp846
sI872
(lp847
sI873
(lp848
sI874
(lp849
sI875
(lp850
sI876
(lp851
sI877
(lp852
sI878
(lp853
sI879
(lp854
sI880
(lp855
sI881
(lp856
sI882
(lp857
sI883
(lp858
sI884
(lp859
sI885
(lp860
sI886
(lp861
sI887
(lp862
sI888
(lp863
sI889
(lp864
sI890
(lp865
sI891
(lp866
sI892
(lp867
sI893
(lp868
sI894
(lp869
sI895
(lp870
sI896
(lp871
sI897
(lp872
sI898
(lp873
sI899
(lp874
sI900
(lp875
sI901
(lp876
sI902
(lp877
sI903
(lp878
sI904
(lp879
sI905
(lp880
sI906
(lp881
sI907
(lp882
sI908
(lp883
sI909
(lp884
sI910
(lp885
sI911
(lp886
sI912
(lp887
sI913
(lp888
sI914
(lp889
sI915
(lp890
sI916
(lp891
sI917
(lp892
sI918
(lp893
sI919
(lp894
sI920
(lp895
sI921
(lp896
sI922
(lp897
sI923
(lp898
sI924
(lp899
sI925
(lp900
sI926
(lp901
sI927
(lp902
sI928
(lp903
sI929
(lp904
sI930
(lp905
sI931
(lp906
sI932
(lp907
sI933
(lp908
sI934
(lp909
sI935
(lp910
sI936
(lp911
sI937
(lp912
sI938
(lp913
sI939
(lp914
sI940
(lp915
sI941
(lp916
sI942
(lp917
sI943
(lp918
sI944
(lp919
sI945
(lp920
sI946
(lp921
sI947
(lp922
sI948
(lp923
sI949
(lp924
sI950
(lp925
sI951
(lp926
sI952
(lp927
sI953
(lp928
sI954
(lp929
sI955
(lp930
sI956
(lp931
sI957
(lp932
sI958
(lp933
sI959
(lp934
sI960
(lp935
sI961
(lp936
sI962
(lp937
sI963
(lp938
sI964
(lp939
sI965
(lp940
sI966
(lp941
sI967
(lp942
sI968
(lp943
sI969
(lp944
sI970
(lp945
sI971
(lp946
sI972
(lp947
sI973
(lp948
sI974
(lp949
sI975
(lp950
sI976
(lp951
sI977
(lp952
sI978
(lp953
sI979
(lp954
sI980
(lp955
sI981
(lp956
sI982
(lp957
sI983
(lp958
sI984
(lp959
sI985
(lp960
sI986
(lp961
sI987
(lp962
sI988
(lp963
sI989
(lp964
sI990
(lp965
sI991
(lp966
sI992
(lp967
sI993
(lp968
sI994
(lp969
sI995
(lp970
sI996
(lp971
sI997
(lp972
sI998
(lp973
sI999
(lp974
sI1000
(lp975
sI1001
(lp976
sI1002
(lp977
sI1003
(lp978
sI1004
(lp979
sI1005
(lp980
sI1006
(lp981
sI1007
(lp982
sI1008
(lp983
sI1009
(lp984
sI1010
(lp985
sI1011
(lp986
sI1012
(lp987
sI1013
(lp988
sI1014
(lp989
sI1015
(lp990
sI1016
(lp991
sI1017
(lp992
sI1018
(lp993
sI1019
(lp994
sI1020
(lp995
sI1021
(lp996
sI1022
(lp997
sI1023
(lp998
sI1024
(lp999
sI1025
(lp1000
sI1026
(lp1001
sI1027
(lp1002
sI1028
(lp1003
sI1029
(lp1004
sI1030
(lp1005
sI1031
(lp1006
sI1032
(lp1007
sI1033
(lp1008
sI1034
(lp1009
sI1035
(lp1010
sI1036
(lp1011
sI1037
(lp1012
sI1038
(lp1013
sI1039
(lp1014
sI1040
(lp1015
sI1041
(lp1016
sI1042
(lp1017
sI1043
(lp1018
sI1044
(lp1019
sI1045
(lp1020
sI1046
(lp1021
sI1047
(lp1022
sI1048
(lp1023
sI1049
(lp1024
sI1050
(lp1025
sI1051
(lp1026
sI1052
(lp1027
sI1053
(lp1028
sI1054
(lp1029
sI1055
(lp1030
sI1056
(lp1031
sI1057
(lp1032
sI1058
(lp1033
sI1059
(lp1034
sI1060
(lp1035
sI1061
(lp1036
sI1062
(lp1037
sI1063
(lp1038
sI1064
(lp1039
sI1065
(lp1040
sI1066
(lp1041
sI1067
(lp1042
sI1068
(lp1043
sI1069
(lp1044
sI1070
(lp1045
sI1071
(lp1046
sI1072
(lp1047
sI1073
(lp1048
sI1074
(lp1049
sI1075
(lp1050
sI1076
(lp1051
sI1077
(lp1052
sI1078
(lp1053
sI1079
(lp1054
sI1080
(lp1055
sI1081
(lp1056
sI1082
(lp1057
sI1083
(lp1058
sI1084
(lp1059
sI1085
(lp1060
sI1086
(lp1061
sI1087
(lp1062
sI1088
(lp1063
sI1089
(lp1064
sI1090
(lp1065
sI1091
(lp1066
sI1092
(lp1067
sI1093
(lp1068
sI1094
(lp1069
sI1095
(lp1070
sI1096
(lp1071
sI1097
(lp1072
sI1099
(lp1073
sI1100
(lp1074
sI1102
(lp1075
sI1103
(lp1076
sI1104
(lp1077
sI1105
(lp1078
sI1106
(lp1079
sI1107
(lp1080
sI1108
(lp1081
sI1109
(lp1082
sI1110
(lp1083
sI1111
(lp1084
sI1112
(lp1085
sI1113
(lp1086
sI1114
(lp1087
sI1115
(lp1088
sI1116
(lp1089
sI1117
(lp1090
sI1118
(lp1091
sI1119
(lp1092
sI1120
(lp1093
sI1121
(lp1094
sI1122
(lp1095
sI1123
(lp1096
sI1124
(lp1097
sI1125
(lp1098
sI1126
(lp1099
sI1127
(lp1100
sI1128
(lp1101
sI1129
(lp1102
sI1130
(lp1103
sI1131
(lp1104
sI1132
(lp1105
sI1133
(lp1106
sI1134
(lp1107
sI1135
(lp1108
sI1136
(lp1109
sI1137
(lp1110
sI1138
(lp1111
sI1139
(lp1112
sI1140
(lp1113
sI1141
(lp1114
sI1142
(lp1115
sI1143
(lp1116
sI1144
(lp1117
sI1146
(lp1118
sI1147
(lp1119
sI1148
(lp1120
sI1149
(lp1121
sI1150
(lp1122
sI1151
(lp1123
sI1152
(lp1124
sI1153
(lp1125
sI1154
(lp1126
sI1155
(lp1127
sI1156
(lp1128
sI1157
(lp1129
sI1158
(lp1130
sI1159
(lp1131
sI1160
(lp1132
sI1161
(lp1133
sI1162
(lp1134
sI1163
(lp1135
sI1164
(lp1136
sI1165
(lp1137
sI1166
(lp1138
sI1167
(lp1139
sI1168
(lp1140
sI1169
(lp1141
sI1170
(lp1142
sI1171
(lp1143
sI1172
(lp1144
sI1173
(lp1145
sI1174
(lp1146
sI1175
(lp1147
sI1176
(lp1148
sI1177
(lp1149
sI1178
(lp1150
sI1179
(lp1151
sI1180
(lp1152
sI1181
(lp1153
sI1182
(lp1154
sI1183
(lp1155
sI1184
(lp1156
sI1185
(lp1157
sI1186
(lp1158
sI1187
(lp1159
sI1188
(lp1160
sI1189
(lp1161
sI1190
(lp1162
sI1191
(lp1163
sI1192
(lp1164
sI1193
(lp1165
sI1194
(lp1166
sI1195
(lp1167
sI1196
(lp1168
sI1197
(lp1169
sI1198
(lp1170
sI1199
(lp1171
sI1200
(lp1172
sI1201
(lp1173
sI1202
(lp1174
sI1203
(lp1175
sI1204
(lp1176
sI1205
(lp1177
sI1206
(lp1178
sI1207
(lp1179
sI1208
(lp1180
sI1209
(lp1181
sI1210
(lp1182
sI1211
(lp1183
sI1212
(lp1184
sI1213
(lp1185
sI1214
(lp1186
sI1215
(lp1187
sI1216
(lp1188
sI1217
(lp1189
sI1218
(lp1190
sI1219
(lp1191
sI1220
(lp1192
sI1221
(lp1193
sI1222
(lp1194
sI1223
(lp1195
sI1224
(lp1196
sI1225
(lp1197
sI1226
(lp1198
sI1227
(lp1199
sI1228
(lp1200
sI1229
(lp1201
sI1230
(lp1202
sI1231
(lp1203
sI1232
(lp1204
sI1233
(lp1205
sI1234
(lp1206
sI1235
(lp1207
sI1236
(lp1208
sI1237
(lp1209
sI1238
(lp1210
sI1239
(lp1211
sI1240
(lp1212
sI1241
(lp1213
sI1242
(lp1214
sI1243
(lp1215
sI1244
(lp1216
sI1245
(lp1217
sI1246
(lp1218
sI1247
(lp1219
sI1248
(lp1220
sI1249
(lp1221
sI1250
(lp1222
sI1251
(lp1223
sI1252
(lp1224
sI1253
(lp1225
sI1254
(lp1226
sI1255
(lp1227
sI1256
(lp1228
sI1257
(lp1229
sI1258
(lp1230
sI1259
(lp1231
sI1260
(lp1232
sI1261
(lp1233
sI1262
(lp1234
sI1263
(lp1235
sI1264
(lp1236
sI1265
(lp1237
sI1266
(lp1238
sI1267
(lp1239
sI1268
(lp1240
sI1269
(lp1241
sI1270
(lp1242
sI1271
(lp1243
sI1272
(lp1244
sI1273
(lp1245
sI1274
(lp1246
sI1275
(lp1247
sI1276
(lp1248
sI1277
(lp1249
sI1278
(lp1250
sI1279
(lp1251
sI1280
(lp1252
sI1281
(lp1253
sI1282
(lp1254
sI1283
(lp1255
sI1284
(lp1256
sI1285
(lp1257
sI1286
(lp1258
sI1287
(lp1259
sI1288
(lp1260
sI1289
(lp1261
sI1290
(lp1262
sI1291
(lp1263
sI1292
(lp1264
sI1293
(lp1265
sI1294
(lp1266
sI1295
(lp1267
sI1296
(lp1268
sI1297
(lp1269
sI1298
(lp1270
sI1299
(lp1271
sI1300
(lp1272
sI1301
(lp1273
sI1302
(lp1274
sI1303
(lp1275
sI1304
(lp1276
sI1305
(lp1277
sI1306
(lp1278
sI1307
(lp1279
sI1308
(lp1280
sI1309
(lp1281
sI1310
(lp1282
sI1311
(lp1283
sI1312
(lp1284
sI1313
(lp1285
sI1314
(lp1286
sI1315
(lp1287
sI1316
(lp1288
sI1317
(lp1289
sI1318
(lp1290
sI1319
(lp1291
sI1320
(lp1292
sI1321
(lp1293
sI1322
(lp1294
sI1323
(lp1295
sI1324
(lp1296
sI1325
(lp1297
sI1326
(lp1298
sI1327
(lp1299
sI1328
(lp1300
sI1329
(lp1301
sI1330
(lp1302
sI1331
(lp1303
sI1332
(lp1304
sI1333
(lp1305
sI1334
(lp1306
sI1335
(lp1307
sI1336
(lp1308
sI1337
(lp1309
sI1338
(lp1310
sI1339
(lp1311
sI1340
(lp1312
sI1342
(lp1313
sI1343
(lp1314
sI1344
(lp1315
sI1345
(lp1316
sI1346
(lp1317
sI1347
(lp1318
sI1348
(lp1319
sI1349
(lp1320
sI1350
(lp1321
sI1351
(lp1322
sI1352
(lp1323
sI1353
(lp1324
sI1354
(lp1325
sI1355
(lp1326
sI1356
(lp1327
sI1357
(lp1328
sI1358
(lp1329
sI1359
(lp1330
sI1360
(lp1331
sI1361
(lp1332
sI1362
(lp1333
sI1363
(lp1334
sI1364
(lp1335
sI1365
(lp1336
sI1366
(lp1337
sI1367
(lp1338
sI1368
(lp1339
sI1369
(lp1340
sI1370
(lp1341
sI1371
(lp1342
sI1372
(lp1343
sI1373
(lp1344
sI1374
(lp1345
sI1375
(lp1346
sI1376
(lp1347
sI1377
(lp1348
sI1378
(lp1349
sI1379
(lp1350
sI1380
(lp1351
sI1381
(lp1352
sI1382
(lp1353
sI1383
(lp1354
sI1384
(lp1355
sI1385
(lp1356
sI1386
(lp1357
sI1387
(lp1358
sI1388
(lp1359
sI1389
(lp1360
sI1390
(lp1361
sI1391
(lp1362
sI1392
(lp1363
sI1393
(lp1364
sI1394
(lp1365
sI1395
(lp1366
sI1396
(lp1367
sI1397
(lp1368
sI1398
(lp1369
sI1399
(lp1370
sI1400
(lp1371
sI1401
(lp1372
sI1402
(lp1373
sI1403
(lp1374
sI1404
(lp1375
sI1405
(lp1376
sI1406
(lp1377
sI1407
(lp1378
sI1408
(lp1379
sI1409
(lp1380
sI1410
(lp1381
sI1411
(lp1382
sI1412
(lp1383
sI1414
(lp1384
sI1415
(lp1385
sI1416
(lp1386
sI1417
(lp1387
sI1418
(lp1388
sI1419
(lp1389
sI1420
(lp1390
sI1421
(lp1391
sI1422
(lp1392
sI1423
(lp1393
sI1424
(lp1394
sI1425
(lp1395
sI1426
(lp1396
sI1427
(lp1397
sI1428
(lp1398
sI1429
(lp1399
sI1430
(lp1400
sI1431
(lp1401
sI1432
(lp1402
sI1433
(lp1403
sI1434
(lp1404
sI1435
(lp1405
sI1436
(lp1406
sI1437
(lp1407
sI1438
(lp1408
sI1439
(lp1409
sI1440
(lp1410
sI1441
(lp1411
sI1442
(lp1412
sI1443
(lp1413
sI1444
(lp1414
sI1445
(lp1415
sI1446
(lp1416
sI1447
(lp1417
sI1448
(lp1418
sI1449
(lp1419
sI1450
(lp1420
sI1451
(lp1421
sI1452
(lp1422
sI1453
(lp1423
sI1454
(lp1424
sI1455
(lp1425
sI1456
(lp1426
sI1457
(lp1427
sI1458
(lp1428
sI1459
(lp1429
sI1460
(lp1430
sI1461
(lp1431
sI1462
(lp1432
sI1463
(lp1433
sI1464
(lp1434
sI1465
(lp1435
sI1466
(lp1436
sI1467
(lp1437
sI1468
(lp1438
sI1469
(lp1439
sI1470
(lp1440
sI1471
(lp1441
sI1472
(lp1442
sI1473
(lp1443
sI1474
(lp1444
sI1475
(lp1445
sI1476
(lp1446
sI1477
(lp1447
sI1478
(lp1448
sI1479
(lp1449
sI1480
(lp1450
sI1481
(lp1451
sI1482
(lp1452
sI1483
(lp1453
sI1484
(lp1454
sI1485
(lp1455
sI1486
(lp1456
sI1487
(lp1457
sI1488
(lp1458
sI1489
(lp1459
sI1490
(lp1460
sI1491
(lp1461
sI1492
(lp1462
sI1493
(lp1463
sI1494
(lp1464
sI1495
(lp1465
sI1496
(lp1466
sI1497
(lp1467
sI1498
(lp1468
sI1499
(lp1469
sI1500
(lp1470
sI1501
(lp1471
sI1502
(lp1472
sI1503
(lp1473
sI1504
(lp1474
sI1505
(lp1475
sI1506
(lp1476
sI1507
(lp1477
sI1508
(lp1478
sI1509
(lp1479
sI1510
(lp1480
sI1511
(lp1481
sI1512
(lp1482
sI1513
(lp1483
sI1514
(lp1484
sI1515
(lp1485
sI1516
(lp1486
sI1517
(lp1487
sI1518
(lp1488
sI1519
(lp1489
sI1520
(lp1490
sI1521
(lp1491
sI1522
(lp1492
sI1523
(lp1493
sI1524
(lp1494
sI1525
(lp1495
sI1526
(lp1496
sI1527
(lp1497
sI1528
(lp1498
sI1529
(lp1499
sI1530
(lp1500
sI1531
(lp1501
sI1532
(lp1502
sI1533
(lp1503
sI1534
(lp1504
sI1535
(lp1505
sI1536
(lp1506
sI1537
(lp1507
sI1538
(lp1508
sI1539
(lp1509
sI1540
(lp1510
sI1541
(lp1511
sI1542
(lp1512
sI1543
(lp1513
sI1544
(lp1514
sI1545
(lp1515
sI1546
(lp1516
sI1547
(lp1517
sI1548
(lp1518
sI1549
(lp1519
sI1550
(lp1520
sI1551
(lp1521
sI1552
(lp1522
sI1553
(lp1523
sI1554
(lp1524
sI1555
(lp1525
sI1556
(lp1526
sI1557
(lp1527
sI1558
(lp1528
sI1559
(lp1529
sI1560
(lp1530
sI1561
(lp1531
sI1562
(lp1532
sI1563
(lp1533
sI1564
(lp1534
sI1565
(lp1535
sI1566
(lp1536
sI1567
(lp1537
sI1568
(lp1538
sI1569
(lp1539
sI1570
(lp1540
sI1571
(lp1541
sI1572
(lp1542
sI1573
(lp1543
sI1574
(lp1544
sI1575
(lp1545
sI1576
(lp1546
sI1577
(lp1547
sI1578
(lp1548
sI1579
(lp1549
sI1580
(lp1550
sI1581
(lp1551
sI1582
(lp1552
sI1583
(lp1553
sI1584
(lp1554
sI1585
(lp1555
sI1586
(lp1556
sI1587
(lp1557
sI1588
(lp1558
sI1589
(lp1559
sI1590
(lp1560
sI1591
(lp1561
sI1592
(lp1562
sI1593
(lp1563
sI1594
(lp1564
sI1595
(lp1565
sI1596
(lp1566
sI1597
(lp1567
sI1598
(lp1568
sI1599
(lp1569
sI1600
(lp1570
sI1601
(lp1571
sI1602
(lp1572
sI1603
(lp1573
sI1604
(lp1574
sI1605
(lp1575
sI1606
(lp1576
sI1607
(lp1577
sI1608
(lp1578
sI1609
(lp1579
sI1610
(lp1580
sI1611
(lp1581
sI1612
(lp1582
sI1613
(lp1583
sI1614
(lp1584
sI1615
(lp1585
sI1616
(lp1586
sI1617
(lp1587
sI1618
(lp1588
sI1619
(lp1589
sI1620
(lp1590
sI1621
(lp1591
sI1622
(lp1592
sI1623
(lp1593
sI1624
(lp1594
sI1625
(lp1595
sI1626
(lp1596
sI1627
(lp1597
sI1628
(lp1598
sI1629
(lp1599
sI1630
(lp1600
sI1631
(lp1601
sI1632
(lp1602
sI1633
(lp1603
sI1634
(lp1604
sI1635
(lp1605
sI1636
(lp1606
sI1637
(lp1607
sI1638
(lp1608
sI1639
(lp1609
sI1640
(lp1610
sI1641
(lp1611
sI1642
(lp1612
sI1643
(lp1613
sI1644
(lp1614
sI1645
(lp1615
sI1646
(lp1616
sI1647
(lp1617
sI1648
(lp1618
sI1649
(lp1619
sI1650
(lp1620
sI1651
(lp1621
sI1652
(lp1622
sI1653
(lp1623
sI1654
(lp1624
sI1655
(lp1625
sI1656
(lp1626
sI1657
(lp1627
sI1658
(lp1628
sI1659
(lp1629
sI1660
(lp1630
sI1661
(lp1631
sI1662
(lp1632
sI1663
(lp1633
sI1664
(lp1634
sI1665
(lp1635
sI1666
(lp1636
sI1667
(lp1637
sI1668
(lp1638
sI1669
(lp1639
sI1670
(lp1640
sI1671
(lp1641
sI1672
(lp1642
sI1673
(lp1643
sI1674
(lp1644
sI1675
(lp1645
sI1676
(lp1646
sI1677
(lp1647
sI1678
(lp1648
sI1679
(lp1649
sI1680
(lp1650
sI1681
(lp1651
sI1682
(lp1652
sI1683
(lp1653
sI1684
(lp1654
sI1685
(lp1655
sI1686
(lp1656
sI1687
(lp1657
sI1688
(lp1658
sI1689
(lp1659
sI1690
(lp1660
sI1691
(lp1661
sI1692
(lp1662
sI1693
(lp1663
sI1694
(lp1664
sI1695
(lp1665
sI1696
(lp1666
sI1697
(lp1667
sI1698
(lp1668
sI1699
(lp1669
sI1700
(lp1670
sI1701
(lp1671
sI1702
(lp1672
sI1703
(lp1673
sI1704
(lp1674
sI1705
(lp1675
sI1706
(lp1676
sI1707
(lp1677
sI1708
(lp1678
sI1709
(lp1679
sI1710
(lp1680
sI1711
(lp1681
sI1712
(lp1682
sI1713
(lp1683
sI1714
(lp1684
sI1715
(lp1685
sI1716
(lp1686
sI1717
(lp1687
sI1718
(lp1688
sI1719
(lp1689
sI1720
(lp1690
sI1721
(lp1691
sI1722
(lp1692
sI1723
(lp1693
sI1724
(lp1694
sI1725
(lp1695
sI1726
(lp1696
sI1727
(lp1697
sI1728
(lp1698
sI1729
(lp1699
sI1730
(lp1700
sI1731
(lp1701
sI1732
(lp1702
sI1733
(lp1703
sI1734
(lp1704
sI1735
(lp1705
sI1736
(lp1706
sI1737
(lp1707
sI1738
(lp1708
sI1739
(lp1709
sI1740
(lp1710
sI1741
(lp1711
sI1742
(lp1712
sI1743
(lp1713
sI1744
(lp1714
sI1745
(lp1715
sI1746
(lp1716
sI1748
(lp1717
sI1749
(lp1718
sI1750
(lp1719
sI1751
(lp1720
sI1752
(lp1721
sI1753
(lp1722
sI1754
(lp1723
sI1755
(lp1724
sI1756
(lp1725
sI1757
(lp1726
sI1758
(lp1727
sI1759
(lp1728
sI1760
(lp1729
sI1761
(lp1730
sI1762
(lp1731
sI1763
(lp1732
sI1764
(lp1733
sI1765
(lp1734
sI1766
(lp1735
sI1767
(lp1736
sI1768
(lp1737
sI1769
(lp1738
sI1770
(lp1739
sI1771
(lp1740
sI1772
(lp1741
sI1773
(lp1742
sI1774
(lp1743
sI1775
(lp1744
sI1776
(lp1745
sI1777
(lp1746
sI1778
(lp1747
sI1779
(lp1748
sI1780
(lp1749
sI1781
(lp1750
sI1782
(lp1751
sI1783
(lp1752
sI1784
(lp1753
sI1785
(lp1754
sI1786
(lp1755
sI1787
(lp1756
sI1788
(lp1757
sI1789
(lp1758
sI1790
(lp1759
sI1791
(lp1760
sI1792
(lp1761
sI1793
(lp1762
sI1794
(lp1763
sI1795
(lp1764
sI1796
(lp1765
sI1797
(lp1766
sI1798
(lp1767
sI1799
(lp1768
sI1800
(lp1769
sI1801
(lp1770
sI1802
(lp1771
sI1803
(lp1772
sI1804
(lp1773
sI1805
(lp1774
sI1806
(lp1775
sI1807
(lp1776
sI1808
(lp1777
sI1809
(lp1778
sI1810
(lp1779
sI1811
(lp1780
sI1812
(lp1781
sI1813
(lp1782
sI1814
(lp1783
sI1815
(lp1784
sI1816
(lp1785
sI1817
(lp1786
sI1818
(lp1787
sI1819
(lp1788
sI1820
(lp1789
sI1821
(lp1790
sI1822
(lp1791
sI1823
(lp1792
sI1824
(lp1793
sI1825
(lp1794
sI1826
(lp1795
sI1827
(lp1796
sI1828
(lp1797
sI1829
(lp1798
sI1830
(lp1799
sI1831
(lp1800
sI1832
(lp1801
sI1833
(lp1802
sI1834
(lp1803
sI1835
(lp1804
sI1836
(lp1805
sI1837
(lp1806
sI1838
(lp1807
sI1839
(lp1808
sI1840
(lp1809
sI1841
(lp1810
sI1842
(lp1811
sI1843
(lp1812
sI1844
(lp1813
sI1845
(lp1814
sI1846
(lp1815
sI1847
(lp1816
sI1848
(lp1817
sI1849
(lp1818
sI1850
(lp1819
sI1851
(lp1820
sI1853
(lp1821
sI1854
(lp1822
sI1855
(lp1823
sI1856
(lp1824
sI1857
(lp1825
sI1858
(lp1826
sI1859
(lp1827
sI1860
(lp1828
sI1861
(lp1829
sI1862
(lp1830
sI1863
(lp1831
sI1864
(lp1832
sI1865
(lp1833
sI1866
(lp1834
sI1867
(lp1835
sI1868
(lp1836
sI1869
(lp1837
sI1870
(lp1838
sI1871
(lp1839
sI1872
(lp1840
sI1873
(lp1841
sI1874
(lp1842
sI1875
(lp1843
sI1876
(lp1844
sI1877
(lp1845
sI1878
(lp1846
sI1879
(lp1847
sI1880
(lp1848
sI1881
(lp1849
sI1882
(lp1850
sI1883
(lp1851
sI1884
(lp1852
sI1885
(lp1853
sI1886
(lp1854
sI1887
(lp1855
sI1888
(lp1856
sI1889
(lp1857
sI1890
(lp1858
sI1891
(lp1859
sI1892
(lp1860
sI1893
(lp1861
sI1894
(lp1862
sI1895
(lp1863
sI1896
(lp1864
sI1897
(lp1865
sI1898
(lp1866
sI1899
(lp1867
sI1900
(lp1868
sI1901
(lp1869
sI1902
(lp1870
sI1903
(lp1871
sI1904
(lp1872
sI1905
(lp1873
sI1906
(lp1874
sI1907
(lp1875
sI1908
(lp1876
sI1909
(lp1877
sI1910
(lp1878
sI1911
(lp1879
sI1912
(lp1880
sI1913
(lp1881
sI1914
(lp1882
sI1915
(lp1883
sI1916
(lp1884
sI1917
(lp1885
sI1918
(lp1886
sI1919
(lp1887
sI1920
(lp1888
sI1921
(lp1889
sI1922
(lp1890
sI1923
(lp1891
sI1924
(lp1892
sI1925
(lp1893
sI1926
(lp1894
sI1927
(lp1895
sI1928
(lp1896
sI1929
(lp1897
sI1930
(lp1898
sI1931
(lp1899
sI1932
(lp1900
sI1933
(lp1901
sI1934
(lp1902
sI1935
(lp1903
sI1936
(lp1904
sI1937
(lp1905
sI1938
(lp1906
sI1939
(lp1907
sI1940
(lp1908
sI1941
(lp1909
sI1942
(lp1910
sI1943
(lp1911
sI1944
(lp1912
sI1945
(lp1913
sI1946
(lp1914
sI1947
(lp1915
sI1948
(lp1916
sI1949
(lp1917
sI1950
(lp1918
sI1951
(lp1919
sI1952
(lp1920
sI1953
(lp1921
sI1954
(lp1922
sI1955
(lp1923
sI1956
(lp1924
sI1957
(lp1925
sI1958
(lp1926
sI1959
(lp1927
sI1960
(lp1928
sI1961
(lp1929
sI1962
(lp1930
sI1963
(lp1931
sI1964
(lp1932
sI1965
(lp1933
sI1966
(lp1934
sI1967
(lp1935
sI1968
(lp1936
sI1969
(lp1937
sI1970
(lp1938
sI1971
(lp1939
sI1972
(lp1940
sI1973
(lp1941
sI1974
(lp1942
sI1975
(lp1943
sI1976
(lp1944
sI1977
(lp1945
sI1978
(lp1946
sI1979
(lp1947
sI1980
(lp1948
sI1981
(lp1949
sI1982
(lp1950
sI1983
(lp1951
sI1984
(lp1952
sI1985
(lp1953
sI1986
(lp1954
sI1987
(lp1955
sI1988
(lp1956
sI1989
(lp1957
sI1990
(lp1958
sI1991
(lp1959
sI1992
(lp1960
sI1993
(lp1961
sI1994
(lp1962
sI1995
(lp1963
sI1996
(lp1964
sI1997
(lp1965
sI1998
(lp1966
sI1999
(lp1967
sI2000
(lp1968
sI2001
(lp1969
sI2002
(lp1970
sI2003
(lp1971
sI2004
(lp1972
sI2005
(lp1973
sI2006
(lp1974
sI2007
(lp1975
sI2008
(lp1976
sI2009
(lp1977
sI2010
(lp1978
sI2011
(lp1979
sI2012
(lp1980
sI2013
(lp1981
sI2014
(lp1982
sI2015
(lp1983
sI2016
(lp1984
sI2017
(lp1985
sI2018
(lp1986
sI2019
(lp1987
sI2020
(lp1988
sI2021
(lp1989
sI2022
(lp1990
sI2023
(lp1991
sI2024
(lp1992
sI2025
(lp1993
sI2026
(lp1994
sI2027
(lp1995
sI2028
(lp1996
sI2029
(lp1997
sI2030
(lp1998
sI2031
(lp1999
sI2032
(lp2000
sI2033
(lp2001
sI2034
(lp2002
sI2035
(lp2003
sI2036
(lp2004
sI2037
(lp2005
sI2038
(lp2006
sI2039
(lp2007
sI2040
(lp2008
sI2041
(lp2009
sI2042
(lp2010
sI2043
(lp2011
sI2044
(lp2012
sI2045
(lp2013
sI2046
(lp2014
sI2047
(lp2015
sI2048
(lp2016
sI2049
(lp2017
sI2050
(lp2018
sI2051
(lp2019
sI2052
(lp2020
sI2053
(lp2021
sI2054
(lp2022
sI2055
(lp2023
sI2056
(lp2024
sI2057
(lp2025
sI2058
(lp2026
sI2059
(lp2027
sI2060
(lp2028
sI2061
(lp2029
sI2062
(lp2030
sI2063
(lp2031
sI2064
(lp2032
sI2065
(lp2033
sI2066
(lp2034
sI2067
(lp2035
sI2068
(lp2036
sI2069
(lp2037
sI2070
(lp2038
sI2071
(lp2039
sI2072
(lp2040
sI2073
(lp2041
sI2074
(lp2042
sI2075
(lp2043
sI2076
(lp2044
sI2077
(lp2045
sI2078
(lp2046
sI2079
(lp2047
sI2080
(lp2048
sI2081
(lp2049
sI2082
(lp2050
sI2083
(lp2051
sI2084
(lp2052
sI2085
(lp2053
sI2086
(lp2054
sI2087
(lp2055
sI2088
(lp2056
sI2089
(lp2057
sI2090
(lp2058
sI2091
(lp2059
sI2092
(lp2060
sI2093
(lp2061
sI2094
(lp2062
sI2095
(lp2063
sI2096
(lp2064
sI2097
(lp2065
sI2098
(lp2066
sI2099
(lp2067
sI2100
(lp2068
sI2101
(lp2069
sI2102
(lp2070
sI2103
(lp2071
sI2104
(lp2072
sI2105
(lp2073
sI2106
(lp2074
sI2107
(lp2075
sI2108
(lp2076
sI2109
(lp2077
sI2110
(lp2078
sI2111
(lp2079
sI2112
(lp2080
sI2113
(lp2081
sI2114
(lp2082
sI2115
(lp2083
sI2116
(lp2084
sI2117
(lp2085
sI2118
(lp2086
sI2119
(lp2087
sI2120
(lp2088
sI2121
(lp2089
sI2122
(lp2090
sI2123
(lp2091
sI2124
(lp2092
sI2125
(lp2093
sI2126
(lp2094
sI2127
(lp2095
sI2128
(lp2096
sI2129
(lp2097
sI2130
(lp2098
sI2131
(lp2099
sI2132
(lp2100
sI2133
(lp2101
sI2134
(lp2102
sI2135
(lp2103
sI2136
(lp2104
sI2137
(lp2105
sI2138
(lp2106
sI2139
(lp2107
sI2140
(lp2108
sI2141
(lp2109
sI2142
(lp2110
sI2143
(lp2111
sI2144
(lp2112
sI2145
(lp2113
sI2146
(lp2114
sI2147
(lp2115
sI2148
(lp2116
sI2149
(lp2117
sI2150
(lp2118
sI2151
(lp2119
sI2152
(lp2120
sI2153
(lp2121
sI2154
(lp2122
sI2155
(lp2123
sI2156
(lp2124
sI2157
(lp2125
sI2158
(lp2126
sI2159
(lp2127
sI2160
(lp2128
sI2161
(lp2129
sI2162
(lp2130
sI2163
(lp2131
sI2164
(lp2132
sI2165
(lp2133
sI2166
(lp2134
sI2167
(lp2135
sI2168
(lp2136
sI2169
(lp2137
sI2170
(lp2138
sI2171
(lp2139
sI2172
(lp2140
sI2173
(lp2141
sI2174
(lp2142
sI2175
(lp2143
sI2176
(lp2144
sI2177
(lp2145
sI2178
(lp2146
sI2179
(lp2147
sI2180
(lp2148
sI2181
(lp2149
sI2182
(lp2150
sI2183
(lp2151
sI2184
(lp2152
sI2185
(lp2153
sI2186
(lp2154
sI2187
(lp2155
sI2188
(lp2156
sI2189
(lp2157
sI2190
(lp2158
sI2191
(lp2159
sI2192
(lp2160
sI2193
(lp2161
sI2194
(lp2162
sI2195
(lp2163
sI2196
(lp2164
sI2197
(lp2165
sI2198
(lp2166
sI2199
(lp2167
sI2200
(lp2168
sI2201
(lp2169
sI2202
(lp2170
sI2203
(lp2171
sI2204
(lp2172
sI2205
(lp2173
sI2206
(lp2174
sI2207
(lp2175
sI2208
(lp2176
sI2209
(lp2177
sI2210
(lp2178
sI2211
(lp2179
sI2212
(lp2180
sI2213
(lp2181
sI2214
(lp2182
sI2215
(lp2183
sI2216
(lp2184
sI2217
(lp2185
sI2218
(lp2186
sI2219
(lp2187
sI2220
(lp2188
sI2221
(lp2189
sI2222
(lp2190
sI2223
(lp2191
sI2224
(lp2192
sI2225
(lp2193
sI2226
(lp2194
sI2227
(lp2195
sI2228
(lp2196
sI2229
(lp2197
sI2230
(lp2198
sI2231
(lp2199
sI2232
(lp2200
sI2233
(lp2201
sI2234
(lp2202
sI2235
(lp2203
sI2236
(lp2204
sI2237
(lp2205
sI2239
(lp2206
sI2240
(lp2207
sI2241
(lp2208
sI2242
(lp2209
sI2243
(lp2210
sI2244
(lp2211
sI2245
(lp2212
sI2246
(lp2213
sI2247
(lp2214
sI2248
(lp2215
sI2249
(lp2216
sI2250
(lp2217
sI2251
(lp2218
sI2252
(lp2219
sI2253
(lp2220
sI2254
(lp2221
sI2255
(lp2222
sI2256
(lp2223
sI2257
(lp2224
sI2258
(lp2225
sI2259
(lp2226
sI2260
(lp2227
sI2261
(lp2228
sI2262
(lp2229
sI2263
(lp2230
sI2264
(lp2231
sI2265
(lp2232
sI2266
(lp2233
sI2267
(lp2234
sI2268
(lp2235
sI2269
(lp2236
sI2270
(lp2237
sI2271
(lp2238
sI2272
(lp2239
sI2273
(lp2240
sI2274
(lp2241
sI2275
(lp2242
sI2276
(lp2243
sI2277
(lp2244
sI2278
(lp2245
sI2279
(lp2246
sI2280
(lp2247
sI2281
(lp2248
sI2282
(lp2249
sI2283
(lp2250
sI2284
(lp2251
sI2285
(lp2252
sI2286
(lp2253
sI2287
(lp2254
sI2288
(lp2255
sI2289
(lp2256
sI2290
(lp2257
sI2291
(lp2258
sI2292
(lp2259
sI2293
(lp2260
sI2294
(lp2261
sI2295
(lp2262
sI2296
(lp2263
sI2297
(lp2264
sI2298
(lp2265
sI2299
(lp2266
sI2300
(lp2267
sI2301
(lp2268
sI2302
(lp2269
sI2303
(lp2270
sI2304
(lp2271
sI2305
(lp2272
sI2306
(lp2273
sI2307
(lp2274
sI2308
(lp2275
sI2309
(lp2276
sI2310
(lp2277
sI2311
(lp2278
sI2312
(lp2279
sI2313
(lp2280
sI2314
(lp2281
sI2315
(lp2282
sI2316
(lp2283
sI2317
(lp2284
sI2318
(lp2285
sI2319
(lp2286
sI2320
(lp2287
sI2321
(lp2288
sI2322
(lp2289
sI2323
(lp2290
sI2324
(lp2291
sI2325
(lp2292
sI2326
(lp2293
sI2327
(lp2294
sI2328
(lp2295
sI2329
(lp2296
sI2330
(lp2297
sI2331
(lp2298
sI2332
(lp2299
sI2333
(lp2300
sI2334
(lp2301
sI2335
(lp2302
sI2336
(lp2303
sI2337
(lp2304
sI2338
(lp2305
sI2339
(lp2306
sI2340
(lp2307
sI2341
(lp2308
sI2342
(lp2309
sI2343
(lp2310
sI2344
(lp2311
sI2345
(lp2312
sI2346
(lp2313
sI2347
(lp2314
sI2348
(lp2315
sI2349
(lp2316
sI2350
(lp2317
sI2351
(lp2318
sI2352
(lp2319
sI2353
(lp2320
sI2354
(lp2321
sI2355
(lp2322
sI2356
(lp2323
sI2357
(lp2324
sI2358
(lp2325
sI2359
(lp2326
sI2360
(lp2327
sI2361
(lp2328
sI2362
(lp2329
sI2363
(lp2330
sI2364
(lp2331
sI2365
(lp2332
sI2366
(lp2333
sI2367
(lp2334
sI2368
(lp2335
sI2369
(lp2336
sI2370
(lp2337
sI2371
(lp2338
sI2372
(lp2339
sI2373
(lp2340
sI2374
(lp2341
sI2375
(lp2342
sI2376
(lp2343
sI2377
(lp2344
sI2378
(lp2345
sI2379
(lp2346
sI2380
(lp2347
sI2381
(lp2348
sI2382
(lp2349
sI2383
(lp2350
sI2384
(lp2351
sI2385
(lp2352
sI2386
(lp2353
sI2387
(lp2354
sI2388
(lp2355
sI2389
(lp2356
sI2390
(lp2357
sI2391
(lp2358
sI2392
(lp2359
sI2393
(lp2360
sI2394
(lp2361
sI2395
(lp2362
sI2396
(lp2363
sI2397
(lp2364
sI2398
(lp2365
sI2399
(lp2366
sI2400
(lp2367
sI2401
(lp2368
sI2402
(lp2369
sI2403
(lp2370
sI2404
(lp2371
sI2405
(lp2372
sI2406
(lp2373
sI2407
(lp2374
sI2408
(lp2375
sI2409
(lp2376
sI2410
(lp2377
sI2411
(lp2378
sI2412
(lp2379
sI2413
(lp2380
sI2414
(lp2381
sI2415
(lp2382
sI2416
(lp2383
sI2417
(lp2384
sI2418
(lp2385
sI2419
(lp2386
sI2420
(lp2387
sI2421
(lp2388
sI2422
(lp2389
sI2423
(lp2390
sI2424
(lp2391
sI2425
(lp2392
sI2426
(lp2393
sI2427
(lp2394
sI2428
(lp2395
sI2429
(lp2396
sI2430
(lp2397
sI2431
(lp2398
sI2432
(lp2399
sI2433
(lp2400
sI2434
(lp2401
sI2435
(lp2402
sI2436
(lp2403
sI2437
(lp2404
sI2438
(lp2405
sI2439
(lp2406
sI2440
(lp2407
sI2441
(lp2408
sI2442
(lp2409
sI2443
(lp2410
sI2444
(lp2411
sI2445
(lp2412
sI2446
(lp2413
sI2447
(lp2414
sI2448
(lp2415
sI2449
(lp2416
sI2450
(lp2417
sI2451
(lp2418
sI2452
(lp2419
sI2453
(lp2420
sI2454
(lp2421
sI2455
(lp2422
sI2456
(lp2423
sI2457
(lp2424
sI2458
(lp2425
sI2459
(lp2426
sI2460
(lp2427
sI2461
(lp2428
sI2462
(lp2429
sI2463
(lp2430
sI2464
(lp2431
sI2465
(lp2432
sI2466
(lp2433
sI2467
(lp2434
sI2468
(lp2435
sI2469
(lp2436
sI2470
(lp2437
sI2471
(lp2438
sI2472
(lp2439
sI2473
(lp2440
sI2474
(lp2441
sI2475
(lp2442
sI2476
(lp2443
sI2477
(lp2444
sI2478
(lp2445
sI2479
(lp2446
sI2480
(lp2447
sI2481
(lp2448
sI2482
(lp2449
sI2483
(lp2450
sI2484
(lp2451
sI2485
(lp2452
sI2486
(lp2453
sI2487
(lp2454
sI2488
(lp2455
sI2489
(lp2456
sI2490
(lp2457
sI2491
(lp2458
sI2492
(lp2459
sI2493
(lp2460
sI2494
(lp2461
sI2495
(lp2462
sI2496
(lp2463
sI2497
(lp2464
sI2498
(lp2465
sI2499
(lp2466
sI2500
(lp2467
sI2501
(lp2468
sI2502
(lp2469
sI2503
(lp2470
sI2504
(lp2471
sI2505
(lp2472
sI2506
(lp2473
sI2507
(lp2474
sI2508
(lp2475
sI2509
(lp2476
sI2510
(lp2477
sI2511
(lp2478
sI2512
(lp2479
sI2513
(lp2480
sI2514
(lp2481
sI2515
(lp2482
sI2516
(lp2483
sI2517
(lp2484
sI2518
(lp2485
sI2519
(lp2486
sI2520
(lp2487
sI2521
(lp2488
sI2522
(lp2489
sI2523
(lp2490
sI2524
(lp2491
sI2525
(lp2492
sI2526
(lp2493
sI2527
(lp2494
sI2528
(lp2495
sI2529
(lp2496
sI2530
(lp2497
sI2531
(lp2498
sI2532
(lp2499
sI2533
(lp2500
sI2534
(lp2501
sI2535
(lp2502
sI2536
(lp2503
sI2537
(lp2504
sI2538
(lp2505
sI2539
(lp2506
sI2540
(lp2507
sI2541
(lp2508
sI2542
(lp2509
sI2543
(lp2510
sI2544
(lp2511
sI2545
(lp2512
sI2546
(lp2513
sI2547
(lp2514
sI2548
(lp2515
sI2549
(lp2516
sI2550
(lp2517
sI2551
(lp2518
sI2552
(lp2519
sI2553
(lp2520
sI2554
(lp2521
sI2555
(lp2522
sI2556
(lp2523
sI2557
(lp2524
sI2558
(lp2525
sI2559
(lp2526
sI2560
(lp2527
sI2561
(lp2528
sI2562
(lp2529
sI2563
(lp2530
sI2564
(lp2531
sI2565
(lp2532
sI2566
(lp2533
sI2567
(lp2534
sI2568
(lp2535
sI2569
(lp2536
sI2570
(lp2537
sI2571
(lp2538
sI2572
(lp2539
sI2573
(lp2540
sI2574
(lp2541
sI2575
(lp2542
sI2576
(lp2543
sI2577
(lp2544
sI2578
(lp2545
sI2579
(lp2546
sI2580
(lp2547
sI2581
(lp2548
sI2582
(lp2549
sI2583
(lp2550
sI2584
(lp2551
sI2585
(lp2552
sI2586
(lp2553
sI2587
(lp2554
sI2588
(lp2555
sI2589
(lp2556
sI2590
(lp2557
sI2591
(lp2558
sI2592
(lp2559
sI2593
(lp2560
sI2594
(lp2561
sI2595
(lp2562
sI2596
(lp2563
sI2597
(lp2564
sI2598
(lp2565
sI2599
(lp2566
sI2600
(lp2567
sI2601
(lp2568
sI2602
(lp2569
sI2603
(lp2570
sI2604
(lp2571
sI2605
(lp2572
sI2606
(lp2573
sI2607
(lp2574
sI2608
(lp2575
sI2609
(lp2576
sI2610
(lp2577
sI2611
(lp2578
sI2612
(lp2579
sI2613
(lp2580
sI2614
(lp2581
sI2615
(lp2582
sI2616
(lp2583
sI2617
(lp2584
sI2618
(lp2585
sI2619
(lp2586
sI2620
(lp2587
sI2621
(lp2588
sI2622
(lp2589
sI2623
(lp2590
sI2624
(lp2591
sI2625
(lp2592
sI2626
(lp2593
sI2627
(lp2594
sI2628
(lp2595
sI2629
(lp2596
sI2630
(lp2597
sI2631
(lp2598
sI2632
(lp2599
sI2633
(lp2600
sI2634
(lp2601
sI2635
(lp2602
sI2636
(lp2603
sI2637
(lp2604
sI2638
(lp2605
sI2639
(lp2606
sI2640
(lp2607
sI2641
(lp2608
sI2642
(lp2609
sI2643
(lp2610
sI2644
(lp2611
sI2645
(lp2612
sI2646
(lp2613
sI2647
(lp2614
sI2648
(lp2615
sI2649
(lp2616
sI2650
(lp2617
sI2651
(lp2618
sI2652
(lp2619
sI2653
(lp2620
sI2654
(lp2621
sI2655
(lp2622
sI2656
(lp2623
sI2657
(lp2624
sI2658
(lp2625
sI2659
(lp2626
sI2660
(lp2627
sI2661
(lp2628
sI2662
(lp2629
sI2663
(lp2630
sI2664
(lp2631
sI2665
(lp2632
sI2666
(lp2633
sI2667
(lp2634
sI2668
(lp2635
sI2669
(lp2636
sI2670
(lp2637
sI2671
(lp2638
sI2672
(lp2639
sI2673
(lp2640
sI2674
(lp2641
sI2675
(lp2642
sI2676
(lp2643
sI2677
(lp2644
sI2678
(lp2645
sI2679
(lp2646
sI2680
(lp2647
sI2681
(lp2648
sI2682
(lp2649
sI2683
(lp2650
sI2684
(lp2651
sI2685
(lp2652
sI2686
(lp2653
sI2687
(lp2654
sI2688
(lp2655
sI2689
(lp2656
sI2690
(lp2657
sI2691
(lp2658
sI2692
(lp2659
sI2693
(lp2660
sI2694
(lp2661
sI2695
(lp2662
sI2696
(lp2663
sI2697
(lp2664
sI2698
(lp2665
sI2699
(lp2666
sI2700
(lp2667
sI2701
(lp2668
sI2702
(lp2669
sI2703
(lp2670
sI2704
(lp2671
sI2705
(lp2672
sI2706
(lp2673
sI2707
(lp2674
sI2708
(lp2675
sI2709
(lp2676
sI2710
(lp2677
sI2711
(lp2678
sI2712
(lp2679
sI2713
(lp2680
sI2714
(lp2681
sI2715
(lp2682
sI2716
(lp2683
sI2717
(lp2684
sI2718
(lp2685
sI2719
(lp2686
sI2720
(lp2687
sI2721
(lp2688
sI2722
(lp2689
sI2723
(lp2690
sI2724
(lp2691
sI2725
(lp2692
sI2726
(lp2693
sI2727
(lp2694
sI2728
(lp2695
sI2729
(lp2696
sI2730
(lp2697
sI2731
(lp2698
sI2732
(lp2699
sI2733
(lp2700
sI2734
(lp2701
sI2735
(lp2702
sI2736
(lp2703
sI2737
(lp2704
sI2738
(lp2705
sI2739
(lp2706
sI2740
(lp2707
sI2741
(lp2708
sI2742
(lp2709
sI2743
(lp2710
sI2744
(lp2711
sI2745
(lp2712
sI2746
(lp2713
sI2747
(lp2714
sI2748
(lp2715
sI2749
(lp2716
sI2750
(lp2717
sI2751
(lp2718
sI2752
(lp2719
sI2753
(lp2720
sI2754
(lp2721
sI2755
(lp2722
sI2756
(lp2723
sI2757
(lp2724
sI2758
(lp2725
sI2759
(lp2726
sI2760
(lp2727
sI2761
(lp2728
sI2762
(lp2729
sI2763
(lp2730
sI2764
(lp2731
sI2765
(lp2732
sI2766
(lp2733
sI2767
(lp2734
sI2768
(lp2735
sI2769
(lp2736
sI2770
(lp2737
sI2771
(lp2738
sI2772
(lp2739
sI2773
(lp2740
sI2774
(lp2741
sI2775
(lp2742
sI2776
(lp2743
sI2777
(lp2744
sI2778
(lp2745
sI2779
(lp2746
sI2780
(lp2747
sI2781
(lp2748
sI2782
(lp2749
sI2783
(lp2750
sI2784
(lp2751
sI2785
(lp2752
sI2786
(lp2753
sI2787
(lp2754
sI2788
(lp2755
sI2789
(lp2756
sI2790
(lp2757
sI2791
(lp2758
sI2792
(lp2759
sI2793
(lp2760
sI2794
(lp2761
sI2795
(lp2762
sI2796
(lp2763
sI2797
(lp2764
sI2798
(lp2765
sI2799
(lp2766
sI2800
(lp2767
sI2801
(lp2768
sI2802
(lp2769
sI2803
(lp2770
sI2804
(lp2771
sI2805
(lp2772
sI2806
(lp2773
sI2807
(lp2774
sI2808
(lp2775
sI2809
(lp2776
sI2810
(lp2777
sI2811
(lp2778
sI2812
(lp2779
sI2813
(lp2780
sI2814
(lp2781
sI2815
(lp2782
sI2816
(lp2783
sI2817
(lp2784
sI2818
(lp2785
sI2819
(lp2786
sI2820
(lp2787
sI2821
(lp2788
sI2822
(lp2789
sI2823
(lp2790
sI2824
(lp2791
sI2825
(lp2792
sI2826
(lp2793
sI2827
(lp2794
sI2828
(lp2795
sI2829
(lp2796
sI2830
(lp2797
sI2831
(lp2798
sI2832
(lp2799
sI2833
(lp2800
sI2834
(lp2801
sI2835
(lp2802
sI2836
(lp2803
sI2837
(lp2804
sI2838
(lp2805
sI2839
(lp2806
sI2840
(lp2807
sI2841
(lp2808
sI2842
(lp2809
sI2843
(lp2810
sI2844
(lp2811
sI2845
(lp2812
sI2846
(lp2813
sI2847
(lp2814
sI2848
(lp2815
sI2849
(lp2816
sI2850
(lp2817
sI2851
(lp2818
sI2852
(lp2819
sI2853
(lp2820
sI2854
(lp2821
sI2855
(lp2822
sI2856
(lp2823
sI2857
(lp2824
sI2858
(lp2825
sI2859
(lp2826
sI2860
(lp2827
sI2861
(lp2828
sI2862
(lp2829
sI2863
(lp2830
sI2864
(lp2831
sI2865
(lp2832
sI2866
(lp2833
sI2867
(lp2834
sI2868
(lp2835
sI2869
(lp2836
sI2870
(lp2837
sI2871
(lp2838
sI2872
(lp2839
sI2873
(lp2840
sI2874
(lp2841
sI2875
(lp2842
sI2876
(lp2843
sI2877
(lp2844
sI2878
(lp2845
sI2879
(lp2846
sI2880
(lp2847
sI2881
(lp2848
sI2882
(lp2849
sI2883
(lp2850
sI2884
(lp2851
sI2885
(lp2852
sI2886
(lp2853
sI2887
(lp2854
sI2888
(lp2855
sI2889
(lp2856
sI2890
(lp2857
sI2891
(lp2858
sI2892
(lp2859
sI2893
(lp2860
sI2894
(lp2861
sI2895
(lp2862
sI2896
(lp2863
sI2897
(lp2864
sI2898
(lp2865
sI2899
(lp2866
sI2900
(lp2867
sI2901
(lp2868
sI2902
(lp2869
sI2903
(lp2870
sI2904
(lp2871
sI2905
(lp2872
sI2906
(lp2873
sI2907
(lp2874
sI2908
(lp2875
sI2909
(lp2876
sI2910
(lp2877
sI2911
(lp2878
sI2912
(lp2879
sI2913
(lp2880
sI2914
(lp2881
sI2915
(lp2882
sI2916
(lp2883
sI2917
(lp2884
sI2918
(lp2885
sI2919
(lp2886
sI2920
(lp2887
sI2921
(lp2888
sI2922
(lp2889
sI2923
(lp2890
sI2924
(lp2891
sI2925
(lp2892
sI2926
(lp2893
sI2927
(lp2894
sI2928
(lp2895
sI2929
(lp2896
sI2930
(lp2897
sI2931
(lp2898
sI2932
(lp2899
sI2933
(lp2900
sI2934
(lp2901
sI2935
(lp2902
sI2936
(lp2903
sI2937
(lp2904
sI2938
(lp2905
sI2939
(lp2906
sI2940
(lp2907
sI2941
(lp2908
sI2942
(lp2909
sI2943
(lp2910
sI2944
(lp2911
sI2945
(lp2912
sI2946
(lp2913
sI2947
(lp2914
sI2948
(lp2915
sI2949
(lp2916
sI2950
(lp2917
sI2951
(lp2918
sI2952
(lp2919
sI2953
(lp2920
sI2954
(lp2921
sI2955
(lp2922
sI2956
(lp2923
sI2957
(lp2924
sI2958
(lp2925
sI2959
(lp2926
sI2960
(lp2927
sI2961
(lp2928
sI2962
(lp2929
sI2963
(lp2930
sI2964
(lp2931
sI2965
(lp2932
sI2966
(lp2933
sI2967
(lp2934
sI2968
(lp2935
sI2969
(lp2936
sI2970
(lp2937
sI2971
(lp2938
sI2972
(lp2939
sI2973
(lp2940
sI2974
(lp2941
stp2942
Rp2943
(dp2944
S'scale'
p2945
I2
sS'description'
p2946
S''
p2947
sb.