ccopy_reg
_reconstructor
p0
(copenalea.stse.io.walled_tissue.native_representation
IOTissueProperty
p1
c__builtin__
dict
p2
(dp3
I0
(lp4
I3
aI49
asI1
(lp5
I3
aI20
asI2
(lp6
I3
aI14
asI3
(lp7
I5
aI27
asI4
(lp8
I5
aI12
asI5
(lp9
I6
aI57
asI6
(lp10
I6
aI46
asI7
(lp11
I6
aI54
asI8
(lp12
I7
aI28
asI9
(lp13
I7
aI9
asI10
(lp14
I8
aI9
asI11
(lp15
I8
aI30
asI12
(lp16
I11
aI81
asI13
(lp17
I11
aI91
asI14
(lp18
I11
aI12
asI15
(lp19
I14
aI17
asI16
(lp20
I14
aI44
asI17
(lp21
I15
aI17
asI18
(lp22
I15
aI19
asI19
(lp23
I15
aI39
asI20
(lp24
I16
aI17
asI21
(lp25
I16
aI118
asI22
(lp26
I16
aI71
asI23
(lp27
I18
aI20
asI24
(lp28
I18
aI26
asI25
(lp29
I19
aI20
asI26
(lp30
I22
aI48
asI27
(lp31
I22
aI23
asI28
(lp32
I22
aI55
asI29
(lp33
I23
aI104
asI30
(lp34
I23
aI45
asI31
(lp35
I24
aI88
asI32
(lp36
I24
aI25
asI33
(lp37
I25
aI94
asI34
(lp38
I26
aI58
asI35
(lp39
I26
aI50
asI36
(lp40
I27
aI28
asI37
(lp41
I27
aI78
asI38
(lp42
I28
aI32
asI39
(lp43
I29
aI97
asI40
(lp44
I29
aI30
asI41
(lp45
I30
aI32
asI42
(lp46
I31
aI32
asI43
(lp47
I31
aI101
asI44
(lp48
I31
aI79
asI45
(lp49
I33
aI34
asI46
(lp50
I33
aI67
asI47
(lp51
I34
aI42
asI48
(lp52
I36
aI65
asI49
(lp53
I36
aI38
asI50
(lp54
I37
aI64
asI51
(lp55
I37
aI107
asI52
(lp56
I37
aI38
asI53
(lp57
I39
aI70
asI54
(lp58
I40
aI74
asI55
(lp59
I40
aI69
asI56
(lp60
I41
aI66
asI57
(lp61
I41
aI42
asI58
(lp62
I41
aI111
asI59
(lp63
I42
aI76
asI60
(lp64
I43
aI44
asI61
(lp65
I43
aI45
asI62
(lp66
I43
aI47
asI63
(lp67
I44
aI119
asI64
(lp68
I45
aI110
asI65
(lp69
I46
aI48
asI66
(lp70
I46
aI51
asI67
(lp71
I47
aI48
asI68
(lp72
I47
aI49
asI69
(lp73
I49
aI50
asI70
(lp74
I50
aI51
asI71
(lp75
I51
aI84
asI72
(lp76
I52
aI80
asI73
(lp77
I52
aI100
asI74
(lp78
I52
aI53
asI75
(lp79
I53
aI103
asI76
(lp80
I53
aI55
asI77
(lp81
I54
aI83
asI78
(lp82
I54
aI55
asI79
(lp83
I56
aI57
asI80
(lp84
I56
aI82
asI81
(lp85
I56
aI92
asI82
(lp86
I57
aI85
asI83
(lp87
I58
aI89
asI84
(lp88
I59
aI98
asI85
(lp89
I59
aI122
asI86
(lp90
I60
aI105
asI87
(lp91
I60
aI61
asI88
(lp92
I61
aI108
asI89
(lp93
I61
aI62
asI90
(lp94
I62
aI64
asI91
(lp95
I65
aI67
asI92
(lp96
I65
aI109
asI93
(lp97
I66
aI144
asI94
(lp98
I66
aI67
asI95
(lp99
I68
aI69
asI96
(lp100
I68
aI70
asI97
(lp101
I69
aI116
asI98
(lp102
I70
aI71
asI99
(lp103
I71
aI115
asI100
(lp104
I72
aI73
asI101
(lp105
I72
aI74
asI102
(lp106
I73
aI75
asI103
(lp107
I74
aI77
asI104
(lp108
I75
aI76
asI105
(lp109
I76
aI77
asI106
(lp110
I77
aI114
asI107
(lp111
I78
aI81
asI108
(lp112
I78
aI79
asI109
(lp113
I79
aI80
asI110
(lp114
I80
aI83
asI111
(lp115
I81
aI82
asI112
(lp116
I82
aI83
asI113
(lp117
I84
aI89
asI114
(lp118
I84
aI85
asI115
(lp119
I85
aI86
asI116
(lp120
I86
aI88
asI117
(lp121
I86
aI95
asI118
(lp122
I87
aI88
asI119
(lp123
I87
aI89
asI120
(lp124
I90
aI91
asI121
(lp125
I90
aI93
asI122
(lp126
I91
aI92
asI123
(lp127
I92
aI95
asI124
(lp128
I93
aI94
asI125
(lp129
I94
aI95
asI126
(lp130
I96
aI97
asI127
(lp131
I96
aI98
asI128
(lp132
I97
aI101
asI129
(lp133
I98
aI99
asI130
(lp134
I99
aI100
asI131
(lp135
I99
aI102
asI132
(lp136
I100
aI101
asI133
(lp137
I102
aI124
asI134
(lp138
I102
aI103
asI135
(lp139
I103
aI104
asI136
(lp140
I104
aI134
asI137
(lp141
I105
aI138
asI138
(lp142
I105
aI126
asI139
(lp143
I106
aI139
asI140
(lp144
I106
aI131
asI141
(lp145
I106
aI127
asI142
(lp146
I107
aI108
asI143
(lp147
I107
aI109
asI144
(lp148
I108
aI140
asI145
(lp149
I109
aI141
asI146
(lp150
I110
aI120
asI147
(lp151
I110
aI135
asI148
(lp152
I111
aI112
asI149
(lp153
I111
aI114
asI150
(lp154
I112
aI113
asI151
(lp155
I112
aI145
asI152
(lp156
I113
aI115
asI153
(lp157
I113
aI117
asI154
(lp158
I114
aI116
asI155
(lp159
I115
aI116
asI156
(lp160
I117
aI129
asI157
(lp161
I117
aI118
asI158
(lp162
I118
aI119
asI159
(lp163
I119
aI120
asI160
(lp164
I120
aI130
asI161
(lp165
I121
aI123
asI162
(lp166
I121
aI122
asI163
(lp167
I122
aI124
asI164
(lp168
I123
aI132
asI165
(lp169
I123
aI125
asI166
(lp170
I124
aI133
asI167
(lp171
I125
aI127
asI168
(lp172
I126
aI127
asI169
(lp173
I128
aI136
asI170
(lp174
I128
aI137
asI171
(lp175
I128
aI130
asI172
(lp176
I129
aI130
asI173
(lp177
I129
aI146
asI174
(lp178
I131
aI136
asI175
(lp179
I131
aI132
asI176
(lp180
I132
aI133
asI177
(lp181
I133
aI134
asI178
(lp182
I134
aI135
asI179
(lp183
I135
aI136
asI180
(lp184
I137
aI139
asI181
(lp185
I137
aI143
asI182
(lp186
I138
aI139
asI183
(lp187
I138
aI140
asI184
(lp188
I140
aI142
asI185
(lp189
I141
aI144
asI186
(lp190
I141
aI142
asI187
(lp191
I142
aI143
asI188
(lp192
I143
aI146
asI189
(lp193
I144
aI145
asI190
(lp194
I145
aI146
astp195
Rp196
(dp197
S'scale'
p198
I1
sS'description'
p199
S''
p200
sb.