ccopy_reg
_reconstructor
p0
(copenalea.stse.io.walled_tissue.native_representation
IOTissueProperty
p1
c__builtin__
dict
p2
(dp3
I2
(lp4
sI3
(lp5
sI4
(lp6
sI5
(lp7
sI6
(lp8
sI7
(lp9
sI8
(lp10
sI9
(lp11
sI10
(lp12
sI11
(lp13
sI12
(lp14
sI13
(lp15
sI16
(lp16
sI17
(lp17
sI18
(lp18
sI19
(lp19
sI20
(lp20
sI21
(lp21
sI22
(lp22
sI23
(lp23
sI24
(lp24
sI25
(lp25
sI26
(lp26
sI27
(lp27
sI28
(lp28
sI29
(lp29
sI30
(lp30
sI31
(lp31
sI32
(lp32
sI33
(lp33
sI34
(lp34
sI35
(lp35
sI36
(lp36
sI37
(lp37
sI38
(lp38
sI39
(lp39
sI40
(lp40
sI41
(lp41
sI42
(lp42
sI43
(lp43
sI44
(lp44
sI45
(lp45
sI46
(lp46
sI47
(lp47
sI48
(lp48
sI49
(lp49
sI50
(lp50
sI51
(lp51
sI53
(lp52
sI54
(lp53
sI56
(lp54
sI57
(lp55
sI58
(lp56
sI59
(lp57
sI60
(lp58
sI61
(lp59
sI62
(lp60
sI63
(lp61
sI64
(lp62
sI65
(lp63
sI66
(lp64
sI67
(lp65
sI68
(lp66
sI69
(lp67
sI70
(lp68
sI71
(lp69
sI72
(lp70
sI73
(lp71
sI74
(lp72
sI75
(lp73
sI76
(lp74
sI77
(lp75
sI78
(lp76
sI79
(lp77
sI80
(lp78
sI81
(lp79
sI82
(lp80
sI83
(lp81
sI84
(lp82
sI85
(lp83
sI86
(lp84
sI87
(lp85
sI88
(lp86
sI89
(lp87
sI90
(lp88
sI91
(lp89
sI92
(lp90
sI93
(lp91
sI94
(lp92
sI95
(lp93
sI96
(lp94
sI97
(lp95
sI98
(lp96
sI99
(lp97
sI100
(lp98
sI101
(lp99
sI102
(lp100
sI103
(lp101
sI104
(lp102
sI105
(lp103
sI106
(lp104
sI107
(lp105
sI108
(lp106
sI109
(lp107
sI110
(lp108
sI111
(lp109
sI112
(lp110
sI113
(lp111
sI114
(lp112
sI115
(lp113
sI116
(lp114
sI117
(lp115
sI118
(lp116
sI119
(lp117
sI120
(lp118
sI121
(lp119
sI122
(lp120
sI123
(lp121
sI124
(lp122
sI125
(lp123
sI126
(lp124
sI127
(lp125
sI128
(lp126
sI129
(lp127
sI130
(lp128
sI131
(lp129
sI132
(lp130
sI133
(lp131
sI134
(lp132
sI135
(lp133
sI136
(lp134
sI137
(lp135
sI138
(lp136
sI139
(lp137
sI140
(lp138
sI141
(lp139
sI142
(lp140
sI143
(lp141
sI144
(lp142
sI145
(lp143
sI146
(lp144
sI147
(lp145
sI148
(lp146
sI149
(lp147
sI150
(lp148
sI151
(lp149
sI152
(lp150
sI153
(lp151
sI154
(lp152
sI155
(lp153
sI156
(lp154
sI157
(lp155
sI158
(lp156
sI159
(lp157
sI160
(lp158
sI161
(lp159
sI162
(lp160
sI163
(lp161
sI164
(lp162
sI165
(lp163
sI166
(lp164
sI167
(lp165
sI168
(lp166
sI169
(lp167
sI170
(lp168
sI171
(lp169
sI172
(lp170
sI173
(lp171
sI174
(lp172
sI175
(lp173
sI176
(lp174
sI177
(lp175
sI178
(lp176
sI179
(lp177
sI180
(lp178
sI181
(lp179
sI182
(lp180
sI183
(lp181
sI184
(lp182
sI185
(lp183
sI186
(lp184
sI187
(lp185
sI188
(lp186
sI189
(lp187
sI190
(lp188
sI191
(lp189
sI192
(lp190
sI193
(lp191
sI194
(lp192
sI195
(lp193
sI196
(lp194
sI197
(lp195
sI198
(lp196
sI199
(lp197
sI200
(lp198
sI201
(lp199
sI202
(lp200
sI203
(lp201
sI204
(lp202
sI205
(lp203
sI206
(lp204
sI207
(lp205
sI208
(lp206
sI209
(lp207
sI210
(lp208
sI211
(lp209
sI212
(lp210
sI213
(lp211
sI214
(lp212
sI215
(lp213
sI216
(lp214
sI217
(lp215
sI218
(lp216
sI219
(lp217
sI220
(lp218
sI221
(lp219
sI222
(lp220
sI223
(lp221
sI224
(lp222
sI225
(lp223
sI226
(lp224
sI227
(lp225
sI228
(lp226
sI229
(lp227
sI230
(lp228
sI231
(lp229
sI232
(lp230
sI233
(lp231
sI234
(lp232
sI235
(lp233
sI236
(lp234
sI237
(lp235
sI238
(lp236
sI239
(lp237
sI240
(lp238
sI241
(lp239
sI242
(lp240
sI243
(lp241
sI244
(lp242
sI245
(lp243
sI246
(lp244
sI247
(lp245
sI248
(lp246
sI249
(lp247
sI250
(lp248
sI251
(lp249
sI252
(lp250
sI253
(lp251
sI254
(lp252
sI256
(lp253
sI257
(lp254
sI258
(lp255
sI259
(lp256
sI260
(lp257
sI261
(lp258
sI262
(lp259
sI263
(lp260
sI264
(lp261
sI265
(lp262
sI266
(lp263
sI267
(lp264
sI268
(lp265
sI269
(lp266
sI270
(lp267
sI271
(lp268
sI272
(lp269
sI273
(lp270
sI274
(lp271
sI275
(lp272
sI276
(lp273
sI277
(lp274
sI278
(lp275
sI279
(lp276
sI280
(lp277
sI281
(lp278
sI282
(lp279
sI283
(lp280
sI284
(lp281
sI285
(lp282
sI286
(lp283
sI287
(lp284
sI288
(lp285
sI289
(lp286
sI290
(lp287
sI291
(lp288
sI292
(lp289
sI293
(lp290
sI294
(lp291
sI295
(lp292
sI296
(lp293
sI297
(lp294
sI298
(lp295
sI299
(lp296
sI300
(lp297
sI301
(lp298
sI302
(lp299
sI303
(lp300
sI304
(lp301
sI305
(lp302
sI306
(lp303
sI307
(lp304
sI308
(lp305
sI309
(lp306
sI310
(lp307
sI311
(lp308
sI312
(lp309
sI313
(lp310
sI314
(lp311
sI315
(lp312
sI316
(lp313
sI317
(lp314
sI318
(lp315
sI319
(lp316
sI320
(lp317
sI321
(lp318
sI322
(lp319
sI323
(lp320
sI324
(lp321
sI325
(lp322
sI326
(lp323
sI327
(lp324
sI328
(lp325
sI329
(lp326
sI330
(lp327
sI331
(lp328
sI332
(lp329
sI333
(lp330
sI334
(lp331
sI335
(lp332
sI336
(lp333
sI337
(lp334
sI338
(lp335
sI339
(lp336
sI340
(lp337
sI341
(lp338
sI342
(lp339
sI343
(lp340
sI344
(lp341
sI345
(lp342
sI346
(lp343
sI347
(lp344
sI348
(lp345
sI349
(lp346
sI350
(lp347
sI351
(lp348
sI352
(lp349
sI353
(lp350
sI354
(lp351
sI355
(lp352
sI356
(lp353
sI357
(lp354
sI358
(lp355
sI359
(lp356
sI360
(lp357
sI361
(lp358
sI362
(lp359
sI363
(lp360
sI364
(lp361
sI365
(lp362
sI366
(lp363
sI367
(lp364
sI368
(lp365
sI369
(lp366
sI370
(lp367
sI371
(lp368
sI372
(lp369
sI373
(lp370
sI374
(lp371
sI375
(lp372
sI376
(lp373
sI377
(lp374
sI378
(lp375
sI379
(lp376
sI380
(lp377
sI381
(lp378
sI382
(lp379
sI383
(lp380
sI384
(lp381
sI385
(lp382
sI386
(lp383
sI387
(lp384
sI388
(lp385
sI389
(lp386
sI390
(lp387
sI391
(lp388
sI392
(lp389
sI393
(lp390
sI394
(lp391
sI395
(lp392
sI396
(lp393
sI397
(lp394
sI398
(lp395
sI399
(lp396
sI400
(lp397
sI401
(lp398
sI402
(lp399
sI403
(lp400
sI404
(lp401
sI405
(lp402
sI406
(lp403
sI407
(lp404
sI408
(lp405
sI409
(lp406
sI410
(lp407
sI411
(lp408
sI412
(lp409
sI413
(lp410
sI414
(lp411
sI415
(lp412
sI418
(lp413
sI419
(lp414
sI420
(lp415
sI421
(lp416
sI422
(lp417
sI424
(lp418
sI425
(lp419
sI426
(lp420
sI427
(lp421
sI428
(lp422
sI429
(lp423
sI430
(lp424
sI431
(lp425
sI432
(lp426
sI433
(lp427
sI434
(lp428
sI435
(lp429
sI436
(lp430
sI437
(lp431
sI438
(lp432
sI439
(lp433
sI440
(lp434
sI441
(lp435
sI442
(lp436
sI443
(lp437
sI444
(lp438
sI445
(lp439
sI446
(lp440
sI447
(lp441
sI448
(lp442
sI449
(lp443
sI450
(lp444
sI451
(lp445
sI452
(lp446
sI453
(lp447
sI454
(lp448
sI455
(lp449
sI456
(lp450
sI457
(lp451
sI458
(lp452
sI459
(lp453
sI460
(lp454
sI461
(lp455
sI462
(lp456
sI463
(lp457
sI464
(lp458
sI465
(lp459
sI466
(lp460
sI467
(lp461
sI468
(lp462
sI469
(lp463
sI470
(lp464
sI471
(lp465
sI472
(lp466
sI473
(lp467
sI474
(lp468
sI475
(lp469
sI476
(lp470
sI477
(lp471
sI478
(lp472
sI479
(lp473
sI480
(lp474
sI481
(lp475
sI482
(lp476
sI483
(lp477
sI484
(lp478
sI485
(lp479
sI486
(lp480
sI487
(lp481
sI488
(lp482
sI489
(lp483
sI490
(lp484
sI491
(lp485
sI492
(lp486
sI493
(lp487
sI494
(lp488
sI495
(lp489
sI496
(lp490
sI497
(lp491
sI498
(lp492
sI499
(lp493
sI500
(lp494
sI501
(lp495
sI502
(lp496
sI503
(lp497
sI504
(lp498
sI505
(lp499
sI506
(lp500
sI507
(lp501
sI508
(lp502
sI509
(lp503
sI510
(lp504
sI511
(lp505
sI512
(lp506
sI513
(lp507
sI514
(lp508
sI515
(lp509
sI516
(lp510
sI517
(lp511
sI518
(lp512
sI519
(lp513
sI520
(lp514
sI521
(lp515
sI522
(lp516
sI523
(lp517
sI524
(lp518
sI525
(lp519
sI526
(lp520
sI527
(lp521
sI528
(lp522
sI529
(lp523
sI530
(lp524
sI531
(lp525
sI532
(lp526
sI533
(lp527
sI534
(lp528
sI535
(lp529
sI536
(lp530
sI537
(lp531
sI538
(lp532
sI539
(lp533
sI540
(lp534
sI541
(lp535
sI542
(lp536
sI543
(lp537
sI544
(lp538
sI545
(lp539
sI546
(lp540
sI547
(lp541
sI548
(lp542
sI549
(lp543
sI550
(lp544
sI551
(lp545
sI552
(lp546
sI553
(lp547
sI554
(lp548
sI555
(lp549
sI556
(lp550
sI557
(lp551
sI558
(lp552
sI559
(lp553
sI560
(lp554
sI561
(lp555
sI562
(lp556
sI563
(lp557
sI564
(lp558
sI565
(lp559
sI566
(lp560
sI567
(lp561
sI568
(lp562
sI569
(lp563
sI570
(lp564
sI571
(lp565
sI572
(lp566
sI573
(lp567
sI574
(lp568
sI575
(lp569
sI576
(lp570
sI577
(lp571
sI578
(lp572
sI579
(lp573
sI580
(lp574
sI581
(lp575
sI582
(lp576
sI583
(lp577
sI584
(lp578
sI585
(lp579
sI586
(lp580
sI587
(lp581
sI588
(lp582
sI589
(lp583
sI590
(lp584
sI591
(lp585
sI592
(lp586
sI593
(lp587
sI594
(lp588
sI595
(lp589
sI596
(lp590
sI597
(lp591
sI598
(lp592
sI599
(lp593
sI600
(lp594
sI601
(lp595
sI602
(lp596
sI603
(lp597
sI604
(lp598
sI605
(lp599
sI606
(lp600
sI607
(lp601
sI608
(lp602
sI609
(lp603
sI610
(lp604
sI611
(lp605
sI612
(lp606
sI613
(lp607
sI614
(lp608
sI615
(lp609
sI616
(lp610
sI617
(lp611
sI618
(lp612
sI619
(lp613
sI620
(lp614
sI621
(lp615
sI622
(lp616
sI623
(lp617
sI624
(lp618
sI625
(lp619
sI626
(lp620
sI627
(lp621
sI628
(lp622
sI629
(lp623
sI630
(lp624
sI631
(lp625
sI632
(lp626
sI633
(lp627
sI634
(lp628
sI635
(lp629
sI636
(lp630
sI637
(lp631
sI638
(lp632
sI639
(lp633
sI640
(lp634
sI641
(lp635
sI642
(lp636
sI643
(lp637
sI644
(lp638
sI645
(lp639
sI646
(lp640
sI647
(lp641
sI648
(lp642
sI649
(lp643
sI650
(lp644
sI651
(lp645
sI652
(lp646
sI653
(lp647
sI654
(lp648
sI655
(lp649
sI656
(lp650
sI657
(lp651
sI658
(lp652
sI659
(lp653
sI660
(lp654
sI661
(lp655
sI662
(lp656
sI663
(lp657
sI664
(lp658
sI665
(lp659
sI666
(lp660
sI667
(lp661
sI668
(lp662
sI669
(lp663
sI670
(lp664
sI671
(lp665
sI672
(lp666
sI673
(lp667
sI674
(lp668
sI675
(lp669
sI676
(lp670
sI677
(lp671
sI678
(lp672
sI679
(lp673
sI680
(lp674
sI681
(lp675
sI682
(lp676
sI683
(lp677
sI684
(lp678
sI685
(lp679
sI686
(lp680
sI687
(lp681
sI688
(lp682
sI689
(lp683
sI690
(lp684
sI691
(lp685
sI692
(lp686
sI693
(lp687
sI694
(lp688
sI695
(lp689
sI696
(lp690
sI697
(lp691
sI698
(lp692
sI699
(lp693
sI700
(lp694
sI701
(lp695
sI702
(lp696
sI703
(lp697
sI704
(lp698
sI705
(lp699
sI706
(lp700
sI707
(lp701
sI708
(lp702
sI709
(lp703
sI710
(lp704
sI711
(lp705
sI712
(lp706
sI713
(lp707
sI714
(lp708
sI715
(lp709
sI716
(lp710
sI717
(lp711
sI718
(lp712
sI719
(lp713
sI720
(lp714
sI721
(lp715
sI722
(lp716
sI723
(lp717
sI724
(lp718
sI725
(lp719
sI726
(lp720
sI727
(lp721
sI728
(lp722
sI729
(lp723
sI730
(lp724
sI731
(lp725
sI732
(lp726
sI733
(lp727
sI734
(lp728
sI735
(lp729
sI736
(lp730
sI737
(lp731
sI738
(lp732
sI739
(lp733
sI740
(lp734
sI741
(lp735
sI742
(lp736
sI743
(lp737
sI744
(lp738
sI745
(lp739
sI746
(lp740
sI747
(lp741
sI748
(lp742
sI749
(lp743
sI750
(lp744
sI751
(lp745
sI752
(lp746
sI753
(lp747
sI754
(lp748
sI755
(lp749
sI756
(lp750
sI757
(lp751
sI758
(lp752
sI759
(lp753
sI760
(lp754
sI761
(lp755
sI762
(lp756
sI763
(lp757
sI764
(lp758
sI765
(lp759
sI766
(lp760
sI767
(lp761
sI768
(lp762
sI769
(lp763
sI770
(lp764
sI771
(lp765
sI772
(lp766
sI773
(lp767
sI774
(lp768
sI775
(lp769
sI776
(lp770
sI777
(lp771
sI778
(lp772
sI779
(lp773
sI780
(lp774
sI781
(lp775
sI782
(lp776
sI783
(lp777
sI784
(lp778
sI785
(lp779
sI786
(lp780
sI787
(lp781
sI788
(lp782
sI789
(lp783
sI790
(lp784
sI791
(lp785
sI792
(lp786
sI793
(lp787
sI794
(lp788
sI795
(lp789
sI796
(lp790
sI797
(lp791
sI798
(lp792
sI799
(lp793
sI800
(lp794
sI801
(lp795
sI802
(lp796
sI803
(lp797
sI804
(lp798
sI805
(lp799
sI806
(lp800
sI807
(lp801
sI808
(lp802
sI809
(lp803
sI810
(lp804
sI811
(lp805
sI812
(lp806
sI813
(lp807
sI814
(lp808
sI815
(lp809
sI816
(lp810
sI817
(lp811
sI818
(lp812
sI819
(lp813
sI820
(lp814
sI821
(lp815
sI822
(lp816
sI823
(lp817
sI824
(lp818
sI825
(lp819
sI826
(lp820
sI827
(lp821
sI828
(lp822
sI829
(lp823
sI830
(lp824
sI831
(lp825
sI832
(lp826
sI833
(lp827
sI834
(lp828
sI835
(lp829
sI836
(lp830
sI837
(lp831
sI838
(lp832
sI839
(lp833
sI840
(lp834
sI841
(lp835
sI842
(lp836
sI843
(lp837
sI844
(lp838
sI845
(lp839
sI846
(lp840
sI847
(lp841
sI848
(lp842
sI849
(lp843
sI850
(lp844
sI851
(lp845
sI852
(lp846
sI853
(lp847
sI854
(lp848
sI855
(lp849
sI856
(lp850
sI857
(lp851
sI858
(lp852
sI859
(lp853
sI860
(lp854
sI861
(lp855
sI862
(lp856
sI863
(lp857
sI864
(lp858
sI865
(lp859
sI866
(lp860
sI867
(lp861
sI868
(lp862
sI869
(lp863
sI870
(lp864
sI871
(lp865
sI872
(lp866
sI873
(lp867
sI874
(lp868
sI875
(lp869
sI876
(lp870
sI877
(lp871
sI878
(lp872
sI879
(lp873
sI880
(lp874
sI881
(lp875
sI882
(lp876
sI883
(lp877
sI884
(lp878
sI885
(lp879
sI886
(lp880
sI887
(lp881
sI888
(lp882
sI889
(lp883
sI890
(lp884
sI891
(lp885
sI892
(lp886
sI893
(lp887
sI894
(lp888
sI895
(lp889
sI896
(lp890
sI897
(lp891
sI898
(lp892
sI899
(lp893
sI900
(lp894
sI901
(lp895
sI902
(lp896
sI903
(lp897
sI904
(lp898
sI905
(lp899
sI906
(lp900
sI907
(lp901
sI908
(lp902
sI909
(lp903
sI910
(lp904
sI911
(lp905
sI912
(lp906
sI913
(lp907
sI914
(lp908
sI915
(lp909
sI916
(lp910
sI917
(lp911
sI918
(lp912
sI919
(lp913
sI920
(lp914
sI921
(lp915
sI922
(lp916
sI923
(lp917
sI924
(lp918
sI925
(lp919
sI926
(lp920
sI927
(lp921
sI928
(lp922
sI929
(lp923
sI930
(lp924
sI931
(lp925
sI932
(lp926
sI933
(lp927
sI934
(lp928
sI935
(lp929
sI936
(lp930
sI937
(lp931
sI938
(lp932
sI939
(lp933
sI940
(lp934
sI941
(lp935
sI942
(lp936
sI943
(lp937
sI944
(lp938
sI945
(lp939
sI946
(lp940
sI947
(lp941
sI948
(lp942
sI949
(lp943
sI950
(lp944
sI951
(lp945
sI952
(lp946
sI953
(lp947
sI954
(lp948
sI955
(lp949
sI956
(lp950
sI957
(lp951
sI958
(lp952
sI959
(lp953
sI960
(lp954
sI961
(lp955
sI962
(lp956
sI963
(lp957
sI964
(lp958
sI965
(lp959
sI966
(lp960
sI967
(lp961
sI968
(lp962
sI969
(lp963
sI970
(lp964
sI971
(lp965
sI972
(lp966
sI973
(lp967
sI974
(lp968
sI975
(lp969
sI976
(lp970
sI977
(lp971
sI978
(lp972
sI979
(lp973
sI980
(lp974
sI981
(lp975
sI982
(lp976
sI983
(lp977
sI984
(lp978
sI985
(lp979
sI986
(lp980
sI987
(lp981
sI988
(lp982
sI989
(lp983
sI990
(lp984
sI991
(lp985
sI992
(lp986
sI993
(lp987
sI994
(lp988
sI995
(lp989
sI996
(lp990
sI997
(lp991
sI998
(lp992
sI999
(lp993
sI1000
(lp994
sI1001
(lp995
sI1002
(lp996
sI1003
(lp997
sI1004
(lp998
sI1005
(lp999
sI1006
(lp1000
sI1007
(lp1001
sI1008
(lp1002
sI1009
(lp1003
sI1010
(lp1004
sI1011
(lp1005
sI1012
(lp1006
sI1013
(lp1007
sI1014
(lp1008
sI1015
(lp1009
sI1016
(lp1010
sI1017
(lp1011
sI1018
(lp1012
sI1019
(lp1013
sI1020
(lp1014
sI1021
(lp1015
sI1022
(lp1016
sI1023
(lp1017
sI1024
(lp1018
sI1025
(lp1019
sI1026
(lp1020
sI1027
(lp1021
sI1028
(lp1022
sI1029
(lp1023
sI1030
(lp1024
sI1031
(lp1025
sI1032
(lp1026
sI1033
(lp1027
sI1034
(lp1028
sI1035
(lp1029
sI1036
(lp1030
sI1037
(lp1031
sI1038
(lp1032
sI1039
(lp1033
sI1040
(lp1034
sI1041
(lp1035
sI1042
(lp1036
sI1043
(lp1037
sI1044
(lp1038
sI1045
(lp1039
sI1046
(lp1040
sI1047
(lp1041
sI1048
(lp1042
sI1049
(lp1043
sI1050
(lp1044
sI1051
(lp1045
sI1052
(lp1046
sI1053
(lp1047
sI1054
(lp1048
sI1055
(lp1049
sI1056
(lp1050
sI1057
(lp1051
sI1058
(lp1052
sI1059
(lp1053
sI1060
(lp1054
sI1061
(lp1055
sI1062
(lp1056
sI1063
(lp1057
sI1064
(lp1058
sI1065
(lp1059
sI1066
(lp1060
sI1067
(lp1061
sI1068
(lp1062
sI1069
(lp1063
sI1070
(lp1064
sI1071
(lp1065
sI1072
(lp1066
sI1073
(lp1067
sI1074
(lp1068
sI1075
(lp1069
sI1076
(lp1070
sI1077
(lp1071
sI1078
(lp1072
sI1079
(lp1073
sI1080
(lp1074
sI1081
(lp1075
sI1082
(lp1076
sI1083
(lp1077
sI1084
(lp1078
sI1085
(lp1079
sI1086
(lp1080
sI1087
(lp1081
sI1088
(lp1082
sI1089
(lp1083
sI1090
(lp1084
sI1091
(lp1085
sI1092
(lp1086
sI1093
(lp1087
sI1094
(lp1088
sI1095
(lp1089
sI1096
(lp1090
sI1097
(lp1091
sI1098
(lp1092
sI1099
(lp1093
sI1100
(lp1094
sI1101
(lp1095
sI1102
(lp1096
sI1103
(lp1097
sI1104
(lp1098
sI1105
(lp1099
sI1106
(lp1100
sI1107
(lp1101
sI1108
(lp1102
sI1109
(lp1103
sI1110
(lp1104
sI1111
(lp1105
sI1112
(lp1106
sI1113
(lp1107
sI1114
(lp1108
sI1115
(lp1109
sI1116
(lp1110
sI1117
(lp1111
sI1118
(lp1112
sI1119
(lp1113
sI1120
(lp1114
sI1121
(lp1115
sI1122
(lp1116
sI1123
(lp1117
sI1124
(lp1118
sI1125
(lp1119
sI1126
(lp1120
sI1127
(lp1121
sI1128
(lp1122
sI1129
(lp1123
sI1130
(lp1124
sI1131
(lp1125
sI1132
(lp1126
sI1133
(lp1127
sI1134
(lp1128
sI1135
(lp1129
sI1136
(lp1130
sI1137
(lp1131
sI1138
(lp1132
sI1139
(lp1133
sI1140
(lp1134
sI1141
(lp1135
sI1142
(lp1136
sI1143
(lp1137
sI1144
(lp1138
sI1145
(lp1139
sI1146
(lp1140
sI1147
(lp1141
sI1148
(lp1142
sI1149
(lp1143
sI1150
(lp1144
sI1151
(lp1145
sI1152
(lp1146
sI1153
(lp1147
sI1154
(lp1148
sI1155
(lp1149
sI1156
(lp1150
sI1157
(lp1151
sI1158
(lp1152
sI1159
(lp1153
sI1160
(lp1154
sI1161
(lp1155
sI1162
(lp1156
sI1163
(lp1157
sI1164
(lp1158
sI1165
(lp1159
sI1166
(lp1160
sI1167
(lp1161
sI1168
(lp1162
sI1169
(lp1163
sI1170
(lp1164
sI1171
(lp1165
sI1172
(lp1166
sI1173
(lp1167
sI1174
(lp1168
sI1175
(lp1169
sI1176
(lp1170
sI1177
(lp1171
sI1178
(lp1172
sI1179
(lp1173
sI1180
(lp1174
sI1181
(lp1175
sI1182
(lp1176
sI1183
(lp1177
sI1184
(lp1178
sI1185
(lp1179
sI1186
(lp1180
sI1187
(lp1181
sI1188
(lp1182
sI1189
(lp1183
sI1190
(lp1184
sI1191
(lp1185
sI1192
(lp1186
sI1193
(lp1187
sI1194
(lp1188
sI1195
(lp1189
sI1196
(lp1190
sI1197
(lp1191
sI1198
(lp1192
sI1199
(lp1193
sI1200
(lp1194
sI1201
(lp1195
sI1202
(lp1196
sI1203
(lp1197
sI1204
(lp1198
sI1205
(lp1199
sI1206
(lp1200
sI1207
(lp1201
sI1208
(lp1202
sI1209
(lp1203
sI1210
(lp1204
sI1211
(lp1205
sI1212
(lp1206
sI1213
(lp1207
sI1214
(lp1208
sI1215
(lp1209
sI1216
(lp1210
sI1217
(lp1211
sI1218
(lp1212
sI1219
(lp1213
sI1220
(lp1214
sI1221
(lp1215
sI1222
(lp1216
sI1223
(lp1217
sI1224
(lp1218
sI1225
(lp1219
sI1226
(lp1220
sI1227
(lp1221
sI1228
(lp1222
sI1229
(lp1223
sI1230
(lp1224
sI1231
(lp1225
sI1232
(lp1226
sI1233
(lp1227
sI1234
(lp1228
sI1235
(lp1229
sI1236
(lp1230
sI1237
(lp1231
sI1238
(lp1232
sI1239
(lp1233
sI1240
(lp1234
sI1241
(lp1235
sI1242
(lp1236
sI1243
(lp1237
sI1244
(lp1238
sI1245
(lp1239
sI1246
(lp1240
sI1247
(lp1241
sI1248
(lp1242
sI1249
(lp1243
sI1250
(lp1244
sI1251
(lp1245
sI1252
(lp1246
sI1253
(lp1247
sI1254
(lp1248
sI1255
(lp1249
sI1256
(lp1250
sI1257
(lp1251
sI1258
(lp1252
sI1259
(lp1253
sI1260
(lp1254
sI1261
(lp1255
sI1262
(lp1256
sI1263
(lp1257
sI1264
(lp1258
sI1265
(lp1259
sI1266
(lp1260
sI1267
(lp1261
sI1268
(lp1262
sI1269
(lp1263
sI1270
(lp1264
sI1271
(lp1265
sI1272
(lp1266
sI1273
(lp1267
sI1274
(lp1268
sI1275
(lp1269
sI1276
(lp1270
sI1277
(lp1271
sI1278
(lp1272
sI1279
(lp1273
sI1280
(lp1274
sI1281
(lp1275
sI1282
(lp1276
sI1283
(lp1277
sI1284
(lp1278
sI1285
(lp1279
sI1286
(lp1280
sI1287
(lp1281
sI1288
(lp1282
sI1289
(lp1283
sI1290
(lp1284
sI1291
(lp1285
sI1292
(lp1286
sI1293
(lp1287
sI1294
(lp1288
sI1295
(lp1289
sI1296
(lp1290
sI1297
(lp1291
sI1298
(lp1292
sI1299
(lp1293
sI1300
(lp1294
sI1301
(lp1295
sI1302
(lp1296
sI1303
(lp1297
sI1304
(lp1298
sI1305
(lp1299
sI1306
(lp1300
sI1307
(lp1301
sI1308
(lp1302
sI1309
(lp1303
sI1310
(lp1304
sI1311
(lp1305
sI1312
(lp1306
sI1313
(lp1307
sI1314
(lp1308
sI1315
(lp1309
sI1316
(lp1310
sI1317
(lp1311
sI1318
(lp1312
sI1319
(lp1313
sI1320
(lp1314
sI1321
(lp1315
sI1322
(lp1316
sI1323
(lp1317
sI1324
(lp1318
sI1325
(lp1319
sI1326
(lp1320
sI1327
(lp1321
sI1328
(lp1322
sI1329
(lp1323
sI1330
(lp1324
sI1331
(lp1325
sI1332
(lp1326
sI1333
(lp1327
sI1334
(lp1328
sI1335
(lp1329
sI1336
(lp1330
sI1337
(lp1331
sI1338
(lp1332
sI1339
(lp1333
sI1340
(lp1334
sI1341
(lp1335
sI1342
(lp1336
sI1343
(lp1337
sI1344
(lp1338
sI1345
(lp1339
sI1346
(lp1340
sI1347
(lp1341
sI1348
(lp1342
sI1349
(lp1343
sI1350
(lp1344
sI1351
(lp1345
sI1352
(lp1346
sI1353
(lp1347
sI1354
(lp1348
sI1355
(lp1349
sI1356
(lp1350
sI1357
(lp1351
sI1358
(lp1352
sI1359
(lp1353
sI1360
(lp1354
sI1361
(lp1355
sI1362
(lp1356
sI1363
(lp1357
sI1364
(lp1358
sI1365
(lp1359
sI1366
(lp1360
sI1367
(lp1361
sI1368
(lp1362
sI1369
(lp1363
sI1370
(lp1364
sI1371
(lp1365
sI1372
(lp1366
sI1373
(lp1367
sI1374
(lp1368
sI1375
(lp1369
sI1376
(lp1370
sI1377
(lp1371
sI1378
(lp1372
sI1379
(lp1373
sI1380
(lp1374
sI1381
(lp1375
sI1382
(lp1376
sI1383
(lp1377
sI1384
(lp1378
sI1385
(lp1379
sI1386
(lp1380
stp1381
Rp1382
(dp1383
S'scale'
p1384
I2
sS'description'
p1385
S''
p1386
sb.