ccopy_reg
_reconstructor
p0
(copenalea.stse.io.walled_tissue.native_representation
IOTissueProperty
p1
c__builtin__
dict
p2
(dp3
I20
S'C'
p4
sI21
g4
sI22
g4
sI23
g4
sI24
S'A'
p5
sI25
g5
sI26
g5
sI27
g5
sI28
g5
sI29
g5
sI30
g5
sI31
g5
sI32
g5
sI33
g4
sI34
g4
sI35
g4
sI36
g4
sI39
g4
sI40
g4
sI41
g4
sI42
g5
sI43
g5
sI44
g5
sI45
g5
sI46
g5
sI47
g5
sI48
g5
sI49
g5
sI50
g5
sI51
g5
sI52
g5
sI53
g5
sI54
g4
sI55
g4
sI58
g4
sI59
g4
sI60
g5
sI61
g5
sI62
g5
sI63
g5
sI64
g5
sI65
g5
sI66
g5
sI67
g5
sI68
g5
sI69
g5
sI70
g5
sI71
g5
sI72
g5
sI73
g4
sI74
g4
sI77
g4
sI78
g4
sI79
g5
sI80
g5
sI81
g5
sI82
g5
sI83
g5
sI84
g5
sI85
g5
sI86
g5
sI87
g5
sI88
g5
sI89
g5
sI90
g5
sI91
g5
sI92
g5
sI93
g5
sI96
g5
sI97
g5
sI98
g5
sI99
g5
sI100
g5
sI101
g5
sI102
g5
sI103
g5
sI104
g5
sI105
g5
sI106
g5
sI107
g5
sI108
g5
sI109
g5
sI110
g5
sI111
g5
sI112
g5
sI115
g5
sI116
g5
sI117
g5
sI118
g5
sI119
g5
sI120
g5
sI121
g5
sI122
g5
sI123
g5
sI124
g5
sI125
g5
sI126
g5
sI127
g5
sI128
g5
sI129
g5
sI130
g5
sI131
g5
sI134
g5
sI135
g5
sI136
g5
sI137
g5
sI138
g5
sI139
g5
sI140
g5
sI141
g5
sI142
g5
sI143
g5
sI144
g5
sI145
g5
sI146
g5
sI147
g5
sI148
g5
sI149
g5
sI150
g5
sI153
g5
sI154
g5
sI155
g5
sI156
g5
sI157
g5
sI158
g5
sI159
g5
sI160
g5
sI161
g5
sI162
g5
sI163
g5
sI164
g5
sI165
g5
sI166
g5
sI167
g5
sI168
g5
sI169
g5
sI172
g5
sI173
g5
sI174
g5
sI175
g5
sI176
g5
sI177
g5
sI178
g5
sI179
g5
sI180
g5
sI181
g5
sI182
g5
sI183
g5
sI184
g5
sI185
g5
sI186
g5
sI187
g5
sI188
g5
sI191
g5
sI192
g5
sI193
g5
sI194
g5
sI195
g5
sI196
g5
sI197
g5
sI198
g5
sI199
g5
sI200
g5
sI201
g5
sI202
g5
sI203
g5
sI204
g5
sI205
g5
sI206
g5
sI207
g5
sI210
g5
sI211
g5
sI212
g5
sI213
g5
sI214
g5
sI215
g5
sI216
g5
sI217
g5
sI218
g5
sI219
g5
sI220
g5
sI221
g5
sI222
g5
sI223
g5
sI224
g5
sI225
g5
sI226
g5
sI229
g5
sI230
g5
sI231
g5
sI232
g5
sI233
g5
sI234
g5
sI235
g5
sI236
g5
sI237
S'B'
p6
sI238
g5
sI239
g5
sI240
g5
sI241
g5
sI242
g5
sI243
g5
sI244
g5
sI245
g5
sI248
g4
sI249
g5
sI250
g5
sI251
g5
sI252
g5
sI253
g5
sI254
g6
sI255
g6
sI256
g6
sI257
g6
sI258
g6
sI259
g5
sI260
g5
sI261
g5
sI262
g5
sI263
g5
sI264
g5
sI267
g4
sI268
g5
sI269
g5
sI270
g5
sI271
g5
sI272
g5
sI273
g6
sI274
g6
sI275
g6
sI276
g6
sI277
g6
sI278
g5
sI279
g5
sI280
g5
sI281
g5
sI282
g5
sI283
g5
sI286
g4
sI287
g4
sI288
g5
sI289
g5
sI290
g5
sI291
g5
sI292
g5
sI293
g6
sI294
g6
sI295
g6
sI296
g5
sI297
g5
sI298
g5
sI299
g5
sI300
g5
sI301
g5
sI302
g4
sI305
g4
sI306
g4
sI307
g4
sI308
g5
sI309
g5
sI310
g5
sI311
g5
sI312
g5
sI313
g5
sI314
g5
sI315
g5
sI316
g5
sI317
g5
sI318
g5
sI319
g5
sI320
g4
sI321
g4
sI324
g4
sI325
g4
sI326
g4
sI327
g4
sI328
g4
sI329
g5
sI330
g5
sI331
g5
sI332
g5
sI333
g5
sI334
g5
sI335
g5
sI336
g5
sI337
g5
sI338
g4
sI339
g4
sI340
g4
sI344
g4
sI346
g4
sI348
g4
sI350
g5
sI352
g5
sI354
g5
sI356
g4
sI358
g4
stp7
Rp8
(dp9
S'scale'
p10
I0
sS'description'
p11
S'cell_type'
p12
sb.