ccopy_reg
_reconstructor
p0
(copenalea.stse.io.walled_tissue.native_representation
IOTissueProperty
p1
c__builtin__
dict
p2
(dp3
I20
F32.970706019613402
sI21
F32.806735408192218
sI22
F32.958092895657927
sI23
F32.970706019613402
sI24
F33.96828945972829
sI25
F33.127032313485813
sI26
F40.077628044707801
sI27
F60.557519189625893
sI28
F45.481396119935482
sI29
F46.628425968128923
sI30
F56.188409494624629
sI31
F36.032637413774502
sI32
F36.787895987593281
sI33
F32.970706019613388
sI34
F32.806735408192196
sI35
F32.958092895657948
sI36
F32.806735408192232
sI39
F33.286034118500297
sI40
F32.970706019613409
sI41
F33.450004729921474
sI42
F33.266923324628372
sI43
F45.307487895700916
sI44
F45.012035022440855
sI45
F48.696596080949519
sI46
F41.074447053067814
sI47
F59.605419438926155
sI48
F42.094963445829023
sI49
F63.429489292699991
sI50
F40.204905931894885
sI51
F48.161493852535394
sI52
F44.640903405447887
sI53
F39.122088351111117
sI54
F32.958092895657956
sI55
F33.450004729921496
sI58
F32.806735408192225
sI59
F32.970706019613395
sI60
F57.835377710507771
sI61
F45.535670774531823
sI62
F48.820434025239614
sI63
F55.948377923593121
sI64
F41.640126551677035
sI65
F50.044671480675632
sI66
F41.713129784267771
sI67
F45.417948284280698
sI68
F51.525758005750454
sI69
F48.304442590697462
sI70
F58.942274891570158
sI71
F59.301175600484989
sI72
F52.647943821910296
sI73
F33.102952713207195
sI74
F32.958092895657948
sI77
F32.970706019613424
sI78
F33.235199406800952
sI79
F40.813011392899774
sI80
F45.007830647789028
sI81
F41.588909624100253
sI82
F49.139202067023454
sI83
F40.42468006142213
sI84
F48.855597885963981
sI85
F42.418318078142114
sI86
F42.058652937472338
sI87
F41.634775529392918
sI88
F41.754409099031186
sI89
F40.730452763373059
sI90
F44.884374919376306
sI91
F42.312062064214167
sI92
F50.899306182628493
sI93
F33.937329973655807
sI96
F33.059762319056588
sI97
F38.998250406821043
sI98
F51.57047726341073
sI99
F55.900600938913335
sI100
F42.859777416583739
sI101
F47.727678831642521
sI102
F42.709948792627806
sI103
F42.268871670063625
sI104
F43.324551923549123
sI105
F41.712747568390377
sI106
F44.702440161715536
sI107
F42.506227729953054
sI108
F45.04949217842983
sI109
F54.531503665928021
sI110
F46.239712420773749
sI111
F70.197385834506321
sI112
F40.29740217423501
sI115
F36.681257757787911
sI116
F42.951509227169012
sI117
F51.90262286090497
sI118
F42.290657975077593
sI119
F41.831616706273799
sI120
F45.372082378988026
sI121
F41.333589417971254
sI122
F42.892265766166027
sI123
F41.372575437469948
sI124
F42.706891065608275
sI125
F42.13509611296012
sI126
F42.404558306554328
sI127
F45.817363876204141
sI128
F42.29677342911657
sI129
F43.883351536364486
sI130
F59.342454915248389
sI131
F41.867544998753061
sI134
F57.703895448668924
sI135
F40.760265601813252
sI136
F43.561525767561157
sI137
F42.959535760595294
sI138
F41.811741480646987
sI139
F41.556421274517966
sI140
F41.028581147775206
sI141
F40.983097458359978
sI142
F40.900921044710657
sI143
F41.004883763373982
sI144
F41.720391885939179
sI145
F41.337411576745644
sI146
F42.209245993183224
sI147
F42.243645422152646
sI148
F41.903855507109682
sI149
F44.45896864778716
sI150
F47.481531806572058
sI153
F48.086197324679929
sI154
F45.785257742499219
sI155
F47.472358625513458
sI156
F45.180974440268713
sI157
F41.70510325084156
sI158
F41.876718179811519
sI159
F40.986155185379467
sI160
F41.023994557245871
sI161
F40.9601645057136
sI162
F40.849704117133854
sI163
F41.032021090672103
sI164
F41.309509817692572
sI165
F42.944629341375155
sI166
F44.458586431909616
sI167
F44.849593274529354
sI168
F53.323701493221868
sI169
F42.066297255021112
sI172
F43.88679147926144
sI173
F41.836585512680507
sI174
F41.122224037747614
sI175
F42.279955930509303
sI176
F41.783457505716484
sI177
F41.215484711842642
sI178
F41.497942245269833
sI179
F40.894805590671609
sI180
F41.54801252521424
sI181
F40.896716670058851
sI182
F41.150508012678088
sI183
F41.086295745268444
sI184
F41.790337391510398
sI185
F42.145415941650867
sI186
F41.586616328835554
sI187
F47.751376216043745
sI188
F41.13063278705129
sI191
F49.347509720227492
sI192
F46.018791643614293
sI193
F45.014710533582942
sI194
F44.703204593470446
sI195
F41.223129029391551
sI196
F41.033932170059323
sI197
F40.925382860866854
sI198
F40.915063032175858
sI199
F40.869961558638117
sI200
F40.940671495964295
sI201
F41.048456373402104
sI202
F41.009470353903225
sI203
F41.740267111565991
sI204
F44.018655956977717
sI205
F42.646500956973085
sI206
F55.739305838634174
sI207
F48.735199884570953
sI210
F39.75847778704653
sI211
F41.464689463932686
sI212
F45.615553892916502
sI213
F41.870602725772606
sI214
F41.319829646383347
sI215
F41.419205774517536
sI216
F40.713635264765664
sI217
F40.928822803763794
sI218
F40.720515150559592
sI219
F40.9055076352399
sI220
F40.933409394292887
sI221
F40.748416909612715
sI222
F42.135478328837557
sI223
F41.799510572569019
sI224
F42.328115131066504
sI225
F50.359999579562633
sI226
F41.776577619922563
sI229
F47.220478362281447
sI230
F40.554633459751201
sI231
F42.709566576750341
sI232
F42.453099722989023
sI233
F41.552981331621019
sI234
F41.094704494571985
sI235
F39.062844890108195
sI236
F40.02870441239557
sI237
F34.43612169371314
sI238
F39.32045839150183
sI239
F37.362748667260966
sI240
F41.017879103206837
sI241
F41.548012525214247
sI242
F42.047568677026575
sI243
F41.64968194861293
sI244
F43.393350781488088
sI245
F45.73480524667729
sI248
F32.970706019613345
sI249
F46.537840805175932
sI250
F49.311963643625752
sI251
F44.959671447231791
sI252
F42.310533200704391
sI253
F41.802568299588508
sI254
F32.970706019613431
sI255
F33.286034118500346
sI256
F32.806735408192289
sI257
F33.450004729921496
sI258
F32.970706019613509
sI259
F39.034178699300334
sI260
F43.811494951406161
sI261
F44.218554860878143
sI262
F45.55822151130068
sI263
F52.912054993220607
sI264
F38.206681324645686
sI267
F32.970706019613445
sI268
F37.404410197901839
sI269
F40.930733883150843
sI270
F41.638979904044689
sI271
F41.453605203486923
sI272
F40.165155480641211
sI273
F34.602003384521552
sI274
F32.970706019613381
sI275
F32.958092895657856
sI276
F32.958092895657899
sI277
F33.295207299558783
sI278
F35.557543078118229
sI279
F41.49794224526979
sI280
F41.459720657525963
sI281
F41.45895622577109
sI282
F49.027595030811312
sI283
F33.322344626856932
sI286
F32.806735408192196
sI287
F33.2665411087509
sI288
F41.523932924935686
sI289
F51.037668330261297
sI290
F42.524574092070182
sI291
F44.75786146394411
sI292
F42.49285017424279
sI293
F35.853378167255734
sI294
F38.820137807934685
sI295
F34.678446560009341
sI296
F42.584964200705464
sI297
F41.999409476469303
sI298
F44.558726991798693
sI299
F49.737752131092329
sI300
F45.575421225785419
sI301
F42.150384748057569
sI302
F32.958092895658034
sI305
F33.286034118500318
sI306
F32.970706019613431
sI307
F33.450004729921496
sI308
F41.565594455576466
sI309
F43.101337851124917
sI310
F46.973184689578659
sI311
F41.671086037749497
sI312
F44.798376346952708
sI313
F42.526867387334597
sI314
F43.067702853910411
sI315
F43.617329285667182
sI316
F40.943729222983919
sI317
F49.676597590702194
sI318
F42.215743663099623
sI319
F34.711317125469002
sI320
F32.806735408192324
sI321
F33.450004729921439
sI324
F32.970706019613431
sI325
F32.970706019613452
sI326
F32.958092895657948
sI327
F33.093779532148673
sI328
F33.141174300951015
sI329
F42.051773051678374
sI330
F43.573756675639174
sI331
F40.544695846937756
sI332
F50.830125108812069
sI333
F40.495007782870729
sI334
F54.145083413837526
sI335
F40.160186674234488
sI336
F36.065890195111599
sI337
F37.103224086480154
sI338
F32.806735408192182
sI339
F32.958092895657892
sI340
F32.806735408192175
sI344
F32.899949470594869
sI346
F33.027926533167516
sI348
F36.087443441663837
sI350
F39.935704763777913
sI352
F40.469389996743949
sI354
F35.837455613142005
sI356
F33.027926533167509
sI358
F33.214969932312151
stp4
Rp5
(dp6
S'scale'
p7
I0
sS'description'
p8
S'custom_cell_property1'
p9
sb.