ccopy_reg
_reconstructor
p0
(copenalea.stse.io.walled_tissue.native_representation
IOTissueProperty
p1
c__builtin__
dict
p2
(dp3
I0
F32.970706019613409
sI1
F44.934445199320791
sI2
F43.928835225779686
sI3
F64.052118957047554
sI4
F77.376928876313983
sI5
F43.183896480651718
sI6
F71.289758812225926
sI7
F57.601079377637902
sI8
F56.846203019696567
sI9
F59.076814880428557
sI10
F32.970706019613381
sI11
F32.806735408192196
sI12
F32.958092895657948
sI13
F32.806735408192232
sI14
F33.450004729921474
sI15
F37.620362168654687
sI16
F60.379406590739464
sI17
F58.314294204938427
sI18
F43.179309890122504
sI19
F41.105024323262903
sI20
F43.498460147783732
sI21
F41.563683376189296
sI22
F43.515277646391091
sI23
F41.222364597636592
sI24
F42.507374377585343
sI25
F60.392019714694932
sI26
F52.067357904080971
sI27
F32.958092895657956
sI28
F33.450004729921496
sI29
F32.806735408192225
sI30
F32.970706019613395
sI31
F58.276072617194529
sI32
F56.321802835850711
sI33
F42.419846941651869
sI34
F44.166955717423967
sI35
F41.085149097636098
sI36
F41.725742908223268
sI37
F40.923853997356943
sI38
F41.21166255306828
sI39
F40.839384288443043
sI40
F41.647388653348365
sI41
F42.123629636636942
sI42
F48.428280534987529
sI43
F60.823541440323154
sI44
F33.261954518221678
sI45
F32.958092895657941
sI46
F32.970706019613431
sI47
F37.939130210438499
sI48
F47.985292333036185
sI49
F42.481765913796941
sI50
F41.125663980644596
sI51
F41.624455700702022
sI52
F40.741154807941335
sI53
F41.056100690950743
sI54
F40.873783717412508
sI55
F40.771732078136381
sI56
F40.940671495964317
sI57
F40.887543489000322
sI58
F40.962075585100884
sI59
F41.677201491788537
sI60
F41.578589795409385
sI61
F42.2654317271667
sI62
F33.180160320449765
sI63
F54.922892724425232
sI64
F42.579230962543768
sI65
F42.044893165884588
sI66
F40.946786950003265
sI67
F40.913151952788702
sI68
F40.972013197914237
sI69
F40.943729222983798
sI70
F40.671209302369974
sI71
F40.897481101813717
sI72
F40.880663603206401
sI73
F40.90894757813691
sI74
F40.715546344152905
sI75
F41.133690514070793
sI76
F41.997880612959541
sI77
F61.015031594920025
sI78
F71.781288430612051
sI79
F47.509815781502482
sI80
F51.864019057283599
sI81
F41.565594455576502
sI82
F41.575149852512432
sI83
F40.959400073958783
sI84
F41.552599115743533
sI85
F40.855819571172937
sI86
F41.364931119921152
sI87
F40.989977344153857
sI88
F41.539221560033184
sI89
F40.886396841368025
sI90
F41.560243433292328
sI91
F40.639485384542652
sI92
F41.624837916579409
sI93
F41.675672628278804
sI94
F45.568159124114082
sI95
F66.943582069871042
sI96
F54.137821312166231
sI97
F41.44634310181565
sI98
F41.099673300978772
sI99
F40.750710204877294
sI100
F40.861552809334484
sI101
F40.935702689557587
sI102
F40.686880153345051
sI103
F40.892512295407016
sI104
F40.708666458359005
sI105
F40.866903831618629
sI106
F40.914680816298485
sI107
F40.989595128276463
sI108
F40.868432695128412
sI109
F40.729306115740691
sI110
F41.225040108778636
sI111
F42.169113326052162
sI112
F44.067197373412533
sI113
F49.845154792652629
sI114
F41.481889178417376
sI115
F41.057629554460469
sI116
F40.920031838582567
sI117
F40.727777252230915
sI118
F40.929205019641088
sI119
F40.90818314638198
sI120
F40.943729222983755
sI121
F40.881045819083795
sI122
F40.887925704877709
sI123
F40.92882280376368
sI124
F40.746505830225423
sI125
F40.94755138175816
sI126
F40.89365894303927
sI127
F41.240710959753564
sI128
F43.976994426336958
sI129
F41.283136922149311
sI130
F50.159718459784628
sI131
F41.280843626884661
sI132
F41.552216899866188
sI133
F40.914298600420992
sI134
F41.488004632456445
sI135
F40.702551004319965
sI136
F41.578207579531949
sI137
F40.893276727161805
sI138
F41.477302587888097
sI139
F41.005265979251419
sI140
F41.132926082315912
sI141
F40.89365894303927
sI142
F41.525461788445412
sI143
F40.867286047496044
sI144
F41.65656183440683
sI145
F42.080057026608955
sI146
F41.308363170060261
sI147
F51.567801752268714
sI148
F42.089230207667512
sI149
F41.141717047497032
sI150
F40.90283212409787
sI151
F40.767909919362019
sI152
F40.645983054459045
sI153
F40.929587235518682
sI154
F40.996857229947821
sI155
F40.840913151952783
sI156
F40.928822803763644
sI157
F40.917356327440601
sI158
F40.910094225769221
sI159
F40.907418714627156
sI160
F40.938378200699553
sI161
F41.038900976466095
sI162
F44.956613720212239
sI163
F44.917245484836201
sI164
F51.259735755053171
sI165
F41.240328743876155
sI166
F41.378690891508903
sI167
F40.886014625490574
sI168
F40.957106778694104
sI169
F40.853526275908358
sI170
F40.696435550280924
sI171
F40.927293940253989
sI172
F40.733510490392518
sI173
F40.957106778694204
sI174
F40.87684144443201
sI175
F40.703697651952432
sI176
F40.90206769234301
sI177
F40.931880530783218
sI178
F41.424174580924074
sI179
F43.164785686779908
sI180
F43.048209844160972
sI181
F49.194241153374662
sI182
F41.001826036354423
sI183
F41.505586562818628
sI184
F40.842442015462524
sI185
F40.916591895685663
sI186
F40.959782289836134
sI187
F38.917220640803976
sI188
F40.046286342757746
sI189
F34.430770671428988
sI190
F39.329249356682872
sI191
F37.085642156117935
sI192
F40.927676156131312
sI193
F40.790078440253481
sI194
F40.878370307941765
sI195
F41.4486363970802
sI196
F42.223387980648361
sI197
F62.423114887403898
sI198
F32.970706019613424
sI199
F55.407160241140019
sI200
F44.449413250851066
sI201
F42.20465940265403
sI202
F41.116873015463511
sI203
F41.168472158917773
sI204
F32.970706019613509
sI205
F33.286034118500346
sI206
F33.45000472992146
sI207
F32.970706019613516
sI208
F38.644700720190343
sI209
F41.415383615743124
sI210
F42.070119413795496
sI211
F43.290152494579679
sI212
F46.722451073978931
sI213
F62.7002213985472
sI214
F32.970706019613331
sI215
F58.354809087946954
sI216
F51.292224104635558
sI217
F41.374104300979646
sI218
F41.185671873402384
sI219
F39.313960721585325
sI220
F34.545817650538076
sI221
F33.21073759064484
sI222
F35.385163717393397
sI223
F41.329767259196778
sI224
F41.32862061156446
sI225
F40.979275299585574
sI226
F55.59368158933006
sI227
F38.012897874784116
sI228
F32.806735408192239
sI229
F35.152012032155831
sI230
F58.932719494634192
sI231
F47.983381253649007
sI232
F41.578972011286943
sI233
F42.585346416582787
sI234
F41.675672628278896
sI235
F35.581240462519403
sI236
F38.636674186764004
sI237
F34.505684983407029
sI238
F41.380601970896301
sI239
F41.188729600421958
sI240
F42.635034480649971
sI241
F45.73174751965783
sI242
F60.223462512744568
sI243
F63.014402849801563
sI244
F32.958092895658034
sI245
F32.970706019613424
sI246
F65.403252083793234
sI247
F64.824195029473486
sI248
F45.548283898487348
sI249
F41.296896693737096
sI250
F43.241228862267619
sI251
F41.992147374798009
sI252
F42.170642189561939
sI253
F42.39538512549575
sI254
F40.495389998748323
sI255
F47.892796090695946
sI256
F46.331826447236473
sI257
F48.649201312146992
sI258
F32.806735408192289
sI259
F33.450004729921439
sI260
F32.958092895657941
sI261
F34.735014509870226
sI262
F38.90307865333876
sI263
F59.46552842778361
sI264
F62.814886161778588
sI265
F40.390662848329974
sI266
F52.86657130380523
sI267
F40.17815082047413
sI268
F66.728789081313096
sI269
F41.238799880366379
sI270
F57.769636579588258
sI271
F57.825822313571805
sI272
F32.806735408192182
sI273
F32.958092895657892
sI274
F32.80673540819221
sI275
F33.027926533167509
sI276
F36.800714202995181
sI277
F56.475173948426864
sI278
F55.628282204301456
sI279
F49.554343172968814
sI280
F33.027926533167502
sI281
F33.214969932312165
sI282
F0.0
sI283
F0.0
sI284
F0.0
sI285
F0.0
sI286
F0.0
sI287
F0.0
sI288
F0.0
sI289
F0.0
sI290
F0.0
sI291
F0.0
sI292
F0.0
sI293
F0.0
sI294
F0.0
sI295
F0.0
sI296
F0.0
sI297
F0.0
sI298
F0.0
sI299
F0.0
sI300
F0.0
sI301
F0.0
sI302
F0.0
sI303
F0.0
sI304
F0.0
sI305
F0.0
sI306
F0.0
sI307
F0.0
sI308
F0.0
sI309
F0.0
sI310
F0.0
sI311
F0.0
sI312
F0.0
sI313
F0.0
sI314
F0.0
sI315
F0.0
sI316
F0.0
sI317
F0.0
sI318
F0.0
sI319
F0.0
sI320
F0.0
sI321
F0.0
sI322
F0.0
sI323
F0.0
sI324
F0.0
sI325
F0.0
sI326
F0.0
sI327
F0.0
sI328
F0.0
sI329
F0.0
sI330
F0.0
sI331
F0.0
sI332
F0.0
sI333
F0.0
sI334
F0.0
sI335
F0.0
sI336
F0.0
sI337
F0.0
sI338
F0.0
sI339
F0.0
sI340
F0.0
sI341
F0.0
sI342
F0.0
sI343
F0.0
sI344
F0.0
sI345
F0.0
sI346
F0.0
sI347
F0.0
sI348
F0.0
sI349
F0.0
sI350
F0.0
sI351
F0.0
sI352
F0.0
sI353
F0.0
sI354
F0.0
sI355
F0.0
sI356
F0.0
sI357
F0.0
sI358
F0.0
sI359
F0.0
sI360
F0.0
sI361
F0.0
sI362
F0.0
sI363
F0.0
sI364
F0.0
sI365
F0.0
sI366
F0.0
sI367
F0.0
sI368
F0.0
sI369
F0.0
sI370
F0.0
sI371
F0.0
sI372
F0.0
sI373
F0.0
sI374
F0.0
sI375
F0.0
sI376
F0.0
sI377
F0.0
sI378
F0.0
sI379
F0.0
sI380
F0.0
sI381
F0.0
sI382
F0.0
sI383
F0.0
sI384
F0.0
sI385
F0.0
sI386
F0.0
sI387
F0.0
sI388
F0.0
sI389
F0.0
sI390
F0.0
sI391
F0.0
sI392
F0.0
sI393
F0.0
sI394
F0.0
sI395
F0.0
sI396
F0.0
sI397
F0.0
sI398
F0.0
sI399
F0.0
sI400
F0.0
sI401
F0.0
sI402
F0.0
sI403
F0.0
sI404
F0.0
sI405
F0.0
sI406
F0.0
sI407
F0.0
sI408
F0.0
sI409
F0.0
sI410
F0.0
sI411
F0.0
sI412
F0.0
sI413
F0.0
sI414
F0.0
sI415
F0.0
sI416
F0.0
sI417
F0.0
sI418
F0.0
sI419
F0.0
sI420
F0.0
sI421
F0.0
sI422
F0.0
sI423
F0.0
sI424
F0.0
sI425
F0.0
sI426
F0.0
sI427
F0.0
sI428
F0.0
sI429
F0.0
sI430
F0.0
sI431
F0.0
sI432
F0.0
sI433
F0.0
sI434
F0.0
sI435
F0.0
sI436
F0.0
sI437
F0.0
sI438
F0.0
sI439
F0.0
sI440
F0.0
sI441
F0.0
sI442
F0.0
sI443
F0.0
sI444
F0.0
sI445
F0.0
sI446
F0.0
sI447
F0.0
sI448
F0.0
sI449
F0.0
sI450
F0.0
sI451
F0.0
sI452
F0.0
sI453
F0.0
sI454
F0.0
sI455
F0.0
sI456
F0.0
sI457
F0.0
sI458
F0.0
sI459
F0.0
sI460
F0.0
sI461
F0.0
sI462
F0.0
sI463
F0.0
stp4
Rp5
(dp6
S'scale'
p7
I0
sS'description'
p8
S'custom_cell_property2'
p9
sb.