ccopy_reg
_reconstructor
p0
(copenalea.stse.io.walled_tissue.native_representation
IOTissueProperty
p1
c__builtin__
dict
p2
(dp3
I0
F32.951085604571553
sI1
F33.006353157951651
sI2
F32.847166685063726
sI3
F33.947424989209459
sI4
F48.211137906250499
sI5
F42.256240090372621
sI6
F33.672169742801152
sI7
F39.895387110156371
sI8
F33.574608747602774
sI9
F33.312831873012897
sI10
F32.96697481872129
sI11
F32.806735408192196
sI12
F32.958092895657948
sI13
F32.806735408192232
sI14
F33.009330803913713
sI15
F32.810093462921486
sI16
F51.041618228765294
sI17
F51.302983965371112
sI18
F48.7064920523731
sI19
F42.058886659480358
sI20
F59.605419438926155
sI21
F42.495361758309116
sI22
F63.429489292699984
sI23
F37.038716671660495
sI24
F51.909755055398193
sI25
F32.964893754346299
sI26
F33.453546059312906
sI27
F32.958092895657956
sI28
F33.450004729921496
sI29
F32.917450607356948
sI30
F32.993656215081266
sI31
F41.118531951677994
sI32
F41.223689962911834
sI33
F48.820722621099009
sI34
F55.959847087959965
sI35
F41.640126551677035
sI36
F50.044671480675632
sI37
F41.713129784267771
sI38
F45.417948284280683
sI39
F51.525758005750461
sI40
F48.304442590697462
sI41
F58.94227489157015
sI42
F46.271594789904498
sI43
F40.901326548170786
sI44
F32.752822066334943
sI45
F32.94384807991235
sI46
F32.970706019613431
sI47
F33.140405853019217
sI48
F39.764389055731932
sI49
F44.268831005203097
sI50
F41.588909624100253
sI51
F49.139202067023454
sI52
F40.42468006142213
sI53
F48.855597885963967
sI54
F42.418318078142114
sI55
F42.058652937472338
sI56
F41.634775529392918
sI57
F41.754409099031186
sI58
F40.730452763373059
sI59
F44.884474270518034
sI60
F42.472201099465209
sI61
F32.811561182924073
sI62
F32.905931119914108
sI63
F36.997209813415914
sI64
F50.226339475651535
sI65
F55.900600938913335
sI66
F42.859777416583739
sI67
F47.727678831642521
sI68
F42.70994879262782
sI69
F42.268871670063625
sI70
F43.324551923549123
sI71
F41.712747568390377
sI72
F44.702440161715536
sI73
F42.506227729953054
sI74
F45.049492178429837
sI75
F54.531503665928028
sI76
F46.239712420773749
sI77
F59.056022804395766
sI78
F33.265486473412196
sI79
F35.080358775682868
sI80
F41.061307590036861
sI81
F51.902622860904977
sI82
F42.290657975077586
sI83
F41.831616706273799
sI84
F45.372082378988026
sI85
F41.333589417971254
sI86
F42.892265766166027
sI87
F41.372575437469948
sI88
F42.706891065608275
sI89
F42.13509611296012
sI90
F42.404558306554321
sI91
F45.817363876204141
sI92
F42.29677342911657
sI93
F43.883351536364486
sI94
F61.12083800474101
sI95
F40.207380448757306
sI96
F39.078853979830896
sI97
F39.350780824001049
sI98
F43.561525767561164
sI99
F42.959535760595294
sI100
F41.811741480646987
sI101
F41.556421274517966
sI102
F41.028581147775206
sI103
F40.983097458359978
sI104
F40.90092104471065
sI105
F41.004883763373989
sI106
F41.720391885939179
sI107
F41.337411576745644
sI108
F42.209245993183224
sI109
F42.243645422152646
sI110
F41.903855507109689
sI111
F44.45896864778716
sI112
F51.220402802638702
sI113
F47.014601483904706
sI114
F45.377776073885123
sI115
F47.472358625513444
sI116
F45.180974440268713
sI117
F41.70510325084156
sI118
F41.876718179811519
sI119
F40.986155185379467
sI120
F41.023994557245871
sI121
F40.9601645057136
sI122
F40.849704117133847
sI123
F41.032021090672103
sI124
F41.309509817692565
sI125
F42.944629341375155
sI126
F44.458586431909616
sI127
F44.849593274529362
sI128
F53.323701493221868
sI129
F43.109794358090724
sI130
F39.776053545969219
sI131
F41.883479864793905
sI132
F41.122224037747607
sI133
F42.279955930509367
sI134
F41.783457505716527
sI135
F41.215484711842642
sI136
F41.497942245269833
sI137
F40.894805590671652
sI138
F41.548012525214247
sI139
F40.896716670058801
sI140
F41.150508012678088
sI141
F41.086295745268444
sI142
F41.790337391510398
sI143
F42.14541594165091
sI144
F41.586616328835596
sI145
F47.751376216043639
sI146
F40.2277623108982
sI147
F43.340281979980951
sI148
F42.300891251223007
sI149
F45.014710533582935
sI150
F44.703204593470389
sI151
F41.223129029391416
sI152
F41.033932170059281
sI153
F40.925382860866854
sI154
F40.915063032175858
sI155
F40.869961558638202
sI156
F40.940671495964288
sI157
F41.048456373402104
sI158
F41.009470353903232
sI159
F41.740267111566034
sI160
F44.018655956977668
sI161
F42.646500956972986
sI162
F55.73930583863423
sI163
F42.497691591709781
sI164
F36.013126056468366
sI165
F41.337691879299271
sI166
F45.615553892916502
sI167
F41.870602725772606
sI168
F41.31982964638344
sI169
F41.419205774517586
sI170
F40.713635264765664
sI171
F40.928822803763744
sI172
F40.720515150559514
sI173
F40.905507635239985
sI174
F40.933409394292887
sI175
F40.748416909612715
sI176
F42.135478328837515
sI177
F41.799510572569027
sI178
F42.328115131066539
sI179
F50.35999957956269
sI180
F42.24269490440583
sI181
F33.629337671923601
sI182
F39.9662496533184
sI183
F42.709566576750298
sI184
F42.453099722988973
sI185
F41.55298133162097
sI186
F41.094704494571985
sI187
F39.06284489010811
sI188
F40.02870441239557
sI189
F34.171665595879475
sI190
F39.320458391501731
sI191
F37.362748667260966
sI192
F41.01787910320683
sI193
F41.54801252521429
sI194
F42.047568677026533
sI195
F41.649681948612887
sI196
F43.423809646580587
sI197
F61.48317676773982
sI198
F32.8407937231649
sI199
F45.888423473422385
sI200
F50.210421002255337
sI201
F44.959671447231834
sI202
F42.310533200704484
sI203
F41.802568299588458
sI204
F32.951085604571652
sI205
F32.791395122300479
sI206
F33.118654554658775
sI207
F32.951085604571645
sI208
F39.034178699300291
sI209
F43.811494951406118
sI210
F44.218554860878285
sI211
F45.558221511300729
sI212
F53.977653055090755
sI213
F33.913288881795239
sI214
F32.903044338322537
sI215
F33.528090975415893
sI216
F39.706132557902812
sI217
F41.638979904044689
sI218
F41.45360520348688
sI219
F40.165155480641261
sI220
F34.546879361308719
sI221
F33.239531186745211
sI222
F35.557543078118265
sI223
F41.49794224526979
sI224
F41.459720657525871
sI225
F41.947873367199712
sI226
F58.065041636232458
sI227
F32.782509204015163
sI228
F32.917450607357011
sI229
F33.101827464258179
sI230
F35.263874753634717
sI231
F51.922590265561439
sI232
F42.455753105784083
sI233
F44.75786146394411
sI234
F42.49285017424279
sI235
F34.780735792938941
sI236
F37.406293310273504
sI237
F34.197839362913626
sI238
F42.584964200705507
sI239
F41.999409476469303
sI240
F44.558726991798693
sI241
F49.842073401540119
sI242
F53.489771341857981
sI243
F34.538919865320949
sI244
F32.958092895657956
sI245
F32.972947897782724
sI246
F43.38398411865834
sI247
F42.44002603516342
sI248
F46.373134169851035
sI249
F42.049743791127348
sI250
F44.798376346952708
sI251
F42.40038155560552
sI252
F43.067702853910411
sI253
F43.537952172284889
sI254
F40.943729222983912
sI255
F55.12119547521749
sI256
F44.290546996246377
sI257
F33.472181621644054
sI258
F32.744195771612873
sI259
F33.45000472992151
sI260
F33.164571752820912
sI261
F32.890254791407024
sI262
F33.085094741639658
sI263
F42.969849797113781
sI264
F44.577613929921426
sI265
F39.884233841745051
sI266
F61.008085229715967
sI267
F40.248204454138403
sI268
F56.004708543992265
sI269
F40.452594480300526
sI270
F33.406602189185556
sI271
F33.74565174620264
sI272
F32.806735408192182
sI273
F32.958092895657892
sI274
F32.806735408192175
sI275
F33.027926533167545
sI276
F35.312137804922557
sI277
F38.173346502025886
sI278
F39.912371793744363
sI279
F32.992638003473516
sI280
F33.027926533167516
sI281
F33.214969932312151
sI282
F33.319548365384392
sI283
F89.415596628635754
sI284
F77.635904158850778
sI285
F40.292051529417662
sI286
F175.07060180493289
sI287
F76.666274316171737
sI288
F32.836384107761056
sI289
F33.832220175215241
sI290
F34.212210254643097
sI291
F68.598117938066466
sI292
F32.896270885628894
sI293
F36.748195904909558
sI294
F35.328225632343639
sI295
F68.755704487914841
sI296
F40.023152279524602
sI297
F52.635467881408836
sI298
F35.497688405826231
sI299
F34.290468058776199
sI300
F56.234245577752056
sI301
F97.90826523027863
sI302
F43.44810842310185
sI303
F83.573566183336325
sI304
F33.325432981987959
sI305
F34.133738968677562
sI306
F33.231509655803002
sI307
F47.552145360919603
sI308
F64.683406141786236
sI309
F33.107617566775247
sI310
F140.84060712183535
sI311
F37.428670169334836
sI312
F40.727910243476927
sI313
F59.024957492526909
sI314
F137.11545066812184
sI315
F72.639721971492349
sI316
F47.69995108369713
sI317
F33.32709674589065
sI318
F33.078773403248341
sI319
F49.155464497764449
sI320
F42.021616075327543
sI321
F34.774098273487631
sI322
F42.015938837164072
sI323
F34.664098708591823
sI324
F51.082232602828981
sI325
F93.969521063328557
sI326
F71.706206732289829
sI327
F53.202766345739612
sI328
F40.982303083278346
sI329
F54.352064763214379
sI330
F33.769577028859842
sI331
F48.688873387714771
sI332
F59.218719974837242
sI333
F40.326739011434739
sI334
F104.32022376141083
sI335
F70.142610761481734
sI336
F34.885548397927522
sI337
F45.978302168036038
sI338
F33.482195836238915
sI339
F42.130478184106146
sI340
F56.087713681783363
sI341
F36.010763638312113
sI342
F46.591134320544242
sI343
F33.340981197025634
sI344
F35.021792128125703
sI345
F33.910120763634602
sI346
F40.085261569306411
sI347
F33.135024017412569
sI348
F33.704663111429561
sI349
F43.394508153174499
sI350
F51.676043353451497
sI351
F34.177339463417326
sI352
F46.061357903928347
sI353
F41.306008087048198
sI354
F87.840423201463864
sI355
F96.742055915912076
sI356
F38.49558765576068
sI357
F47.422534460976379
sI358
F34.979272430992545
sI359
F38.210114958276527
sI360
F38.825481754508374
sI361
F45.841715612273113
sI362
F47.810625182505966
sI363
F40.350134795052114
sI364
F40.485250250522782
sI365
F43.839611052757547
sI366
F47.9432554880526
sI367
F41.959325770811645
sI368
F40.881492104999914
sI369
F55.062476113139311
sI370
F118.30032527619913
sI371
F68.179790775278221
sI372
F42.045850222395288
sI373
F43.568465469161112
sI374
F60.611125673361599
sI375
F45.174867928837223
sI376
F39.408745400871773
sI377
F40.096610769156868
sI378
F37.288038642916767
sI379
F47.754637027855992
sI380
F84.628276729367983
sI381
F41.843746032170166
sI382
F45.249024191997904
sI383
F36.661094386393401
sI384
F47.592667012829857
sI385
F40.302489198216172
sI386
F66.890291616523541
sI387
F61.882928763697265
sI388
F36.620110097931452
sI389
F42.149530628393947
sI390
F41.849599816873237
sI391
F39.728909630711087
sI392
F39.346347903885686
sI393
F39.241762024399492
sI394
F52.872429433387737
sI395
F51.8599769938184
sI396
F36.182982174502442
sI397
F43.199446751177604
sI398
F38.145392342130052
sI399
F39.428605889333987
sI400
F49.818731360006083
sI401
F42.201957524177935
sI402
F39.267216402625628
sI403
F49.464474450446971
sI404
F39.814210755092773
sI405
F40.254878481056359
sI406
F40.87874869445956
sI407
F48.238113006713185
sI408
F48.824423150577168
sI409
F45.143785183581606
sI410
F40.146757375201453
sI411
F43.638588174128522
sI412
F46.534249576440494
sI413
F39.125519368607044
sI414
F61.312201847105449
sI415
F42.825654021485619
sI416
F43.428244018188742
sI417
F39.817420812613513
sI418
F42.817665628561009
sI419
F42.233133172785038
sI420
F42.053208939222017
sI421
F40.062720600598709
sI422
F44.175731239405351
sI423
F36.949884677448665
sI424
F39.025040076918181
sI425
F40.829615988894631
sI426
F48.725760692265652
sI427
F48.105830994958872
sI428
F45.596699924522056
sI429
F43.337552758298571
sI430
F41.744874536976567
sI431
F39.778150744279458
sI432
F41.154817310756471
sI433
F55.450442170666307
sI434
F41.761977581344617
sI435
F41.229350245961371
sI436
F42.504040996856276
sI437
F35.771460555512654
sI438
F51.437961287248164
sI439
F36.056451497704238
sI440
F35.656240434076366
sI441
F36.494528979639171
sI442
F42.918637330962191
sI443
F39.062413970114967
sI444
F43.510779011943605
sI445
F70.205261305645735
sI446
F44.793713660134479
sI447
F51.402100336707662
sI448
F35.468914868394286
sI449
F40.587930789417818
sI450
F49.879234999132265
sI451
F47.690698681038633
sI452
F43.025676413006849
sI453
F71.554320003985666
sI454
F68.541245428481304
sI455
F48.584087100359348
sI456
F33.689307486171735
sI457
F46.843769796624613
sI458
F35.848080991488175
sI459
F35.990741017359682
sI460
F42.722782607937582
sI461
F33.430569951511117
sI462
F44.604227443244511
sI463
F38.077530572365532
stp4
Rp5
(dp6
S'scale'
p7
I0
sS'description'
p8
Vcustom_cell_property4
p9
sb.