ccopy_reg
_reconstructor
p0
(copenalea.stse.io.walled_tissue.native_representation
IOTissueProperty
p1
c__builtin__
dict
p2
(dp3
I0
(lp4
I1
aI108
asI1
(lp5
I1
aI29
asI2
(lp6
I2
aI3
asI3
(lp7
I2
aI124
asI4
(lp8
I3
aI42
asI5
(lp9
I3
aI127
asI6
(lp10
I6
aI40
asI7
(lp11
I6
aI13
asI8
(lp12
I6
aI7
asI9
(lp13
I7
aI11
asI10
(lp14
I7
aI38
asI11
(lp15
I9
aI36
asI12
(lp16
I9
aI39
asI13
(lp17
I11
aI41
asI14
(lp18
I12
aI130
asI15
(lp19
I12
aI115
asI16
(lp20
I12
aI243
asI17
(lp21
I13
aI116
asI18
(lp22
I13
aI244
asI19
(lp23
I14
aI136
asI20
(lp24
I14
aI146
asI21
(lp25
I14
aI142
asI22
(lp26
I15
aI466
asI23
(lp27
I15
aI147
asI24
(lp28
I15
aI141
asI25
(lp29
I16
aI60
asI26
(lp30
I16
aI181
asI27
(lp31
I16
aI53
asI28
(lp32
I18
aI169
asI29
(lp33
I18
aI166
asI30
(lp34
I19
aI74
asI31
(lp35
I19
aI61
asI32
(lp36
I19
aI182
asI33
(lp37
I21
aI49
asI34
(lp38
I21
aI22
asI35
(lp39
I22
aI68
asI36
(lp40
I22
aI188
asI37
(lp41
I23
aI524
asI38
(lp42
I23
aI221
asI39
(lp43
I25
aI88
asI40
(lp44
I25
aI27
asI41
(lp45
I25
aI214
asI42
(lp46
I27
aI28
asI43
(lp47
I27
aI93
asI44
(lp48
I28
aI160
asI45
(lp49
I28
aI227
asI46
(lp50
I29
aI31
asI47
(lp51
I30
aI234
asI48
(lp52
I30
aI31
asI49
(lp53
I31
aI35
asI50
(lp54
I33
aI360
asI51
(lp55
I33
aI104
asI52
(lp56
I34
aI241
asI53
(lp57
I34
aI35
asI54
(lp58
I34
aI236
asI55
(lp59
I35
aI109
asI56
(lp60
I36
aI120
asI57
(lp61
I36
aI102
asI58
(lp62
I37
aI118
asI59
(lp63
I37
aI38
asI60
(lp64
I38
aI245
asI61
(lp65
I39
aI41
asI62
(lp66
I39
aI119
asI63
(lp67
I40
aI377
asI64
(lp68
I40
aI41
asI65
(lp69
I42
aI126
asI66
(lp70
I43
aI125
asI67
(lp71
I43
aI117
asI68
(lp72
I46
aI256
asI69
(lp73
I46
aI262
asI70
(lp74
I46
aI350
asI71
(lp75
I48
aI49
asI72
(lp76
I48
aI286
asI73
(lp77
I48
aI191
asI74
(lp78
I52
aI633
asI75
(lp79
I52
aI299
asI76
(lp80
I52
aI79
asI77
(lp81
I53
aI301
asI78
(lp82
I53
aI54
asI79
(lp83
I54
aI55
asI80
(lp84
I54
aI461
asI81
(lp85
I55
aI467
asI82
(lp86
I55
aI148
asI83
(lp87
I56
aI80
asI84
(lp88
I56
aI57
asI85
(lp89
I56
aI300
asI86
(lp90
I57
aI184
asI87
(lp91
I57
aI447
asI88
(lp92
I58
aI64
asI89
(lp93
I58
aI225
asI90
(lp94
I58
aI59
asI91
(lp95
I59
aI152
asI92
(lp96
I59
aI62
asI93
(lp97
I60
aI460
asI94
(lp98
I60
aI61
asI95
(lp99
I61
aI63
asI96
(lp100
I62
aI459
asI97
(lp101
I62
aI63
asI98
(lp102
I63
aI65
asI99
(lp103
I64
aI65
asI100
(lp104
I64
aI159
asI101
(lp105
I65
aI75
asI102
(lp106
I66
aI67
asI103
(lp107
I66
aI163
asI104
(lp108
I67
aI68
asI105
(lp109
I68
aI198
asI106
(lp110
I69
aI165
asI107
(lp111
I69
aI70
asI108
(lp112
I70
aI164
asI109
(lp113
I71
aI170
asI110
(lp114
I71
aI174
asI111
(lp115
I71
aI167
asI112
(lp116
I72
aI168
asI113
(lp117
I72
aI73
asI114
(lp118
I72
aI175
asI115
(lp119
I73
aI77
asI116
(lp120
I73
aI183
asI117
(lp121
I74
aI75
asI118
(lp122
I74
aI179
asI119
(lp123
I75
aI330
asI120
(lp124
I76
aI186
asI121
(lp125
I76
aI77
asI122
(lp126
I76
aI446
asI123
(lp127
I77
aI335
asI124
(lp128
I78
aI81
asI125
(lp129
I78
aI133
asI126
(lp130
I78
aI190
asI127
(lp131
I79
aI80
asI128
(lp132
I79
aI192
asI129
(lp133
I80
aI194
asI130
(lp134
I81
aI193
asI131
(lp135
I81
aI199
asI132
(lp136
I82
aI292
asI133
(lp137
I82
aI204
asI134
(lp138
I83
aI209
asI135
(lp139
I83
aI132
asI136
(lp140
I83
aI206
asI137
(lp141
I85
aI217
asI138
(lp142
I85
aI86
asI139
(lp143
I86
aI96
asI140
(lp144
I87
aI218
asI141
(lp145
I87
aI222
asI142
(lp146
I88
aI162
asI143
(lp147
I88
aI347
asI144
(lp148
I89
aI172
asI145
(lp149
I89
aI92
asI146
(lp150
I90
aI177
asI147
(lp151
I90
aI91
asI148
(lp152
I90
aI173
asI149
(lp153
I91
aI331
asI150
(lp154
I91
aI92
asI151
(lp155
I92
aI232
asI152
(lp156
I93
aI99
asI153
(lp157
I93
aI95
asI154
(lp158
I94
aI96
asI155
(lp159
I94
aI98
asI156
(lp160
I95
aI96
asI157
(lp161
I95
aI213
asI158
(lp162
I98
aI99
asI159
(lp163
I99
aI229
asI160
(lp164
I100
aI553
asI161
(lp165
I100
aI235
asI162
(lp166
I101
aI106
asI163
(lp167
I101
aI102
asI164
(lp168
I102
aI103
asI165
(lp169
I103
aI112
asI166
(lp170
I103
aI105
asI167
(lp171
I104
aI561
asI168
(lp172
I104
aI106
asI169
(lp173
I105
aI481
asI170
(lp174
I105
aI106
asI171
(lp175
I107
aI362
asI172
(lp176
I107
aI108
asI173
(lp177
I108
aI109
asI174
(lp178
I109
aI361
asI175
(lp179
I110
aI352
asI176
(lp180
I110
aI258
asI177
(lp181
I110
aI370
asI178
(lp182
I111
aI113
asI179
(lp183
I111
aI122
asI180
(lp184
I111
aI372
asI181
(lp185
I112
aI121
asI182
(lp186
I112
aI114
asI183
(lp187
I113
aI368
asI184
(lp188
I113
aI114
asI185
(lp189
I114
aI482
asI186
(lp190
I115
aI580
asI187
(lp191
I115
aI116
asI188
(lp192
I116
aI378
asI189
(lp193
I117
aI118
asI190
(lp194
I117
aI246
asI191
(lp195
I118
aI242
asI192
(lp196
I119
aI120
asI193
(lp197
I119
aI380
asI194
(lp198
I120
aI121
asI195
(lp199
I121
aI122
asI196
(lp200
I122
aI381
asI197
(lp201
I123
aI610
asI198
(lp202
I123
aI250
asI199
(lp203
I124
aI590
asI200
(lp204
I125
aI126
asI201
(lp205
I125
aI247
asI202
(lp206
I126
aI128
asI203
(lp207
I127
aI128
asI204
(lp208
I127
aI586
asI205
(lp209
I128
aI129
asI206
(lp210
I129
aI248
asI207
(lp211
I129
aI492
asI208
(lp212
I130
aI626
asI209
(lp213
I130
aI575
asI210
(lp214
I131
aI280
asI211
(lp215
I131
aI283
asI212
(lp216
I132
aI281
asI213
(lp217
I132
aI284
asI214
(lp218
I133
aI342
asI215
(lp219
I133
aI134
asI216
(lp220
I134
aI289
asI217
(lp221
I134
aI210
asI218
(lp222
I135
aI520
asI219
(lp223
I135
aI434
asI220
(lp224
I135
aI406
asI221
(lp225
I136
aI137
asI222
(lp226
I136
aI138
asI223
(lp227
I137
aI435
asI224
(lp228
I137
aI143
asI225
(lp229
I138
aI632
asI226
(lp230
I138
aI298
asI227
(lp231
I139
aI260
asI228
(lp232
I139
aI140
asI229
(lp233
I139
aI414
asI230
(lp234
I140
aI401
asI231
(lp235
I140
aI305
asI232
(lp236
I141
aI309
asI233
(lp237
I141
aI142
asI234
(lp238
I142
aI145
asI235
(lp239
I143
aI293
asI236
(lp240
I143
aI145
asI237
(lp241
I144
aI440
asI238
(lp242
I144
aI145
asI239
(lp243
I144
aI310
asI240
(lp244
I146
aI297
asI241
(lp245
I146
aI147
asI242
(lp246
I147
aI148
asI243
(lp247
I148
aI302
asI244
(lp248
I149
aI321
asI245
(lp249
I149
aI404
asI246
(lp250
I149
aI473
asI247
(lp251
I150
aI539
asI248
(lp252
I150
aI400
asI249
(lp253
I150
aI307
asI250
(lp254
I151
aI152
asI251
(lp255
I151
aI226
asI252
(lp256
I151
aI317
asI253
(lp257
I152
aI536
asI254
(lp258
I153
aI312
asI255
(lp259
I153
aI154
asI256
(lp260
I154
aI240
asI257
(lp261
I154
aI155
asI258
(lp262
I155
aI355
asI259
(lp263
I155
aI156
asI260
(lp264
I156
aI313
asI261
(lp265
I156
aI157
asI262
(lp266
I157
aI316
asI263
(lp267
I157
aI614
asI264
(lp268
I158
aI322
asI265
(lp269
I158
aI403
asI266
(lp270
I158
aI542
asI267
(lp271
I159
aI328
asI268
(lp272
I159
aI161
asI269
(lp273
I160
aI162
asI270
(lp274
I160
aI327
asI271
(lp275
I161
aI224
asI272
(lp276
I161
aI162
asI273
(lp277
I163
aI202
asI274
(lp278
I163
aI164
asI275
(lp279
I164
aI334
asI276
(lp280
I165
aI337
asI277
(lp281
I165
aI166
asI278
(lp282
I166
aI167
asI279
(lp283
I167
aI168
asI280
(lp284
I168
aI336
asI281
(lp285
I169
aI170
asI282
(lp286
I170
aI173
asI283
(lp287
I172
aI173
asI284
(lp288
I174
aI177
asI285
(lp289
I174
aI175
asI286
(lp290
I175
aI176
asI287
(lp291
I176
aI179
asI288
(lp292
I176
aI180
asI289
(lp293
I177
aI178
asI290
(lp294
I178
aI179
asI291
(lp295
I178
aI329
asI292
(lp296
I180
aI182
asI293
(lp297
I180
aI183
asI294
(lp298
I181
aI443
asI295
(lp299
I181
aI182
asI296
(lp300
I183
aI444
asI297
(lp301
I184
aI186
asI298
(lp302
I184
aI195
asI299
(lp303
I185
aI186
asI300
(lp304
I185
aI187
asI301
(lp305
I185
aI332
asI302
(lp306
I187
aI200
asI303
(lp307
I187
aI196
asI304
(lp308
I188
aI189
asI305
(lp309
I188
aI191
asI306
(lp310
I189
aI197
asI307
(lp311
I189
aI190
asI308
(lp312
I190
aI212
asI309
(lp313
I191
aI211
asI310
(lp314
I192
aI338
asI311
(lp315
I192
aI606
asI312
(lp316
I193
aI339
asI313
(lp317
I193
aI196
asI314
(lp318
I194
aI195
asI315
(lp319
I194
aI340
asI316
(lp320
I195
aI196
asI317
(lp321
I197
aI198
asI318
(lp322
I197
aI199
asI319
(lp323
I198
aI202
asI320
(lp324
I199
aI200
asI321
(lp325
I200
aI201
asI322
(lp326
I201
aI202
asI323
(lp327
I201
aI333
asI324
(lp328
I203
aI204
asI325
(lp329
I203
aI205
asI326
(lp330
I204
aI428
asI327
(lp331
I205
aI206
asI328
(lp332
I205
aI279
asI329
(lp333
I206
aI429
asI330
(lp334
I207
aI209
asI331
(lp335
I207
aI211
asI332
(lp336
I207
aI287
asI333
(lp337
I208
aI424
asI334
(lp338
I208
aI209
asI335
(lp339
I208
aI210
asI336
(lp340
I210
aI212
asI337
(lp341
I211
aI212
asI338
(lp342
I213
aI217
asI339
(lp343
I213
aI214
asI340
(lp344
I214
aI215
asI341
(lp345
I215
aI344
asI342
(lp346
I215
aI218
asI343
(lp347
I216
aI217
asI344
(lp348
I216
aI218
asI345
(lp349
I219
aI346
asI346
(lp350
I219
aI314
asI347
(lp351
I219
aI221
asI348
(lp352
I220
aI221
asI349
(lp353
I220
aI222
asI350
(lp354
I222
aI345
asI351
(lp355
I223
aI226
asI352
(lp356
I223
aI315
asI353
(lp357
I223
aI348
asI354
(lp358
I224
aI349
asI355
(lp359
I224
aI225
asI356
(lp360
I225
aI226
asI357
(lp361
I227
aI229
asI358
(lp362
I227
aI231
asI359
(lp363
I228
aI229
asI360
(lp364
I228
aI230
asI361
(lp365
I230
aI232
asI362
(lp366
I231
aI232
asI363
(lp367
I231
aI326
asI364
(lp368
I233
aI234
asI365
(lp369
I233
aI235
asI366
(lp370
I234
aI236
asI367
(lp371
I235
aI239
asI368
(lp372
I236
aI238
asI369
(lp373
I237
aI257
asI370
(lp374
I237
aI353
asI371
(lp375
I237
aI351
asI372
(lp376
I238
aI364
asI373
(lp377
I238
aI239
asI374
(lp378
I239
aI479
asI375
(lp379
I240
aI357
asI376
(lp380
I241
aI363
asI377
(lp381
I241
aI365
asI378
(lp382
I242
aI597
asI379
(lp383
I242
aI245
asI380
(lp384
I243
aI596
asI381
(lp385
I243
aI244
asI382
(lp386
I244
aI245
asI383
(lp387
I246
aI598
asI384
(lp388
I246
aI247
asI385
(lp389
I247
aI248
asI386
(lp390
I248
aI499
asI387
(lp391
I249
aI250
asI388
(lp392
I249
aI386
asI389
(lp393
I250
aI518
asI390
(lp394
I251
aI384
asI391
(lp395
I251
aI432
asI392
(lp396
I251
aI271
asI393
(lp397
I252
aI388
asI394
(lp398
I252
aI254
asI395
(lp399
I253
aI490
asI396
(lp400
I253
aI254
asI397
(lp401
I254
aI267
asI398
(lp402
I255
aI392
asI399
(lp403
I255
aI256
asI400
(lp404
I255
aI259
asI401
(lp405
I256
aI257
asI402
(lp406
I257
aI258
asI403
(lp407
I258
aI391
asI404
(lp408
I259
aI398
asI405
(lp409
I259
aI263
asI406
(lp410
I260
aI264
asI407
(lp411
I260
aI397
asI408
(lp412
I261
aI472
asI409
(lp413
I261
aI405
asI410
(lp414
I261
aI262
asI411
(lp415
I262
aI263
asI412
(lp416
I263
aI264
asI413
(lp417
I264
aI402
asI414
(lp418
I265
aI266
asI415
(lp419
I265
aI619
asI416
(lp420
I265
aI269
asI417
(lp421
I266
aI267
asI418
(lp422
I266
aI486
asI419
(lp423
I267
aI593
asI420
(lp424
I268
aI625
asI421
(lp425
I268
aI412
asI422
(lp426
I268
aI574
asI423
(lp427
I269
aI601
asI424
(lp428
I269
aI270
asI425
(lp429
I270
aI487
asI426
(lp430
I270
aI271
asI427
(lp431
I271
aI410
asI428
(lp432
I272
aI416
asI429
(lp433
I272
aI576
asI430
(lp434
I272
aI413
asI431
(lp435
I273
aI274
asI432
(lp436
I273
aI276
asI433
(lp437
I273
aI294
asI434
(lp438
I274
aI521
asI435
(lp439
I274
aI407
asI436
(lp440
I275
aI408
asI437
(lp441
I275
aI418
asI438
(lp442
I275
aI276
asI439
(lp443
I276
aI277
asI440
(lp444
I277
aI437
asI441
(lp445
I277
aI278
asI442
(lp446
I278
aI509
asI443
(lp447
I278
aI421
asI444
(lp448
I279
aI281
asI445
(lp449
I280
aI281
asI446
(lp450
I282
aI283
asI447
(lp451
I282
aI285
asI448
(lp452
I283
aI284
asI449
(lp453
I284
aI287
asI450
(lp454
I285
aI286
asI451
(lp455
I286
aI287
asI452
(lp456
I288
aI289
asI453
(lp457
I288
aI341
asI454
(lp458
I288
aI423
asI455
(lp459
I289
aI425
asI456
(lp460
I290
aI427
asI457
(lp461
I290
aI292
asI458
(lp462
I290
aI639
asI459
(lp463
I291
aI292
asI460
(lp464
I291
aI431
asI461
(lp465
I293
aI439
asI462
(lp466
I293
aI295
asI463
(lp467
I294
aI296
asI464
(lp468
I294
aI438
asI465
(lp469
I295
aI296
asI466
(lp470
I295
aI436
asI467
(lp471
I296
aI522
asI468
(lp472
I297
aI304
asI469
(lp473
I297
aI298
asI470
(lp474
I298
aI299
asI471
(lp475
I299
aI300
asI472
(lp476
I300
aI303
asI473
(lp477
I301
aI445
asI474
(lp478
I301
aI302
asI475
(lp479
I302
aI304
asI476
(lp480
I303
aI448
asI477
(lp481
I303
aI304
asI478
(lp482
I305
aI307
asI479
(lp483
I305
aI308
asI480
(lp484
I306
aI465
asI481
(lp485
I306
aI307
asI482
(lp486
I306
aI309
asI483
(lp487
I308
aI310
asI484
(lp488
I308
aI415
asI485
(lp489
I309
aI310
asI486
(lp490
I311
aI312
asI487
(lp491
I311
aI452
asI488
(lp492
I312
aI313
asI489
(lp493
I313
aI449
asI490
(lp494
I314
aI315
asI491
(lp495
I314
aI526
asI492
(lp496
I315
aI318
asI493
(lp497
I316
aI450
asI494
(lp498
I316
aI325
asI495
(lp499
I317
aI530
asI496
(lp500
I317
aI318
asI497
(lp501
I318
aI319
asI498
(lp502
I319
aI456
asI499
(lp503
I319
aI527
asI500
(lp504
I320
aI322
asI501
(lp505
I320
aI324
asI502
(lp506
I320
aI463
asI503
(lp507
I321
aI322
asI504
(lp508
I321
aI323
asI505
(lp509
I323
aI616
asI506
(lp510
I323
aI325
asI507
(lp511
I324
aI325
asI508
(lp512
I324
aI455
asI509
(lp513
I326
aI327
asI510
(lp514
I326
aI331
asI511
(lp515
I327
aI328
asI512
(lp516
I328
aI330
asI513
(lp517
I329
aI331
asI514
(lp518
I329
aI330
asI515
(lp519
I332
aI333
asI516
(lp520
I332
aI335
asI517
(lp521
I333
aI334
asI518
(lp522
I334
aI337
asI519
(lp523
I335
aI336
asI520
(lp524
I336
aI337
asI521
(lp525
I338
aI340
asI522
(lp526
I338
aI343
asI523
(lp527
I339
aI340
asI524
(lp528
I339
aI342
asI525
(lp529
I341
aI342
asI526
(lp530
I341
aI343
asI527
(lp531
I343
aI512
asI528
(lp532
I344
aI345
asI529
(lp533
I344
aI347
asI530
(lp534
I345
aI346
asI531
(lp535
I346
aI348
asI532
(lp536
I347
aI349
asI533
(lp537
I348
aI349
asI534
(lp538
I350
aI474
asI535
(lp539
I350
aI351
asI536
(lp540
I351
aI471
asI537
(lp541
I352
aI353
asI538
(lp542
I352
aI483
asI539
(lp543
I353
aI354
asI540
(lp544
I354
aI558
asI541
(lp545
I354
aI470
asI542
(lp546
I355
aI613
asI543
(lp547
I355
aI358
asI544
(lp548
I356
aI476
asI545
(lp549
I356
aI357
asI546
(lp550
I357
aI358
asI547
(lp551
I358
aI359
asI548
(lp552
I359
aI545
asI549
(lp553
I359
aI477
asI550
(lp554
I360
aI362
asI551
(lp555
I360
aI565
asI552
(lp556
I361
aI362
asI553
(lp557
I361
aI363
asI554
(lp558
I363
aI564
asI555
(lp559
I364
aI555
asI556
(lp560
I364
aI365
asI557
(lp561
I365
aI366
asI558
(lp562
I366
aI484
asI559
(lp563
I366
aI566
asI560
(lp564
I367
aI368
asI561
(lp565
I367
aI369
asI562
(lp566
I367
aI373
asI563
(lp567
I368
aI567
asI564
(lp568
I369
aI370
asI565
(lp569
I369
aI390
asI566
(lp570
I370
aI568
asI567
(lp571
I371
aI376
asI568
(lp572
I371
aI372
asI569
(lp573
I371
aI382
asI570
(lp574
I372
aI373
asI571
(lp575
I373
aI374
asI572
(lp576
I374
aI393
asI573
(lp577
I374
aI375
asI574
(lp578
I375
aI376
asI575
(lp579
I375
aI494
asI576
(lp580
I376
aI579
asI577
(lp581
I377
aI378
asI578
(lp582
I377
aI380
asI579
(lp583
I378
aI379
asI580
(lp584
I379
aI578
asI581
(lp585
I379
aI382
asI582
(lp586
I380
aI381
asI583
(lp587
I381
aI382
asI584
(lp588
I383
aI384
asI585
(lp589
I383
aI386
asI586
(lp590
I383
aI517
asI587
(lp591
I384
aI488
asI588
(lp592
I385
aI386
asI589
(lp593
I385
aI491
asI590
(lp594
I387
aI388
asI591
(lp595
I387
aI591
asI592
(lp596
I388
aI594
asI593
(lp597
I389
aI496
asI594
(lp598
I389
aI420
asI595
(lp599
I389
aI510
asI596
(lp600
I390
aI393
asI597
(lp601
I390
aI391
asI598
(lp602
I391
aI392
asI599
(lp603
I392
aI395
asI600
(lp604
I393
aI394
asI601
(lp605
I394
aI395
asI602
(lp606
I394
aI493
asI603
(lp607
I395
aI396
asI604
(lp608
I396
aI398
asI605
(lp609
I396
aI399
asI606
(lp610
I397
aI507
asI607
(lp611
I397
aI398
asI608
(lp612
I399
aI506
asI609
(lp613
I399
aI495
asI610
(lp614
I400
aI401
asI611
(lp615
I400
aI403
asI612
(lp616
I401
aI402
asI613
(lp617
I402
aI405
asI614
(lp618
I403
aI404
asI615
(lp619
I404
aI405
asI616
(lp620
I406
aI411
asI617
(lp621
I406
aI407
asI618
(lp622
I407
aI408
asI619
(lp623
I408
aI503
asI620
(lp624
I409
aI433
asI621
(lp625
I409
aI410
asI622
(lp626
I409
aI411
asI623
(lp627
I410
aI600
asI624
(lp628
I411
aI505
asI625
(lp629
I412
aI413
asI626
(lp630
I412
aI501
asI627
(lp631
I413
aI504
asI628
(lp632
I414
aI508
asI629
(lp633
I414
aI415
asI630
(lp634
I415
aI441
asI631
(lp635
I416
aI417
asI632
(lp636
I416
aI419
asI633
(lp637
I417
aI418
asI634
(lp638
I417
aI502
asI635
(lp639
I418
aI421
asI636
(lp640
I419
aI420
asI637
(lp641
I419
aI485
asI638
(lp642
I420
aI421
asI639
(lp643
I422
aI426
asI640
(lp644
I422
aI637
asI641
(lp645
I422
aI423
asI642
(lp646
I423
aI513
asI643
(lp647
I424
aI425
asI644
(lp648
I424
aI429
asI645
(lp649
I425
aI426
asI646
(lp650
I426
aI427
asI647
(lp651
I427
aI428
asI648
(lp652
I428
aI429
asI649
(lp653
I430
aI515
asI650
(lp654
I430
aI431
asI651
(lp655
I431
aI638
asI652
(lp656
I432
aI433
asI653
(lp657
I432
aI516
asI654
(lp658
I433
aI434
asI655
(lp659
I434
aI660
asI656
(lp660
I435
aI634
asI657
(lp661
I435
aI436
asI658
(lp662
I436
aI635
asI659
(lp663
I437
aI442
asI660
(lp664
I437
aI438
asI661
(lp665
I438
aI439
asI662
(lp666
I439
aI440
asI663
(lp667
I440
aI441
asI664
(lp668
I441
aI442
asI665
(lp669
I442
aI511
asI666
(lp670
I443
aI444
asI667
(lp671
I443
aI445
asI668
(lp672
I444
aI446
asI669
(lp673
I445
aI448
asI670
(lp674
I446
aI447
asI671
(lp675
I447
aI448
asI672
(lp676
I449
aI450
asI673
(lp677
I449
aI454
asI674
(lp678
I450
aI458
asI675
(lp679
I451
aI452
asI676
(lp680
I451
aI525
asI677
(lp681
I452
aI454
asI678
(lp682
I453
aI528
asI679
(lp683
I453
aI457
asI680
(lp684
I453
aI454
asI681
(lp685
I455
aI458
asI682
(lp686
I455
aI531
asI683
(lp687
I456
aI457
asI684
(lp688
I456
aI532
asI685
(lp689
I457
aI458
asI686
(lp690
I459
aI460
asI687
(lp691
I459
aI534
asI688
(lp692
I460
aI461
asI689
(lp693
I461
aI462
asI690
(lp694
I462
aI464
asI691
(lp695
I462
aI535
asI692
(lp696
I463
aI529
asI693
(lp697
I463
aI543
asI694
(lp698
I464
aI467
asI695
(lp699
I464
aI541
asI696
(lp700
I465
aI466
asI697
(lp701
I465
aI540
asI698
(lp702
I466
aI467
asI699
(lp703
I468
aI480
asI700
(lp704
I468
aI469
asI701
(lp705
I468
aI470
asI702
(lp706
I469
aI546
asI703
(lp707
I469
aI478
asI704
(lp708
I470
aI471
asI705
(lp709
I471
aI547
asI706
(lp710
I472
aI473
asI707
(lp711
I472
aI474
asI708
(lp712
I473
aI617
asI709
(lp713
I474
aI548
asI710
(lp714
I475
aI554
asI711
(lp715
I475
aI476
asI712
(lp716
I476
aI477
asI713
(lp717
I477
aI478
asI714
(lp718
I478
aI549
asI715
(lp719
I479
aI557
asI716
(lp720
I479
aI550
asI717
(lp721
I480
aI556
asI718
(lp722
I480
aI551
asI719
(lp723
I481
aI562
asI720
(lp724
I481
aI482
asI721
(lp725
I482
aI569
asI722
(lp726
I483
aI571
asI723
(lp727
I483
aI559
asI724
(lp728
I484
aI560
asI725
(lp729
I484
aI572
asI726
(lp730
I485
aI497
asI727
(lp731
I485
aI573
asI728
(lp732
I486
aI490
asI729
(lp733
I486
aI487
asI730
(lp734
I487
aI488
asI731
(lp735
I488
aI491
asI732
(lp736
I489
aI490
asI733
(lp737
I489
aI491
asI734
(lp738
I492
aI587
asI735
(lp739
I492
aI583
asI736
(lp740
I493
aI494
asI737
(lp741
I493
aI495
asI738
(lp742
I494
aI498
asI739
(lp743
I495
aI496
asI740
(lp744
I496
aI497
asI741
(lp745
I497
aI498
asI742
(lp746
I498
aI577
asI743
(lp747
I499
aI584
asI744
(lp748
I499
aI599
asI745
(lp749
I500
aI628
asI746
(lp750
I500
aI501
asI747
(lp751
I500
aI623
asI748
(lp752
I501
aI603
asI749
(lp753
I502
aI504
asI750
(lp754
I502
aI503
asI751
(lp755
I503
aI505
asI752
(lp756
I504
aI605
asI753
(lp757
I505
aI604
asI754
(lp758
I506
aI507
asI755
(lp759
I506
aI510
asI756
(lp760
I507
aI508
asI757
(lp761
I508
aI511
asI758
(lp762
I509
aI510
asI759
(lp763
I509
aI511
asI760
(lp764
I512
aI513
asI761
(lp765
I512
aI607
asI762
(lp766
I513
aI641
asI763
(lp767
I514
aI611
asI764
(lp768
I514
aI515
asI765
(lp769
I515
aI612
asI766
(lp770
I516
aI517
asI767
(lp771
I516
aI663
asI768
(lp772
I517
aI518
asI769
(lp773
I518
aI519
asI770
(lp774
I519
aI608
asI771
(lp775
I519
aI664
asI772
(lp776
I520
aI521
asI773
(lp777
I520
aI651
asI774
(lp778
I521
aI522
asI775
(lp779
I522
aI636
asI776
(lp780
I523
aI524
asI777
(lp781
I523
aI525
asI778
(lp782
I524
aI526
asI779
(lp783
I525
aI528
asI780
(lp784
I526
aI527
asI781
(lp785
I527
aI528
asI782
(lp786
I529
aI538
asI783
(lp787
I529
aI531
asI784
(lp788
I530
aI537
asI785
(lp789
I530
aI532
asI786
(lp790
I531
aI532
asI787
(lp791
I533
aI544
asI788
(lp792
I533
aI538
asI789
(lp793
I533
aI535
asI790
(lp794
I534
aI536
asI791
(lp795
I534
aI535
asI792
(lp796
I536
aI537
asI793
(lp797
I537
aI538
asI794
(lp798
I539
aI540
asI795
(lp799
I539
aI542
asI796
(lp800
I540
aI541
asI797
(lp801
I541
aI544
asI798
(lp802
I542
aI543
asI799
(lp803
I543
aI544
asI800
(lp804
I545
aI546
asI801
(lp805
I545
aI615
asI802
(lp806
I546
aI547
asI803
(lp807
I547
aI548
asI804
(lp808
I548
aI618
asI805
(lp809
I549
aI554
asI806
(lp810
I549
aI551
asI807
(lp811
I550
aI553
asI808
(lp812
I550
aI551
asI809
(lp813
I552
aI553
asI810
(lp814
I552
aI554
asI811
(lp815
I555
aI560
asI812
(lp816
I555
aI557
asI813
(lp817
I556
aI557
asI814
(lp818
I556
aI558
asI815
(lp819
I558
aI559
asI816
(lp820
I559
aI560
asI817
(lp821
I561
aI562
asI818
(lp822
I561
aI565
asI819
(lp823
I562
aI563
asI820
(lp824
I563
aI570
asI821
(lp825
I563
aI566
asI822
(lp826
I564
aI565
asI823
(lp827
I564
aI566
asI824
(lp828
I567
aI568
asI825
(lp829
I567
aI569
asI826
(lp830
I568
aI571
asI827
(lp831
I569
aI570
asI828
(lp832
I570
aI572
asI829
(lp833
I571
aI572
asI830
(lp834
I573
aI576
asI831
(lp835
I573
aI582
asI832
(lp836
I574
aI576
asI833
(lp837
I574
aI575
asI834
(lp838
I575
aI581
asI835
(lp839
I577
aI579
asI836
(lp840
I577
aI582
asI837
(lp841
I578
aI579
asI838
(lp842
I578
aI580
asI839
(lp843
I580
aI581
asI840
(lp844
I581
aI582
asI841
(lp845
I583
aI584
asI842
(lp846
I583
aI595
asI843
(lp847
I584
aI585
asI844
(lp848
I585
aI624
asI845
(lp849
I585
aI629
asI846
(lp850
I586
aI587
asI847
(lp851
I586
aI590
asI848
(lp852
I587
aI588
asI849
(lp853
I588
aI592
asI850
(lp854
I588
aI591
asI851
(lp855
I589
aI590
asI852
(lp856
I589
aI591
asI853
(lp857
I592
aI594
asI854
(lp858
I592
aI595
asI855
(lp859
I593
aI594
asI856
(lp860
I593
aI620
asI857
(lp861
I595
aI621
asI858
(lp862
I596
aI627
asI859
(lp863
I596
aI597
asI860
(lp864
I597
aI598
asI861
(lp865
I598
aI599
asI862
(lp866
I599
aI630
asI863
(lp867
I600
aI601
asI864
(lp868
I600
aI604
asI865
(lp869
I601
aI602
asI866
(lp870
I602
aI603
asI867
(lp871
I602
aI622
asI868
(lp872
I603
aI605
asI869
(lp873
I604
aI605
asI870
(lp874
I606
aI631
asI871
(lp875
I606
aI607
asI872
(lp876
I607
aI667
asI873
(lp877
I608
aI649
asI874
(lp878
I608
aI610
asI875
(lp879
I609
aI610
asI876
(lp880
I609
aI611
asI877
(lp881
I611
aI648
asI878
(lp882
I612
aI640
asI879
(lp883
I612
aI650
asI880
(lp884
I613
aI614
asI881
(lp885
I613
aI615
asI882
(lp886
I614
aI616
asI883
(lp887
I615
aI618
asI884
(lp888
I616
aI617
asI885
(lp889
I617
aI618
asI886
(lp890
I619
aI620
asI887
(lp891
I619
aI622
asI888
(lp892
I620
aI621
asI889
(lp893
I621
aI624
asI890
(lp894
I622
aI623
asI891
(lp895
I623
aI624
asI892
(lp896
I625
aI628
asI893
(lp897
I625
aI626
asI894
(lp898
I626
aI627
asI895
(lp899
I627
aI630
asI896
(lp900
I628
aI629
asI897
(lp901
I629
aI630
asI898
(lp902
I631
aI633
asI899
(lp903
I631
aI644
asI900
(lp904
I632
aI633
asI901
(lp905
I632
aI634
asI902
(lp906
I634
aI645
asI903
(lp907
I635
aI636
asI904
(lp908
I635
aI646
asI905
(lp909
I636
aI652
asI906
(lp910
I637
aI642
asI907
(lp911
I637
aI639
asI908
(lp912
I638
aI640
asI909
(lp913
I638
aI639
asI910
(lp914
I640
aI643
asI911
(lp915
I641
aI642
asI912
(lp916
I641
aI669
asI913
(lp917
I642
aI643
asI914
(lp918
I643
aI653
asI915
(lp919
I644
aI666
asI916
(lp920
I644
aI645
asI917
(lp921
I645
aI646
asI918
(lp922
I646
aI656
asI919
(lp923
I647
aI665
asI920
(lp924
I647
aI649
asI921
(lp925
I647
aI655
asI922
(lp926
I648
aI649
asI923
(lp927
I648
aI650
asI924
(lp928
I650
aI654
asI925
(lp929
I651
aI652
asI926
(lp930
I651
aI661
asI927
(lp931
I652
aI657
asI928
(lp932
I653
aI654
asI929
(lp933
I653
aI670
asI930
(lp934
I654
aI655
asI931
(lp935
I655
aI659
asI932
(lp936
I656
aI657
asI933
(lp937
I656
aI668
asI934
(lp938
I657
aI658
asI935
(lp939
I658
aI659
asI936
(lp940
I658
aI662
asI937
(lp941
I659
aI671
asI938
(lp942
I660
aI661
asI939
(lp943
I660
aI663
asI940
(lp944
I661
aI662
asI941
(lp945
I662
aI665
asI942
(lp946
I663
aI664
asI943
(lp947
I664
aI665
asI944
(lp948
I666
aI668
asI945
(lp949
I666
aI667
asI946
(lp950
I667
aI669
asI947
(lp951
I668
aI671
asI948
(lp952
I669
aI670
asI949
(lp953
I670
aI671
astp954
Rp955
(dp956
S'scale'
p957
I1
sS'description'
p958
S''
p959
sb.