ccopy_reg
_reconstructor
p0
(copenalea.stse.io.walled_tissue.native_representation
IOTissueProperty
p1
c__builtin__
dict
p2
(dp3
I0
F32.970706019613402
sI1
F32.806735408192218
sI2
F32.958092895657927
sI3
F32.970706019613402
sI4
F33.96828945972829
sI5
F33.127032313485813
sI6
F40.077628044707801
sI7
F60.557519189625893
sI8
F45.481396119935482
sI9
F46.628425968128923
sI10
F56.188409494624629
sI11
F36.032637413774502
sI12
F36.787895987593281
sI13
F32.970706019613388
sI14
F32.806735408192196
sI15
F32.958092895657948
sI16
F32.806735408192232
sI17
F33.286034118500297
sI18
F32.970706019613409
sI19
F33.450004729921474
sI20
F33.266923324628372
sI21
F45.307487895700916
sI22
F45.012035022440855
sI23
F48.696596080949519
sI24
F41.074447053067814
sI25
F59.605419438926155
sI26
F42.094963445829023
sI27
F63.429489292699991
sI28
F40.204905931894885
sI29
F48.161493852535394
sI30
F44.640903405447887
sI31
F39.122088351111117
sI32
F32.958092895657956
sI33
F33.450004729921496
sI34
F32.806735408192225
sI35
F32.970706019613395
sI36
F57.835377710507771
sI37
F45.535670774531823
sI38
F48.820434025239614
sI39
F55.948377923593121
sI40
F41.640126551677035
sI41
F50.044671480675632
sI42
F41.713129784267771
sI43
F45.417948284280698
sI44
F51.525758005750454
sI45
F48.304442590697462
sI46
F58.942274891570158
sI47
F59.301175600484989
sI48
F52.647943821910296
sI49
F33.102952713207195
sI50
F32.958092895657948
sI51
F32.970706019613424
sI52
F33.235199406800952
sI53
F40.813011392899774
sI54
F45.007830647789028
sI55
F41.588909624100253
sI56
F49.139202067023454
sI57
F40.42468006142213
sI58
F48.855597885963981
sI59
F42.418318078142114
sI60
F42.058652937472338
sI61
F41.634775529392918
sI62
F41.754409099031186
sI63
F40.730452763373059
sI64
F44.884374919376306
sI65
F42.312062064214167
sI66
F50.899306182628493
sI67
F33.937329973655807
sI68
F33.059762319056588
sI69
F38.998250406821043
sI70
F51.57047726341073
sI71
F55.900600938913335
sI72
F42.859777416583739
sI73
F47.727678831642521
sI74
F42.709948792627806
sI75
F42.268871670063625
sI76
F43.324551923549123
sI77
F41.712747568390377
sI78
F44.702440161715536
sI79
F42.506227729953054
sI80
F45.04949217842983
sI81
F54.531503665928021
sI82
F46.239712420773749
sI83
F70.197385834506321
sI84
F40.29740217423501
sI85
F36.681257757787911
sI86
F42.951509227169012
sI87
F51.90262286090497
sI88
F42.290657975077593
sI89
F41.831616706273799
sI90
F45.372082378988026
sI91
F41.333589417971254
sI92
F42.892265766166027
sI93
F41.372575437469948
sI94
F42.706891065608275
sI95
F42.13509611296012
sI96
F42.404558306554328
sI97
F45.817363876204141
sI98
F42.29677342911657
sI99
F43.883351536364486
sI100
F59.342454915248389
sI101
F41.867544998753061
sI102
F57.703895448668924
sI103
F40.760265601813252
sI104
F43.561525767561157
sI105
F42.959535760595294
sI106
F41.811741480646987
sI107
F41.556421274517966
sI108
F41.028581147775206
sI109
F40.983097458359978
sI110
F40.900921044710657
sI111
F41.004883763373982
sI112
F41.720391885939179
sI113
F41.337411576745644
sI114
F42.209245993183224
sI115
F42.243645422152646
sI116
F41.903855507109682
sI117
F44.45896864778716
sI118
F47.481531806572058
sI119
F48.086197324679929
sI120
F45.785257742499219
sI121
F47.472358625513458
sI122
F45.180974440268713
sI123
F41.70510325084156
sI124
F41.876718179811519
sI125
F40.986155185379467
sI126
F41.023994557245871
sI127
F40.9601645057136
sI128
F40.849704117133854
sI129
F41.032021090672103
sI130
F41.309509817692572
sI131
F42.944629341375155
sI132
F44.458586431909616
sI133
F44.849593274529354
sI134
F53.323701493221868
sI135
F42.066297255021112
sI136
F43.88679147926144
sI137
F41.836585512680507
sI138
F41.122224037747614
sI139
F42.279955930509303
sI140
F41.783457505716484
sI141
F41.215484711842642
sI142
F41.497942245269833
sI143
F40.894805590671609
sI144
F41.54801252521424
sI145
F40.896716670058851
sI146
F41.150508012678088
sI147
F41.086295745268444
sI148
F41.790337391510398
sI149
F42.145415941650867
sI150
F41.586616328835554
sI151
F47.751376216043745
sI152
F41.13063278705129
sI153
F49.347509720227492
sI154
F46.018791643614293
sI155
F45.014710533582942
sI156
F44.703204593470446
sI157
F41.223129029391551
sI158
F41.033932170059323
sI159
F40.925382860866854
sI160
F40.915063032175858
sI161
F40.869961558638117
sI162
F40.940671495964295
sI163
F41.048456373402104
sI164
F41.009470353903225
sI165
F41.740267111565991
sI166
F44.018655956977717
sI167
F42.646500956973085
sI168
F55.739305838634174
sI169
F48.735199884570953
sI170
F39.75847778704653
sI171
F41.464689463932686
sI172
F45.615553892916502
sI173
F41.870602725772606
sI174
F41.319829646383347
sI175
F41.419205774517536
sI176
F40.713635264765664
sI177
F40.928822803763794
sI178
F40.720515150559592
sI179
F40.9055076352399
sI180
F40.933409394292887
sI181
F40.748416909612715
sI182
F42.135478328837557
sI183
F41.799510572569019
sI184
F42.328115131066504
sI185
F50.359999579562633
sI186
F41.776577619922563
sI187
F47.220478362281447
sI188
F40.554633459751201
sI189
F42.709566576750341
sI190
F42.453099722989023
sI191
F41.552981331621019
sI192
F41.094704494571985
sI193
F39.062844890108195
sI194
F40.02870441239557
sI195
F34.43612169371314
sI196
F39.32045839150183
sI197
F37.362748667260966
sI198
F41.017879103206837
sI199
F41.548012525214247
sI200
F42.047568677026575
sI201
F41.64968194861293
sI202
F43.393350781488088
sI203
F45.73480524667729
sI204
F32.970706019613345
sI205
F46.537840805175932
sI206
F49.311963643625752
sI207
F44.959671447231791
sI208
F42.310533200704391
sI209
F41.802568299588508
sI210
F32.970706019613431
sI211
F33.286034118500346
sI212
F32.806735408192289
sI213
F33.450004729921496
sI214
F32.970706019613509
sI215
F39.034178699300334
sI216
F43.811494951406161
sI217
F44.218554860878143
sI218
F45.55822151130068
sI219
F52.912054993220607
sI220
F38.206681324645686
sI221
F32.970706019613445
sI222
F37.404410197901839
sI223
F40.930733883150843
sI224
F41.638979904044689
sI225
F41.453605203486923
sI226
F40.165155480641211
sI227
F34.602003384521552
sI228
F32.970706019613381
sI229
F32.958092895657856
sI230
F32.958092895657899
sI231
F33.295207299558783
sI232
F35.557543078118229
sI233
F41.49794224526979
sI234
F41.459720657525963
sI235
F41.45895622577109
sI236
F49.027595030811312
sI237
F33.322344626856932
sI238
F32.806735408192196
sI239
F33.2665411087509
sI240
F41.523932924935686
sI241
F51.037668330261297
sI242
F42.524574092070182
sI243
F44.75786146394411
sI244
F42.49285017424279
sI245
F35.853378167255734
sI246
F38.820137807934685
sI247
F34.678446560009341
sI248
F42.584964200705464
sI249
F41.999409476469303
sI250
F44.558726991798693
sI251
F49.737752131092329
sI252
F45.575421225785419
sI253
F42.150384748057569
sI254
F32.958092895658034
sI255
F33.286034118500318
sI256
F32.970706019613431
sI257
F33.450004729921496
sI258
F41.565594455576466
sI259
F43.101337851124917
sI260
F46.973184689578659
sI261
F41.671086037749497
sI262
F44.798376346952708
sI263
F42.526867387334597
sI264
F43.067702853910411
sI265
F43.617329285667182
sI266
F40.943729222983919
sI267
F49.676597590702194
sI268
F42.215743663099623
sI269
F34.711317125469002
sI270
F32.806735408192324
sI271
F33.450004729921439
sI272
F32.970706019613431
sI273
F32.970706019613452
sI274
F32.958092895657948
sI275
F33.093779532148673
sI276
F33.141174300951015
sI277
F42.051773051678374
sI278
F43.573756675639174
sI279
F40.544695846937756
sI280
F50.830125108812069
sI281
F40.495007782870729
sI282
F54.145083413837526
sI283
F40.160186674234488
sI284
F36.065890195111599
sI285
F37.103224086480154
sI286
F32.806735408192182
sI287
F32.958092895657892
sI288
F32.806735408192175
sI289
F32.899949470594869
sI290
F33.027926533167516
sI291
F36.087443441663837
sI292
F39.935704763777913
sI293
F40.469389996743949
sI294
F35.837455613142005
sI295
F33.027926533167509
sI296
F33.214969932312151
stp4
Rp5
(dp6
S'scale'
p7
I0
sS'description'
p8
S'custom_cell_property1'
p9
sb.