ccopy_reg
_reconstructor
p0
(copenalea.stse.io.walled_tissue.native_representation
IOTissueProperty
p1
c__builtin__
dict
p2
(dp3
I0
(lp4
I840
aI296
aI295
aI294
aI548
asI1
(lp5
I1362
aI841
aI548
aI546
aI547
aI1369
aI1293
aI1294
aI1405
asI2
(lp6
I1285
aI1286
aI1370
aI547
aI302
aI303
aI304
aI1410
asI3
(lp7
I1363
aI1364
aI1365
aI1406
aI1426
asI4
(lp8
I847
aI305
aI306
aI307
aI308
aI552
aI1127
asI5
(lp9
I885
aI882
aI880
aI881
aI883
aI884
aI887
aI888
asI6
(lp10
I130
aI22
aI23
aI134
aI579
asI7
(lp11
I898
aI897
aI899
aI900
aI902
aI901
aI1145
asI8
(lp12
I868
aI343
aI344
aI345
aI341
aI342
aI869
aI1135
asI9
(lp13
I873
aI872
aI1134
aI869
aI870
aI871
aI1136
asI10
(lp14
I871
aI419
aI418
aI417
aI415
aI416
aI1141
asI11
(lp15
I171
aI163
aI164
aI407
aI408
aI415
asI12
(lp16
I166
aI167
aI169
aI165
aI163
aI170
asI13
(lp17
I168
aI169
aI159
aI157
aI158
aI392
asI14
(lp18
I836
aI835
aI631
aI632
aI146
aI145
aI144
aI842
aI1114
asI15
(lp19
I838
aI837
aI845
aI1113
aI842
aI840
aI841
aI1361
asI16
(lp20
I1296
aI1295
aI1284
aI1282
aI1281
aI1283
aI1359
aI1402
asI17
(lp21
I1125
aI1126
aI1290
aI1366
aI1288
aI1289
aI1408
asI18
(lp22
I1365
aI1123
aI1121
aI1122
aI1124
aI1125
aI1407
asI19
(lp23
I850
aI851
aI1130
aI551
aI549
aI880
aI583
aI582
aI1123
aI1364
asI20
(lp24
I581
aI580
aI583
aI882
aI886
aI891
asI21
(lp25
I892
aI886
aI885
aI575
aI576
aI337
aI336
aI898
aI1147
asI22
(lp26
I1145
aI1144
aI1142
aI1143
aI1146
aI1147
asI23
(lp27
I901
aI339
aI338
aI866
aI1131
aI572
aI137
aI138
aI1144
asI24
(lp28
I879
aI877
aI354
aI350
aI139
aI137
aI571
aI573
aI1138
asI25
(lp29
I874
aI876
aI1140
aI416
aI408
aI409
aI1316
aI1386
asI26
(lp30
I1318
aI1315
aI409
aI407
aI410
aI411
aI412
aI413
aI1321
asI27
(lp31
I164
aI165
aI168
aI389
aI390
aI410
asI28
(lp32
I391
aI389
aI392
aI394
aI393
aI671
asI29
(lp33
I149
aI150
aI357
aI147
aI148
aI635
asI30
(lp34
I148
aI90
aI89
aI146
aI633
aI634
asI31
(lp35
I941
aI637
aI636
aI633
aI632
aI630
aI1187
asI32
(lp36
I844
aI543
aI545
aI621
aI829
aI831
aI1117
asI33
(lp37
I1118
aI935
aI936
aI622
aI545
aI544
aI1282
asI34
(lp38
I1126
aI1124
aI1120
aI1119
aI1118
aI1284
aI1291
asI35
(lp39
I99
aI91
aI93
aI95
aI1120
aI1122
asI36
(lp40
I582
aI580
aI96
aI97
aI99
aI1121
asI37
(lp41
I865
aI859
aI98
aI96
aI581
aI889
asI38
(lp42
I893
aI890
aI889
aI891
aI892
aI1146
asI39
(lp43
I135
aI25
aI26
aI312
aI893
aI1143
asI40
(lp44
I138
aI139
aI349
aI136
aI135
aI1142
asI41
(lp45
I352
aI347
aI348
aI349
aI350
aI353
asI42
(lp46
I1319
aI1218
aI1214
aI331
aI329
aI353
aI354
aI878
aI1389
asI43
(lp47
I988
aI402
aI401
aI400
aI689
aI1208
asI44
(lp48
I688
aI404
aI405
aI411
aI390
aI391
aI672
aI1204
aI1310
asI45
(lp49
I672
aI671
aI673
aI674
aI675
aI1195
aI1197
aI1203
asI46
(lp50
I907
aI141
aI140
aI149
aI639
aI951
asI47
(lp51
I639
aI635
aI634
aI636
aI638
aI945
aI644
aI643
aI953
asI48
(lp52
I943
aI942
aI623
aI624
aI646
aI642
aI641
aI948
asI49
(lp53
I832
aI833
aI621
aI622
aI938
aI625
aI623
aI944
aI1185
asI50
(lp54
I938
aI936
aI933
aI934
aI937
aI939
asI51
(lp55
I95
aI94
aI156
aI933
aI935
aI1119
asI52
(lp56
I154
aI155
aI94
aI93
aI92
aI562
asI53
(lp57
I563
aI92
aI91
aI97
aI98
aI860
asI54
(lp58
I862
aI861
aI860
aI859
aI863
aI864
asI55
(lp59
I312
aI311
aI313
aI863
aI865
aI890
asI56
(lp60
I110
aI109
aI311
aI26
aI24
aI327
asI57
(lp61
I326
aI325
aI24
aI25
aI136
aI348
asI58
(lp62
I323
aI324
aI326
aI347
aI351
aI797
asI59
(lp63
I351
aI352
aI329
aI330
aI401
aI403
aI795
asI60
(lp64
I161
aI160
aI1110
aI796
aI403
aI402
aI985
aI987
aI1201
asI61
(lp65
I675
aI395
aI396
aI397
aI679
aI680
aI1196
asI62
(lp66
I1164
aI911
aI905
aI906
aI907
aI952
aI954
aI1298
aI1372
asI63
(lp67
I955
aI952
aI951
aI953
aI950
aI949
aI960
asI64
(lp68
I956
aI957
aI649
aI647
aI646
aI645
aI932
aI1182
aI1415
asI65
(lp69
I930
aI931
aI645
aI624
aI625
aI939
asI66
(lp70
I629
aI628
aI626
aI929
aI930
aI937
asI67
(lp71
I156
aI155
aI153
aI377
aI629
aI934
asI68
(lp72
I555
aI557
aI378
aI153
aI154
aI561
asI69
(lp73
I560
aI559
aI561
aI562
aI563
aI861
asI70
(lp74
I316
aI314
aI315
aI317
aI560
aI862
asI71
(lp75
I313
aI109
aI108
aI106
aI316
aI864
asI72
(lp76
I127
aI123
aI107
aI108
aI110
aI328
asI73
(lp77
I327
aI325
aI324
aI321
aI320
aI328
asI74
(lp78
I322
aI321
aI323
aI798
aI799
aI1276
asI75
(lp79
I800
aI798
aI797
aI795
aI796
aI1109
asI76
(lp80
I1108
aI1107
aI1109
aI1110
aI1111
aI1112
asI77
(lp81
I160
aI162
aI398
aI677
aI685
aI684
aI1103
aI1111
asI78
(lp82
I682
aI681
aI397
aI29
aI30
aI388
aI780
asI79
(lp83
I1160
aI1157
aI1155
aI910
aI908
aI909
aI911
aI1163
asI80
(lp84
I1416
aI1412
aI1413
aI1417
aI1415
aI1414
aI1418
asI81
(lp85
I1182
aI1181
aI1180
aI1178
aI1183
aI1414
asI82
(lp86
I932
aI931
aI929
aI927
aI928
aI1181
asI83
(lp87
I626
aI627
aI858
aI205
aI207
aI927
asI84
(lp88
I627
aI628
aI377
aI378
aI558
aI855
asI85
(lp89
I558
aI557
aI556
aI553
aI554
aI854
asI86
(lp90
I317
aI309
aI310
aI556
aI555
aI559
asI87
(lp91
I102
aI103
aI100
aI101
aI309
aI315
asI88
(lp92
I106
aI107
aI122
aI104
aI102
aI314
asI89
(lp93
I120
aI121
aI125
aI122
aI123
aI126
asI90
(lp94
I128
aI126
aI127
aI320
aI322
aI1280
asI91
(lp95
I1280
aI1276
aI1275
aI1277
aI1278
aI1279
asI92
(lp96
I799
aI800
aI1107
aI1098
aI1099
aI1275
asI93
(lp97
I1101
aI802
aI801
aI1097
aI1098
aI1108
asI94
(lp98
I1103
aI1102
aI1104
aI1105
aI1106
aI1100
aI1101
aI1112
asI95
(lp99
I972
aI973
aI974
aI975
aI977
aI976
aI1106
asI96
(lp100
I595
aI355
aI356
aI910
aI1156
aI1374
aI1377
aI1379
asI97
(lp101
I1183
aI1176
aI1177
aI1299
aI1378
aI1152
aI1154
aI1158
aI1162
aI1418
asI98
(lp102
I1174
aI1175
aI1176
aI1178
aI1179
aI1273
asI99
(lp103
I1179
aI1180
aI928
aI207
aI206
aI1269
asI100
(lp104
I206
aI205
aI857
aI856
aI1081
aI1270
asI101
(lp105
I855
aI854
aI853
aI852
aI857
aI858
asI102
(lp106
I554
aI213
aI211
aI208
aI210
aI853
asI103
(lp107
I310
aI101
aI21
aI20
aI213
aI553
asI104
(lp108
I76
aI19
aI21
aI100
aI105
aI771
asI105
(lp109
I105
aI103
aI104
aI125
aI124
aI767
asI106
(lp110
I124
aI121
aI117
aI118
aI487
aI766
asI107
(lp111
I786
aI119
aI117
aI120
aI128
aI1279
asI108
(lp112
I1095
aI783
aI784
aI785
aI786
aI1278
asI109
(lp113
I1099
aI1097
aI1096
aI1094
aI1095
aI1277
asI110
(lp114
I801
aI774
aI775
aI791
aI790
aI1096
asI111
(lp115
I976
aI779
aI773
aI774
aI802
aI1100
asI112
(lp116
I979
aI669
aI658
aI657
aI777
aI779
aI977
aI978
aI1194
asI113
(lp117
I586
aI142
aI143
aI594
aI903
aI1148
asI114
(lp118
I1300
aI1177
aI1175
aI1172
aI1171
aI1173
aI1169
aI1170
aI1382
asI115
(lp119
I1076
aI1075
aI1077
aI1172
aI1174
aI1274
asI116
(lp120
I1273
aI1269
aI1270
aI1271
aI1272
aI1274
asI117
(lp121
I1081
aI1080
aI1082
aI1078
aI1079
aI1271
asI118
(lp122
I856
aI852
aI210
aI209
aI218
aI1080
asI119
(lp123
I217
aI216
aI209
aI208
aI212
aI485
asI120
(lp124
I212
aI211
aI20
aI19
aI75
aI484
asI121
(lp125
I243
aI241
aI483
aI75
aI76
aI772
asI122
(lp126
I771
aI767
aI766
aI768
aI770
aI772
asI123
(lp127
I769
aI768
aI487
aI488
aI489
aI1088
asI124
(lp128
I115
aI116
aI488
aI118
aI119
aI785
asI125
(lp129
I492
aI490
aI564
aI114
aI115
aI784
asI126
(lp130
I790
aI789
aI491
aI492
aI783
aI1094
asI127
(lp131
I793
aI788
aI787
aI789
aI791
aI794
asI128
(lp132
I775
aI773
aI777
aI776
aI778
aI794
asI129
(lp133
I657
aI659
aI654
aI653
aI499
aI496
aI495
aI776
asI130
(lp134
I151
aI27
aI28
aI590
aI610
asI131
(lp135
I1077
aI926
aI924
aI922
aI923
aI925
aI1151
aI1171
asI132
(lp136
I743
aI741
aI608
aI609
aI926
aI1075
asI133
(lp137
I1079
aI744
aI742
aI743
aI1076
aI1272
asI134
(lp138
I462
aI461
aI460
aI739
aI744
aI1078
asI135
(lp139
I218
aI216
aI214
aI215
aI462
aI1082
asI136
(lp140
I237
aI72
aI70
aI214
aI217
aI486
asI137
(lp141
I485
aI484
aI483
aI481
aI482
aI486
asI138
(lp142
I479
aI477
aI481
aI241
aI242
aI762
asI139
(lp143
I761
aI242
aI243
aI770
aI769
aI1089
asI140
(lp144
I1091
aI1090
aI1089
aI1088
aI1092
aI1093
asI141
(lp145
I489
aI116
aI114
aI565
aI567
aI1092
asI142
(lp146
I568
aI566
aI565
aI564
aI569
aI570
asI143
(lp147
I252
aI254
aI569
aI490
aI491
aI787
asI144
(lp148
I255
aI253
aI252
aI788
aI792
aI803
asI145
(lp149
I792
aI793
aI778
aI495
aI497
aI805
asI146
(lp150
I809
aI807
aI497
aI496
aI498
aI494
aI493
aI965
asI147
(lp151
I913
aI597
aI358
aI359
aI360
aI1168
asI148
(lp152
I611
aI610
aI612
aI924
aI609
aI605
aI607
aI916
aI1165
asI149
(lp153
I620
aI615
aI606
aI605
aI608
aI740
asI150
(lp154
I739
aI737
aI738
aI740
aI741
aI742
asI151
(lp155
I460
aI219
aI221
aI223
aI376
aI737
asI152
(lp156
I215
aI70
aI71
aI220
aI219
aI461
asI153
(lp157
I222
aI71
aI72
aI238
aI240
aI753
asI154
(lp158
I477
aI478
aI239
aI238
aI237
aI482
asI155
(lp159
I480
aI476
aI475
aI478
aI479
aI763
asI156
(lp160
I765
aI764
aI763
aI762
aI761
aI1090
asI157
(lp161
I760
aI759
aI758
aI757
aI765
aI1091
asI158
(lp162
I567
aI566
aI319
aI318
aI760
aI1093
asI159
(lp163
I508
aI509
aI111
aI113
aI319
aI568
asI160
(lp164
I254
aI253
aI256
aI503
aI508
aI570
asI161
(lp165
I501
aI502
aI504
aI256
aI255
aI804
asI162
(lp166
I806
aI804
aI803
aI805
aI807
aI808
asI163
(lp167
I1022
aI810
aI808
aI809
aI966
aI967
aI971
aI1190
aI1302
asI164
(lp168
I368
aI367
aI362
aI361
aI598
aI918
asI165
(lp169
I914
aI915
aI607
aI606
aI616
aI617
aI920
asI166
(lp170
I618
aI614
aI613
aI616
aI615
aI619
asI167
(lp171
I376
aI373
aI375
aI619
aI620
aI738
asI168
(lp172
I374
aI373
aI223
aI224
aI225
aI511
asI169
(lp173
I226
aI224
aI221
aI220
aI222
aI751
asI170
(lp174
I754
aI752
aI751
aI753
aI755
aI756
asI171
(lp175
I240
aI239
aI475
aI236
aI235
aI755
asI172
(lp176
I474
aI231
aI232
aI234
aI236
aI476
asI173
(lp177
I757
aI472
aI473
aI474
aI480
aI764
asI174
(lp178
I245
aI244
aI456
aI457
aI472
aI758
asI175
(lp179
I318
aI113
aI112
aI246
aI245
aI759
asI176
(lp180
I258
aI251
aI250
aI112
aI111
aI510
asI177
(lp181
I509
aI503
aI504
aI505
aI506
aI510
asI178
(lp182
I699
aI507
aI505
aI502
aI500
aI1025
asI179
(lp183
I500
aI501
aI806
aI810
aI1021
aI1026
asI180
(lp184
I1231
aI1230
aI1023
aI1024
aI1029
aI1021
aI1022
aI1301
asI181
(lp185
I365
aI363
aI364
aI367
aI366
aI599
aI601
aI728
asI182
(lp186
I617
aI613
aI369
aI370
aI372
aI604
aI603
aI921
asI183
(lp187
I261
aI259
aI265
aI266
aI369
aI614
asI184
(lp188
I375
aI374
aI512
aI260
aI261
aI618
asI185
(lp189
I515
aI514
aI513
aI512
aI511
aI516
asI186
(lp190
I465
aI463
aI516
aI225
aI226
aI752
asI187
(lp191
I464
aI465
aI754
aI745
aI746
aI1083
asI188
(lp192
I235
aI234
aI233
aI747
aI745
aI756
asI189
(lp193
I233
aI232
aI50
aI49
aI748
asI190
(lp194
I457
aI455
aI51
aI50
aI231
aI473
asI191
(lp195
I458
aI453
aI454
aI455
aI456
aI459
asI192
(lp196
I244
aI246
aI250
aI249
aI247
aI459
asI193
(lp197
I451
aI248
aI249
aI251
aI257
aI1073
asI194
(lp198
I257
aI258
aI506
aI507
aI700
aI1071
asI195
(lp199
I700
aI699
aI1027
aI702
aI701
aI1069
asI196
(lp200
I1028
aI1027
aI1025
aI1026
aI1029
aI1030
aI1258
aI1349
asI197
(lp201
I1352
aI1349
aI1348
aI1350
aI1351
aI1353
asI198
(lp202
I447
aI195
aI46
aI47
aI78
aI79
aI365
aI727
asI199
(lp203
I371
aI370
aI266
aI264
aI519
aI448
aI449
aI731
asI200
(lp204
I520
aI264
aI265
aI267
aI268
aI720
aI719
aI811
asI201
(lp205
I263
aI262
aI267
aI259
aI260
aI513
asI202
(lp206
I229
aI227
aI81
aI80
aI263
aI514
asI203
(lp207
I228
aI229
aI515
aI463
aI464
aI1087
asI204
(lp208
I1083
aI1084
aI1085
aI1086
aI1087
asI205
(lp209
I747
aI748
aI749
aI750
aI1084
aI746
asI206
(lp210
I51
aI454
aI204
aI203
aI749
aI49
asI207
(lp211
I199
aI201
aI202
aI204
aI453
asI208
(lp212
I247
aI248
aI450
aI200
aI199
aI458
asI209
(lp213
I1066
aI1065
aI452
aI450
aI451
aI1074
asI210
(lp214
I1073
aI1071
aI1069
aI1070
aI1072
aI1074
asI211
(lp215
I701
aI703
aI1036
aI735
aI736
aI1070
asI212
(lp216
I1236
aI1237
aI1239
aI1248
aI1037
aI703
aI702
aI1028
aI1352
asI213
(lp217
I1241
aI1240
aI706
aI704
aI705
aI1034
aI1249
asI214
(lp218
I9
aI8
aI77
aI47
aI48
aI192
asI215
(lp219
I191
aI48
aI46
aI196
aI517
aI814
asI216
(lp220
I726
aI717
aI718
aI720
aI721
aI722
aI1060
asI217
(lp221
I268
aI262
aI80
aI82
aI439
aI721
asI218
(lp222
I438
aI82
aI81
aI230
aI467
aI1042
asI219
(lp223
I471
aI466
aI230
aI227
aI228
aI1086
asI220
(lp224
I73
aI74
aI469
aI471
aI1085
asI221
(lp225
I52
aI53
aI54
aI202
aI197
asI222
(lp226
I198
aI197
aI201
aI200
aI452
aI1067
asI223
(lp227
I1065
aI1064
aI1061
aI1063
aI1068
aI1067
asI224
(lp228
I736
aI732
aI733
aI1064
aI1066
aI1072
asI225
(lp229
I734
aI732
aI735
aI1038
aI1251
aI1342
aI1336
aI1337
aI1397
asI226
(lp230
I1250
aI1038
aI1036
aI1037
aI1244
aI1243
aI1343
asI227
(lp231
I1245
aI1246
aI1034
aI1033
aI1032
aI1031
aI1035
aI1346
asI228
(lp232
I4
aI5
aI6
aI7
aI9
aI193
asI229
(lp233
I442
aI440
aI723
aI443
aI194
aI193
aI192
aI191
aI815
asI230
(lp234
I1052
aI1051
aI445
aI444
aI443
aI725
aI1057
asI231
(lp235
I722
aI439
aI438
aI1041
aI1044
aI1048
aI1047
aI1059
asI232
(lp236
I1264
aI1263
aI1043
aI1041
aI1042
aI1046
aI1045
aI1357
asI233
(lp237
I467
aI466
aI469
aI468
aI470
aI1046
asI234
(lp238
I74
aI65
aI67
aI85
aI83
aI468
asI235
(lp239
I750
aI61
aI62
aI66
aI65
aI73
asI236
(lp240
I62
aI60
aI63
aI64
aI68
asI237
(lp241
I61
aI203
aI54
aI12
aI10
aI60
asI238
(lp242
I11
aI12
aI53
aI44
aI43
aI173
asI239
(lp243
I42
aI41
aI44
aI52
aI198
aI1068
asI240
(lp244
I181
aI40
aI42
aI1063
aI1062
aI1392
asI241
(lp245
I1017
aI1015
aI1393
aI1062
aI1061
aI733
aI734
aI1400
asI242
(lp246
I1400
aI1397
aI1398
aI1399
aI1401
asI243
(lp247
I1035
aI1008
aI1010
aI1333
aI1335
aI1338
aI1341
aI1347
asI244
(lp248
I1014
aI1013
aI1011
aI1009
aI1008
aI1031
asI245
(lp249
I0
aI2
aI3
aI4
aI194
aI444
asI246
(lp250
I1055
aI1050
aI1044
aI1043
aI1259
asI247
(lp251
I1268
aI1266
aI1265
aI1267
aI1354
asI248
(lp252
I1045
aI470
aI83
aI84
aI530
aI821
aI822
aI1356
asI249
(lp253
I84
aI85
aI86
aI270
aI523
aI278
aI277
aI531
asI250
(lp254
I86
aI67
aI66
aI68
aI69
aI269
asI251
(lp255
I285
aI284
aI292
aI271
aI69
aI64
aI55
aI56
aI539
asI252
(lp256
I57
aI55
aI63
aI10
aI11
aI176
asI253
(lp257
I425
aI174
aI175
aI176
aI173
aI172
aI179
aI178
aI711
asI254
(lp258
I180
aI172
aI43
aI41
aI40
aI182
asI255
(lp259
I1327
aI430
aI431
aI183
aI184
aI182
aI181
aI1396
asI256
(lp260
I1392
aI1393
aI1394
aI1390
aI1391
aI1395
aI1396
asI257
(lp261
I1221
aI1222
aI1233
aI1220
aI1219
aI1223
aI1224
aI1225
aI1329
asI258
(lp262
I1010
aI1009
aI1006
aI1007
aI1220
aI1234
aI1331
asI259
(lp263
I1001
aI1002
aI1004
aI1006
aI1011
aI1012
asI260
(lp264
I189
aI186
aI45
aI1
aI0
aI445
aI1053
asI261
(lp265
I527
aI188
aI189
aI1054
aI1055
aI1260
aI1262
aI1265
asI262
(lp266
I819
aI817
aI529
aI528
aI526
aI525
aI527
aI1266
asI263
(lp267
I533
aI281
aI279
aI529
aI816
asI264
(lp268
I274
aI275
aI282
aI283
aI522
aI827
asI265
(lp269
I524
aI270
aI269
aI271
aI293
aI542
aI823
asI266
(lp270
I284
aI286
aI287
aI291
asI267
(lp271
I56
aI57
aI175
aI59
aI58
aI538
asI268
(lp272
I709
aI708
aI710
aI711
asI269
(lp273
I429
aI177
aI179
aI180
aI184
aI185
aI716
asI270
(lp274
I434
aI435
aI423
aI39
aI32
aI33
aI713
asI271
(lp275
I1226
aI1224
aI693
aI422
aI423
aI436
aI437
aI1325
asI272
(lp276
I696
aI695
aI692
aI691
aI693
aI1223
asI273
(lp277
I1007
aI1004
aI1003
aI694
aI696
aI1219
asI274
(lp278
I1003
aI1002
aI999
aI998
aI1000
aI1005
asI275
(lp279
I190
aI187
aI186
aI188
aI525
asI276
(lp280
I279
aI280
aI275
aI272
aI273
aI528
asI277
(lp281
I540
aI290
aI87
aI88
aI826
asI278
(lp282
I15
aI16
aI13
aI14
aI535
asI279
(lp283
I33
aI31
aI34
aI36
aI427
aI712
asI280
(lp284
I37
aI38
aI39
aI422
aI691
asI281
(lp285
I420
aI421
aI695
aI694
aI1005
asI346
(lp286
I1322
aI990
aI989
aI1215
aI1217
asI347
(lp287
I995
aI996
aI991
aI990
asI348
(lp288
I994
aI993
aI997
aI996
asI349
(lp289
I1211
aI993
aI992
aI1207
asI350
(lp290
I1383
aI1212
aI1207
aI1206
asI351
(lp291
I1385
aI1420
aI1384
aI1383
asI352
(lp292
I1422
aI1420
aI1419
aI1421
asI353
(lp293
I1314
aI1313
aI1312
aI1421
asI354
(lp294
I1307
aI1306
aI1308
aI1313
asI355
(lp295
I982
aI983
aI984
aI1306
asI356
(lp296
I1215
aI1213
aI1214
aI1216
asI357
(lp297
I1322
aI1320
aI1321
aI1323
asI358
(lp298
I989
aI991
aI690
aI400
aI330
aI331
aI1213
asI359
(lp299
I413
aI414
aI995
aI1323
asI360
(lp300
I689
aI690
aI997
aI1210
asI361
(lp301
I412
aI405
aI406
aI994
aI414
asI362
(lp302
I1209
aI1208
aI1210
aI1211
asI363
(lp303
I992
aI406
aI404
aI687
asI364
(lp304
I1212
aI986
aI985
aI988
aI1209
asI365
(lp305
I1206
aI687
aI688
aI1309
asI366
(lp306
I1202
aI987
aI986
aI1384
asI367
(lp307
I1309
aI1310
aI1311
aI1385
asI368
(lp308
I1200
aI1201
aI1202
aI1422
asI369
(lp309
I1311
aI1204
aI1203
aI1205
aI1419
asI370
(lp310
I399
aI162
aI161
aI1200
aI1312
asI371
(lp311
I1205
aI1197
aI1198
aI1314
asI372
(lp312
I676
aI398
aI399
aI1308
asI373
(lp313
I1198
aI1195
aI1196
aI1199
aI1307
asI374
(lp314
I686
aI677
aI676
aI984
asI375
(lp315
I680
aI678
aI982
aI1199
asI376
(lp316
I1217
aI1216
aI1218
aI1317
aI1318
aI1320
asI377
(lp317
I1316
aI1315
aI1317
aI1319
aI1388
asI378
(lp318
I1387
aI1386
aI1388
aI1389
asI379
(lp319
I878
aI877
aI875
aI874
aI1387
asI380
(lp320
I876
aI875
aI879
aI1139
asI381
(lp321
I1140
aI1139
aI1138
aI1137
aI1136
aI1141
asI382
(lp322
I573
aI574
aI873
aI1137
asI383
(lp323
I872
aI574
aI571
aI572
aI1132
asI384
(lp324
I1134
aI1132
aI1131
aI1133
aI1135
asI385
(lp325
I335
aI333
aI332
aI334
aI887
asI386
(lp326
I334
aI129
aI130
aI577
aI575
aI888
asI387
(lp327
I578
aI576
aI577
aI579
asI388
(lp328
I134
aI132
aI133
aI337
aI578
asI389
(lp329
I336
aI133
aI131
aI584
aI897
asI390
(lp330
I584
aI585
aI896
aI899
asI391
(lp331
I896
aI895
aI894
aI900
asI392
(lp332
I894
aI346
aI344
aI340
aI339
aI902
asI393
(lp333
I338
aI340
aI343
aI867
asI394
(lp334
I866
aI867
aI868
aI1133
asI395
(lp335
I298
aI299
aI335
aI884
asI396
(lp336
I300
aI297
aI298
aI883
asI397
(lp337
I549
aI550
aI308
aI301
aI300
aI881
asI398
(lp338
I552
aI550
aI551
aI1128
asI399
(lp339
I1129
aI1127
aI1128
aI1130
asI400
(lp340
I851
aI849
aI846
aI847
aI1129
asI401
(lp341
I848
aI849
aI850
aI1363
aI1424
asI402
(lp342
I1425
aI1423
aI1424
aI1426
asI403
(lp343
I1406
aI1407
aI1408
aI1409
aI1410
aI1411
aI1425
asI404
(lp344
I845
aI843
aI844
aI1115
asI405
(lp345
I544
aI543
aI843
aI837
aI839
aI1281
asI406
(lp346
I1283
aI839
aI838
aI1360
asI407
(lp347
I1359
aI1360
aI1361
aI1362
aI1404
asI408
(lp348
I1403
aI1402
aI1404
aI1405
asI409
(lp349
I1294
aI1292
aI1296
aI1403
asI410
(lp350
I1290
aI1291
aI1295
aI1292
aI1293
aI1368
asI411
(lp351
I1367
aI1366
aI1368
aI1369
aI1370
asI412
(lp352
I1286
aI1287
aI1288
aI1367
asI413
(lp353
I1289
aI1287
aI1285
aI1409
asI414
(lp354
I1116
aI1114
aI1113
aI1115
aI1117
asI415
(lp355
I831
aI830
aI836
aI1116
asI416
(lp356
I830
aI829
aI833
aI834
aI835
asI417
(lp357
I630
aI631
aI834
aI832
aI1184
asI418
(lp358
I1184
aI1185
aI1186
aI1187
asI419
(lp359
I944
aI942
aI940
aI941
aI1186
asI420
(lp360
I638
aI637
aI940
aI943
aI947
asI421
(lp361
I946
aI945
aI947
aI948
asI422
(lp362
I641
aI640
aI644
aI946
asI423
(lp363
I1156
aI1155
aI1153
aI1152
aI1375
asI424
(lp364
I1154
aI1153
aI1157
aI1159
asI425
(lp365
I1158
aI1159
aI1160
aI1161
asI426
(lp366
I1162
aI1161
aI1163
aI1164
aI1371
aI1416
asI427
(lp367
I1371
aI1372
aI1373
aI1412
asI428
(lp368
I1373
aI1298
aI1297
aI1413
asI429
(lp369
I1297
aI954
aI955
aI958
aI956
aI1417
asI430
(lp370
I959
aI957
aI958
aI960
asI431
(lp371
I949
aI648
aI649
aI959
asI432
(lp372
I643
aI640
aI642
aI647
aI648
aI950
asI433
(lp373
I1376
aI1374
aI1375
aI1378
asI434
(lp374
I1377
aI1376
aI1299
aI1300
aI1381
asI435
(lp375
I1380
aI1379
aI1381
aI1382
asI436
(lp376
I1170
aI904
aI594
aI593
aI595
aI1380
asI437
(lp377
I1150
aI903
aI904
aI1169
asI438
(lp378
I1151
aI1149
aI1148
aI1150
aI1173
asI439
(lp379
I925
aI588
aI587
aI586
aI1149
asI440
(lp380
I592
aI589
aI588
aI923
asI441
(lp381
I612
aI590
aI591
aI592
aI922
asI442
(lp382
I449
aI446
aI447
aI729
asI443
(lp383
I729
aI727
aI728
aI730
aI731
asI444
(lp384
I601
aI602
aI372
aI371
aI730
asI445
(lp385
I602
aI599
aI600
aI604
asI446
(lp386
I603
aI600
aI366
aI368
aI917
asI447
(lp387
I917
aI918
aI919
aI920
aI921
asI448
(lp388
I598
aI596
aI597
aI912
aI914
aI919
asI449
(lp389
I916
aI915
aI912
aI913
aI1167
asI450
(lp390
I1166
aI1165
aI1167
aI1168
asI451
(lp391
I360
aI152
aI151
aI611
aI1166
asI452
(lp392
I196
aI195
aI446
aI448
aI518
asI453
(lp393
I517
aI518
aI519
aI520
aI813
asI454
(lp394
I814
aI813
aI811
aI812
aI815
asI455
(lp395
I719
aI718
aI441
aI442
aI812
asI456
(lp396
I440
aI441
aI717
aI724
asI457
(lp397
I725
aI723
aI724
aI726
aI1058
asI458
(lp398
I1059
aI1056
aI1057
aI1058
aI1060
asI459
(lp399
I1047
aI1049
aI1052
aI1056
asI460
(lp400
I1053
aI1051
aI1049
aI1048
aI1050
aI1054
asI461
(lp401
I827
aI824
aI823
aI825
aI826
aI828
asI462
(lp402
I522
aI521
aI523
aI524
aI824
asI463
(lp403
I283
aI276
aI278
aI521
asI464
(lp404
I277
aI276
aI282
aI280
aI281
aI532
asI465
(lp405
I530
aI531
aI532
aI533
aI820
asI466
(lp406
I820
aI816
aI817
aI818
aI821
asI467
(lp407
I822
aI818
aI819
aI1268
aI1355
asI468
(lp408
I1357
aI1356
aI1355
aI1354
aI1358
asI469
(lp409
I1267
aI1262
aI1261
aI1264
aI1358
asI470
(lp410
I1261
aI1260
aI1259
aI1263
asI471
(lp411
I542
aI541
aI540
aI825
asI472
(lp412
I293
aI292
aI291
aI289
aI290
aI541
asI473
(lp413
I288
aI286
aI285
aI536
asI474
(lp414
I538
aI537
aI535
aI534
aI536
aI539
asI475
(lp415
I58
aI17
aI15
aI537
asI476
(lp416
I18
aI16
aI17
aI59
aI174
aI424
asI477
(lp417
I426
aI424
aI425
aI710
asI478
(lp418
I178
aI177
aI428
aI36
aI35
aI709
asI479
(lp419
I427
aI428
aI429
aI714
asI480
(lp420
I1332
aI1234
aI1233
aI1232
aI1399
asI481
(lp421
I1232
aI1222
aI1016
aI1017
aI1401
asI482
(lp422
I1015
aI1016
aI1221
aI1328
aI1394
asI483
(lp423
I1328
aI1329
aI1330
aI1390
asI484
(lp424
I1330
aI1225
aI1226
aI1326
aI1391
asI485
(lp425
I1326
aI1325
aI1324
aI1327
aI1395
asI486
(lp426
I437
aI432
aI430
aI1324
asI487
(lp427
I435
aI433
aI431
aI432
aI436
asI488
(lp428
I185
aI183
aI433
aI434
aI715
asI489
(lp429
I715
aI713
aI712
aI714
aI716
asI490
(lp430
I1337
aI1334
aI1333
aI1331
aI1332
aI1398
asI491
(lp431
I1335
aI1334
aI1336
aI1339
asI492
(lp432
I1340
aI1338
aI1339
aI1342
asI493
(lp433
I1341
aI1340
aI1251
aI1250
aI1345
asI494
(lp434
I1345
aI1343
aI1344
aI1346
aI1347
asI495
(lp435
I1243
aI1242
aI1245
aI1344
asI496
(lp436
I1246
aI1242
aI1244
aI1248
aI1247
aI1249
asI497
(lp437
I1239
aI1238
aI1241
aI1247
asI498
(lp438
I1238
aI1237
aI1235
aI1240
asI499
(lp439
I1190
aI1189
aI1188
aI1303
asI500
(lp440
I1304
aI1301
aI1302
aI1303
aI1305
asI501
(lp441
I698
aI697
aI1228
aI1231
aI1304
asI502
(lp442
I1228
aI1227
aI1229
aI1230
asI503
(lp443
I1018
aI1020
aI1023
aI1229
asI504
(lp444
I1030
aI1024
aI1020
aI1019
aI1256
asI505
(lp445
I1258
aI1256
aI1255
aI1257
aI1348
asI506
(lp446
I1257
aI1040
aI1039
aI1254
aI1350
asI507
(lp447
I1254
aI1252
aI1253
aI1351
asI508
(lp448
I1253
aI707
aI706
aI1235
aI1236
aI1353
asI509
(lp449
I971
aI970
aI969
aI968
aI1189
asI510
(lp450
I967
aI963
aI964
aI970
asI511
(lp451
I965
aI962
aI961
aI963
aI966
asI512
(lp452
I493
aI384
aI383
aI962
asI513
(lp453
I380
aI381
aI382
aI384
aI494
asI514
(lp454
I379
aI380
aI498
aI499
aI651
asI515
(lp455
I652
aI650
aI651
aI653
asI516
(lp456
I386
aI385
aI652
aI654
aI656
asI517
(lp457
I655
aI656
aI659
aI658
aI670
asI518
(lp458
I678
aI679
aI681
aI683
aI685
aI686
aI983
asI519
(lp459
I684
aI683
aI682
aI782
aI1102
asI520
(lp460
I782
aI780
aI781
aI1104
asI521
(lp461
I781
aI388
aI387
aI663
aI972
aI1105
asI522
(lp462
I663
aI660
aI662
aI973
asI523
(lp463
I662
aI661
aI666
aI974
asI524
(lp464
I978
aI975
aI666
aI664
aI665
aI1192
asI525
(lp465
I1192
aI1191
aI1193
aI1194
asI526
(lp466
I981
aI980
aI979
aI1193
asI527
(lp467
I668
aI667
aI670
aI669
aI980
astp468
Rp469
(dp470
S'scale'
p471
I0
sS'description'
p472
S''
p473
sb.