ccopy_reg
_reconstructor
p0
(copenalea.stse.io.walled_tissue.native_representation
IOTissueProperty
p1
c__builtin__
dict
p2
(dp3
I2
(F29.80039848725
F181.28575746409999
F0.0
tp4
sI3
(F19.866932324859999
F176.31902438290501
F0.0
tp5
sI4
(F19.866932324859999
F335.25448298190503
F0.0
tp6
sI6
(F19.866932324859999
F161.41882513909499
F0.0
tp7
sI8
(F427.1390449845
F235.91982135787501
F0.0
tp8
sI9
(F417.20557882150001
F216.05288903287499
F0.0
tp9
sI10
(F427.1390449845
F221.01962211412501
F0.0
tp10
sI11
(F427.1390449845
F196.18595670787499
F0.0
tp11
sI12
(F417.20557882150001
F201.15268978912499
F0.0
tp12
sI13
(F427.1390449845
F181.285757464125
F0.0
tp13
sI14
(F417.20557882150001
F176.319024382875
F0.0
tp14
sI16
(F387.40518033450002
F340.22121606312498
F0.0
tp15
sI17
(F427.1390449845
F62.084163515187498
F0.0
tp16
sI19
(F417.20557882150001
F121.68496048975
F0.0
tp17
sI20
(F407.27211265950001
F116.71822740825
F0.0
tp18
sI21
(F298.00398487249998
F17.38356578422
F0.0
tp19
sI22
(F367.53824800950002
F141.55189281412501
F0.0
tp20
sI23
(F367.53824800950002
F156.45209205787501
F0.0
tp21
sI24
(F357.60478184750002
F161.418825139125
F0.0
tp22
sI25
(F397.33864649650002
F161.418825139125
F0.0
tp23
sI26
(F387.40518033450002
F156.45209205787501
F0.0
tp24
sI27
(F377.47171417200002
F161.41882513887501
F0.0
tp25
sI28
(F377.47171417200002
F176.319024383125
F0.0
tp26
sI29
(F29.80039848725
F340.22121606309997
F0.0
tp27
sI30
(F218.5362555735
F176.319024382875
F0.0
tp28
sI31
(F49.667330812099998
F340.22121606307502
F0.0
tp29
sI32
(F39.733864649700003
F335.25448298192498
F0.0
tp30
sI33
(F317.87091719749998
F255.78675368225001
F0.0
tp31
sI34
(F367.53824800950002
F181.285757464125
F0.0
tp32
sI35
(F357.60478184750002
F176.319024382875
F0.0
tp33
sI36
(F327.80438335999997
F340.22121606287499
F0.0
tp34
sI37
(F288.07051871049998
F340.22121606312498
F0.0
tp35
sI38
(F158.93545859849999
F17.38356578422
F0.0
tp36
sI39
(F149.00199243649999
F22.350298865500001
F0.0
tp37
sI40
(F139.0685262735
F17.38356578422
F0.0
tp38
sI41
(F407.27211265950001
F196.18595670787499
F0.0
tp39
sI42
(F387.40518033450002
F196.18595670787499
F0.0
tp40
sI43
(F397.33864649650002
F201.15268978912499
F0.0
tp41
sI44
(F407.27211265950001
F181.285757464125
F0.0
tp42
sI45
(F387.40518033450002
F181.285757464125
F0.0
tp43
sI46
(F397.33864649650002
F176.319024382875
F0.0
tp44
sI47
(F407.27211265950001
F156.45209205787501
F0.0
tp45
sI48
(F417.20557882150001
F161.418825139125
F0.0
tp46
sI49
(F407.27211265950001
F141.55189281412501
F0.0
tp47
sI50
(F417.20557882150001
F136.58515973287501
F0.0
tp48
sI54
(F397.33864649650002
F121.68496048975
F0.0
tp49
sI55
(F387.40518033450002
F141.55189281412501
F0.0
tp50
sI56
(F377.47171417200002
F136.58515973312501
F0.0
tp51
sI57
(F397.33864649650002
F136.58515973287501
F0.0
tp52
sI58
(F407.27211265950001
F101.818028165
F0.0
tp53
sI59
(F427.1390449845
F116.71822740825
F0.0
tp54
sI60
(F337.73784952250003
F121.68496048975
F0.0
tp55
sI61
(F357.60478184750002
F136.58515973287501
F0.0
tp56
sI62
(F288.07051871049998
F37.25049810905
F0.0
tp57
sI63
(F288.07051871049998
F22.350298865500001
F0.0
tp58
sI64
(F208.60278941050001
F37.25049810905
F0.0
tp59
sI65
(F427.1390449845
F22.350298865500001
F0.0
tp60
sI66
(F427.1390449845
F37.25049810905
F0.0
tp61
sI67
(F417.20557882150001
F17.38356578422
F0.0
tp62
sI68
(F407.27211265950001
F22.350298865500001
F0.0
tp63
sI69
(F417.20557882150001
F57.117430433912503
F0.0
tp64
sI70
(F417.20557882150001
F42.217231190349999
F0.0
tp65
sI71
(F407.27211265950001
F37.25049810905
F0.0
tp66
sI72
(F298.00398487249998
F42.217231190349999
F0.0
tp67
sI73
(F367.53824800950002
F22.350298865500001
F0.0
tp68
sI74
(F149.00199243649999
F340.22121606312498
F0.0
tp69
sI75
(F19.866932324859999
F320.35428373809498
F0.0
tp70
sI76
(F139.0685262735
F216.05288903287499
F0.0
tp71
sI77
(F139.0685262735
F201.15268978912499
F0.0
tp72
sI78
(F149.00199243649999
F235.91982135787501
F0.0
tp73
sI79
(F158.93545859849999
F216.05288903287499
F0.0
tp74
sI80
(F149.00199243649999
F221.01962211412501
F0.0
tp75
sI81
(F139.0685262735
F240.88655443912501
F0.0
tp76
sI82
(F158.93545859849999
F295.52061833187503
F0.0
tp77
sI83
(F89.4011954618
F275.653686006925
F0.0
tp78
sI84
(F178.80239092350001
F176.319024382875
F0.0
tp79
sI85
(F168.86892476150001
F196.18595670787499
F0.0
tp80
sI86
(F158.93545859849999
F201.15268978912499
F0.0
tp81
sI87
(F149.00199243649999
F196.18595670787499
F0.0
tp82
sI88
(F168.86892476150001
F181.285757464125
F0.0
tp83
sI89
(F39.733864649700003
F176.31902438292499
F0.0
tp84
sI90
(F79.467729299399991
F121.6849604897
F0.0
tp85
sI91
(F19.866932324859999
F136.585159732905
F0.0
tp86
sI92
(F208.60278941050001
F340.22121606312498
F0.0
tp87
sI93
(F198.66932324850001
F255.78675368225001
F0.0
tp88
sI94
(F158.93545859849999
F320.35428373812499
F0.0
tp89
sI95
(F168.86892476150001
F340.22121606312498
F0.0
tp90
sI96
(F158.93545859849999
F335.25448298187501
F0.0
tp91
sI97
(F258.27012022299999
F255.78675368250001
F0.0
tp92
sI98
(F158.93545859849999
F280.620419088125
F0.0
tp93
sI99
(F178.80239092350001
F201.15268978912499
F0.0
tp94
sI100
(F238.40318789849999
F240.88655443912501
F0.0
tp95
sI101
(F407.27211265950001
F221.01962211412501
F0.0
tp96
sI102
(F397.33864649650002
F216.05288903287499
F0.0
tp97
sI103
(F427.1390449845
F260.75348676375
F0.0
tp98
sI104
(F427.1390449845
F275.65368600687498
F0.0
tp99
sI105
(F367.53824800950002
F260.75348676375
F0.0
tp100
sI106
(F377.47171417200002
F201.15268978887499
F0.0
tp101
sI107
(F367.53824800950002
F196.18595670787499
F0.0
tp102
sI108
(F248.3366540605
F340.22121606312498
F0.0
tp103
sI109
(F238.40318789849999
F335.25448298187501
F0.0
tp104
sI110
(F228.4697217355
F340.22121606312498
F0.0
tp105
sI111
(F218.5362555735
F335.25448298187501
F0.0
tp106
sI112
(F238.40318789849999
F280.620419088125
F0.0
tp107
sI113
(F248.3366540605
F275.65368600687498
F0.0
tp108
sI114
(F238.40318789849999
F255.78675368225001
F0.0
tp109
sI115
(F248.3366540605
F260.75348676375
F0.0
tp110
sI116
(F298.00398487249998
F335.25448298187501
F0.0
tp111
sI117
(F307.93745103549998
F340.22121606312498
F0.0
tp112
sI118
(F317.87091719749998
F335.25448298187501
F0.0
tp113
sI119
(F149.00199243649999
F37.25049810905
F0.0
tp114
sI120
(F39.733864649700003
F17.383565784270001
F0.0
tp115
sI123
(F29.80039848725
F22.350298865475001
F0.0
tp116
sI124
(F19.866932324859999
F42.21723119032
F0.0
tp117
sI125
(F29.80039848725
F37.250498109074996
F0.0
tp118
sI126
(F49.667330812100012
F22.35029886545
F0.0
tp119
sI127
(F208.60278941050001
F62.084163515187498
F0.0
tp120
sI128
(F178.80239092350001
F96.851295083799997
F0.0
tp121
sI129
(F168.86892476150001
F101.818028165
F0.0
tp122
sI130
(F89.4011954618
F116.7182274083
F0.0
tp123
sI131
(F149.00199243649999
F62.084163515187498
F0.0
tp124
sI132
(F119.201593949
F17.383565784470001
F0.0
tp125
sI133
(F129.1350601115
F22.350298865500001
F0.0
tp126
sI135
(F19.866932324859999
F57.117430433942502
F0.0
tp127
sI136
(F427.1390449845
F141.55189281412501
F0.0
tp128
sI137
(F427.1390449845
F156.45209205787501
F0.0
tp129
sI140
(F397.33864649650002
F320.35428373812499
F0.0
tp130
sI141
(F397.33864649650002
F335.25448298187501
F0.0
tp131
sI142
(F407.27211265950001
F340.22121606312498
F0.0
tp132
sI143
(F417.20557882150001
F335.25448298187501
F0.0
tp133
sI144
(F427.1390449845
F315.38755065687502
F0.0
tp134
sI145
(F417.20557882150001
F320.35428373812499
F0.0
tp135
sI146
(F407.27211265950001
F315.38755065687502
F0.0
tp136
sI147
(F427.1390449845
F300.487351413125
F0.0
tp137
sI149
(F427.1390449845
F76.984362758749995
F0.0
tp138
sI150
(F417.20557882150001
F81.951095840050002
F0.0
tp139
sI151
(F417.20557882150001
F96.851295083799997
F0.0
tp140
sI152
(F427.1390449845
F101.818028165
F0.0
tp141
sI153
(F327.80438335999997
F141.55189281387501
F0.0
tp142
sI154
(F337.73784952250003
F136.58515973287501
F0.0
tp143
sI155
(F347.67131568449997
F141.55189281412501
F0.0
tp144
sI156
(F347.67131568449997
F156.45209205787501
F0.0
tp145
sI157
(F278.13705254749999
F17.38356578422
F0.0
tp146
sI158
(F238.40318789849999
F17.38356578422
F0.0
tp147
sI159
(F228.4697217355
F22.350298865500001
F0.0
tp148
sI160
(F218.5362555735
F17.38356578422
F0.0
tp149
sI161
(F198.66932324850001
F17.38356578422
F0.0
tp150
sI162
(F208.60278941050001
F22.350298865500001
F0.0
tp151
sI163
(F178.80239092350001
F17.38356578422
F0.0
tp152
sI164
(F168.86892476150001
F22.350298865500012
F0.0
tp153
sI165
(F188.73585708600001
F22.35029886525
F0.0
tp154
sI166
(F377.47171417200002
F17.383565784470001
F0.0
tp155
sI167
(F387.40518033450002
F22.350298865500001
F0.0
tp156
sI168
(F397.33864649650002
F17.38356578422
F0.0
tp157
sI169
(F407.27211265950001
F62.084163515187498
F0.0
tp158
sI170
(F407.27211265950001
F76.984362758749995
F0.0
tp159
sI171
(F387.40518033450002
F37.25049810905
F0.0
tp160
sI172
(F397.33864649650002
F42.217231190349999
F0.0
tp161
sI173
(F387.40518033450002
F62.084163515187498
F0.0
tp162
sI174
(F397.33864649650002
F57.117430433912503
F0.0
tp163
sI175
(F317.87091719749998
F17.38356578422
F0.0
tp164
sI176
(F307.93745103549998
F22.350298865500001
F0.0
tp165
sI177
(F307.93745103549998
F37.25049810905
F0.0
tp166
sI178
(F317.87091719749998
F42.217231190349992
F0.0
tp167
sI179
(F357.60478184750002
F17.38356578422
F0.0
tp168
sI180
(F317.87091719749998
F57.117430433912503
F0.0
tp169
sI181
(F327.80438335999997
F62.084163514937501
F0.0
tp170
sI182
(F327.80438335999997
F76.984362758999993
F0.0
tp171
sI183
(F377.47171417200002
F121.6849604895
F0.0
tp172
sI184
(F387.40518033450002
F116.71822740825
F0.0
tp173
sI185
(F337.73784952250003
F96.851295083799982
F0.0
tp174
sI186
(F337.73784952250003
F81.951095840050016
F0.0
tp175
sI189
(F19.866932324859999
F280.62041908809499
F0.0
tp176
sI190
(F19.866932324859999
F295.52061833190498
F0.0
tp177
sI191
(F39.733864649700003
F320.35428373807503
F0.0
tp178
sI192
(F29.80039848725
F315.38755065689998
F0.0
tp179
sI193
(F29.80039848725
F300.48735141309999
F0.0
tp180
sI194
(F129.1350601115
F235.91982135787501
F0.0
tp181
sI195
(F129.1350601115
F221.01962211412501
F0.0
tp182
sI196
(F109.2681277866
F235.919821357925
F0.0
tp183
sI197
(F119.201593949
F240.88655443887501
F0.0
tp184
sI198
(F317.87091719749998
F176.319024382875
F0.0
tp185
sI199
(F317.87091719749998
F161.418825139125
F0.0
tp186
sI200
(F337.73784952250003
F161.418825139125
F0.0
tp187
sI201
(F327.80438335999997
F156.452092058125
F0.0
tp188
sI202
(F327.80438335999997
F196.18595670812499
F0.0
tp189
sI203
(F347.67131568449997
F181.285757464125
F0.0
tp190
sI204
(F337.73784952250003
F176.319024382875
F0.0
tp191
sI205
(F327.80438335999997
F181.285757463875
F0.0
tp192
sI206
(F158.93545859849999
F176.319024382875
F0.0
tp193
sI207
(F149.00199243649999
F181.285757464125
F0.0
tp194
sI208
(F178.80239092350001
F161.418825139125
F0.0
tp195
sI209
(F139.0685262735
F136.58515973287501
F0.0
tp196
sI210
(F139.0685262735
F121.68496048975
F0.0
tp197
sI211
(F149.00199243649999
F116.71822740825
F0.0
tp198
sI212
(F129.1350601115
F141.55189281412501
F0.0
tp199
sI213
(F89.4011954618
F340.22121606307502
F0.0
tp200
sI214
(F69.534263136950003
F340.22121606309997
F0.0
tp201
sI215
(F59.600796974549993
F335.25448298190003
F0.0
tp202
sI216
(F79.467729299399991
F335.25448298192498
F0.0
tp203
sI217
(F79.467729299399991
F320.35428373807503
F0.0
tp204
sI218
(F109.2681277866
F340.22121606307502
F0.0
tp205
sI219
(F99.334661624399999
F335.25448298182499
F0.0
tp206
sI220
(F119.201593949
F295.52061833212503
F0.0
tp207
sI221
(F99.334661624399999
F280.62041908817503
F0.0
tp208
sI222
(F149.00199243649999
F315.38755065687502
F0.0
tp209
sI223
(F149.00199243649999
F300.487351413125
F0.0
tp210
sI224
(F139.0685262735
F295.52061833187503
F0.0
tp211
sI225
(F129.1350601115
F300.487351413125
F0.0
tp212
sI226
(F89.4011954618
F315.38755065692499
F0.0
tp213
sI227
(F89.4011954618
F300.48735141307498
F0.0
tp214
sI228
(F109.2681277866
F315.38755065692499
F0.0
tp215
sI229
(F99.334661624399999
F320.35428373817501
F0.0
tp216
sI230
(F99.334661624399999
F295.52061833182501
F0.0
tp217
sI231
(F109.2681277866
F300.48735141307498
F0.0
tp218
sI232
(F119.201593949
F216.05288903312501
F0.0
tp219
sI233
(F109.2681277866
F221.01962211407499
F0.0
tp220
sI234
(F59.600796974550001
F161.41882513909999
F0.0
tp221
sI235
(F69.534263136950003
F196.1859567079
F0.0
tp222
sI236
(F49.667330812100012
F181.285757464075
F0.0
tp223
sI237
(F59.600796974550001
F176.31902438290001
F0.0
tp224
sI238
(F69.534263136950003
F181.28575746409999
F0.0
tp225
sI239
(F29.80039848725
F141.5518928141
F0.0
tp226
sI240
(F29.80039848725
F156.45209205789999
F0.0
tp227
sI241
(F39.733864649700003
F161.41882513907501
F0.0
tp228
sI242
(F49.667330812100012
F156.452092057925
F0.0
tp229
sI243
(F59.600796974549993
F136.5851597329
F0.0
tp230
sI244
(F49.667330812099998
F141.55189281407499
F0.0
tp231
sI245
(F39.733864649700003
F136.58515973292501
F0.0
tp232
sI247
(F19.866932324859999
F121.68496048972
F0.0
tp233
sI248
(F168.86892476150001
F315.38755065687502
F0.0
tp234
sI249
(F168.86892476150001
F300.487351413125
F0.0
tp235
sI250
(F158.93545859849999
F255.78675368225001
F0.0
tp236
sI251
(F158.93545859849999
F240.88655443912501
F0.0
tp237
sI252
(F139.0685262735
F280.620419088125
F0.0
tp238
sI253
(F149.00199243649999
F275.65368600687498
F0.0
tp239
sI254
(F139.0685262735
F255.78675368225001
F0.0
tp240
sI255
(F149.00199243649999
F260.75348676375
F0.0
tp241
sI256
(F178.80239092350001
F240.88655443912501
F0.0
tp242
sI257
(F168.86892476150001
F235.91982135787501
F0.0
tp243
sI258
(F168.86892476150001
F221.01962211412501
F0.0
tp244
sI259
(F178.80239092350001
F216.05288903287499
F0.0
tp245
sI260
(F208.60278941050001
F196.18595670787499
F0.0
tp246
sI261
(F188.73585708600001
F196.18595670812499
F0.0
tp247
sI262
(F198.66932324850001
F201.15268978912499
F0.0
tp248
sI263
(F208.60278941050001
F181.285757464125
F0.0
tp249
sI264
(F198.66932324850001
F176.319024382875
F0.0
tp250
sI265
(F188.73585708600001
F181.285757463875
F0.0
tp251
sI266
(F238.40318789849999
F216.05288903287499
F0.0
tp252
sI267
(F218.5362555735
F201.15268978912499
F0.0
tp253
sI268
(F218.5362555735
F240.88655443912501
F0.0
tp254
sI269
(F228.4697217355
F235.91982135787501
F0.0
tp255
sI270
(F218.5362555735
F216.05288903287499
F0.0
tp256
sI271
(F228.4697217355
F221.01962211412501
F0.0
tp257
sI272
(F377.47171417200002
F255.78675368250001
F0.0
tp258
sI273
(F417.20557882150001
F280.620419088125
F0.0
tp259
sI274
(F417.20557882150001
F295.52061833187503
F0.0
tp260
sI275
(F407.27211265950001
F300.487351413125
F0.0
tp261
sI276
(F347.67131568449997
F340.22121606312498
F0.0
tp262
sI277
(F337.73784952250003
F335.25448298187501
F0.0
tp263
sI278
(F337.73784952250003
F320.35428373812499
F0.0
tp264
sI279
(F347.67131568449997
F315.38755065687502
F0.0
tp265
sI280
(F387.40518033450002
F315.38755065687502
F0.0
tp266
sI281
(F357.60478184750002
F255.78675368225001
F0.0
tp267
sI282
(F357.60478184750002
F240.88655443912501
F0.0
tp268
sI283
(F337.73784952250003
F240.88655443912501
F0.0
tp269
sI284
(F347.67131568449997
F235.91982135787501
F0.0
tp270
sI285
(F357.60478184750002
F216.05288903287499
F0.0
tp271
sI286
(F337.73784952250003
F216.05288903287499
F0.0
tp272
sI287
(F347.67131568449997
F221.01962211412501
F0.0
tp273
sI288
(F357.60478184750002
F201.15268978912499
F0.0
tp274
sI289
(F337.73784952250003
F201.15268978912499
F0.0
tp275
sI290
(F347.67131568449997
F196.18595670787499
F0.0
tp276
sI291
(F268.20358638549999
F340.22121606312498
F0.0
tp277
sI292
(F278.13705254749999
F335.25448298187501
F0.0
tp278
sI293
(F258.27012022299999
F335.25448298212501
F0.0
tp279
sI294
(F258.27012022299999
F320.35428373787499
F0.0
tp280
sI295
(F208.60278941050001
F300.487351413125
F0.0
tp281
sI296
(F218.5362555735
F295.52061833187503
F0.0
tp282
sI297
(F208.60278941050001
F315.38755065687502
F0.0
tp283
sI298
(F218.5362555735
F320.35428373812499
F0.0
tp284
sI299
(F268.20358638549999
F315.38755065687502
F0.0
tp285
sI300
(F278.13705254749999
F320.35428373812499
F0.0
tp286
sI301
(F307.93745103549998
F260.75348676375
F0.0
tp287
sI302
(F59.600796974550001
F17.383565784245
F0.0
tp288
sI303
(F198.66932324850001
F81.951095840050002
F0.0
tp289
sI304
(F208.60278941050001
F76.984362758749995
F0.0
tp290
sI305
(F109.2681277866
F101.81802816494999
F0.0
tp291
sI306
(F129.1350601115
F116.71822740825
F0.0
tp292
sI307
(F119.201593949
F96.851295084049994
F0.0
tp293
sI308
(F129.1350601115
F101.818028165
F0.0
tp294
sI309
(F99.334661624399999
F17.383565784169999
F0.0
tp295
sI310
(F109.2681277866
F22.35029886545
F0.0
tp296
sI311
(F119.201593949
F81.951095839800004
F0.0
tp297
sI312
(F129.1350601115
F76.984362758749995
F0.0
tp298
sI313
(F29.80039848725
F62.084163515162501
F0.0
tp299
sI314
(F218.5362555735
F42.217231190349999
F0.0
tp300
sI315
(F228.4697217355
F37.25049810905
F0.0
tp301
sI316
(F218.5362555735
F57.117430433912503
F0.0
tp302
sI317
(F258.27012022299999
F17.383565784470001
F0.0
tp303
sI318
(F268.20358638549999
F22.350298865500001
F0.0
tp304
sI319
(F248.3366540605
F22.350298865500001
F0.0
tp305
sI320
(F158.93545859849999
F57.117430433912503
F0.0
tp306
sI321
(F158.93545859849999
F42.217231190349999
F0.0
tp307
sI322
(F168.86892476150001
F37.25049810905
F0.0
tp308
sI323
(F377.47171417200002
F81.951095839800004
F0.0
tp309
sI324
(F387.40518033450002
F76.984362758749995
F0.0
tp310
sI325
(F397.33864649650002
F81.951095840050002
F0.0
tp311
sI326
(F397.33864649650002
F96.851295083799997
F0.0
tp312
sI327
(F387.40518033450002
F101.818028165
F0.0
tp313
sI328
(F377.47171417200002
F96.851295084049994
F0.0
tp314
sI329
(F367.53824800950002
F37.25049810905
F0.0
tp315
sI330
(F377.47171417200002
F42.217231190100001
F0.0
tp316
sI331
(F377.47171417200002
F57.117430434162493
F0.0
tp317
sI332
(F327.80438335999997
F37.250498109299997
F0.0
tp318
sI333
(F337.73784952250003
F17.383565784219989
F0.0
tp319
sI334
(F327.80438335999997
F22.35029886525
F0.0
tp320
sI335
(F347.67131568449997
F22.350298865500019
F0.0
tp321
sI336
(F298.00398487249998
F57.117430433912503
F0.0
tp322
sI337
(F307.93745103549998
F62.084163515187498
F0.0
tp323
sI338
(F367.53824800950002
F101.818028165
F0.0
tp324
sI339
(F357.60478184750002
F96.851295083799997
F0.0
tp325
sI340
(F347.67131568449997
F101.818028165
F0.0
tp326
sI341
(F347.67131568449997
F116.71822740825
F0.0
tp327
sI342
(F357.60478184750002
F121.68496048975
F0.0
tp328
sI343
(F367.53824800950002
F116.71822740825
F0.0
tp329
sI344
(F367.53824800950002
F76.984362758749995
F0.0
tp330
sI345
(F357.60478184750002
F81.951095840050002
F0.0
tp331
sI346
(F347.67131568449997
F76.984362758749981
F0.0
tp332
sI347
(F367.53824800950002
F62.084163515187498
F0.0
tp333
sI349
(F29.80039848725
F196.1859567079
F0.0
tp334
sI350
(F19.866932324859999
F201.15268978909501
F0.0
tp335
sI351
(F19.866932324859999
F216.052889032905
F0.0
tp336
sI352
(F29.80039848725
F221.0196221141
F0.0
tp337
sI353
(F19.866932324859999
F255.78675368227999
F0.0
tp338
sI354
(F19.866932324859999
F240.88655443909499
F0.0
tp339
sI355
(F29.80039848725
F235.91982135789999
F0.0
tp340
sI356
(F79.467729299399991
F295.52061833192499
F0.0
tp341
sI357
(F79.467729299399991
F280.62041908807498
F0.0
tp342
sI358
(F99.334661624399999
F240.886554439175
F0.0
tp343
sI359
(F99.334661624399999
F255.78675368219999
F0.0
tp344
sI360
(F89.4011954618
F260.75348676369998
F0.0
tp345
sI361
(F79.467729299399991
F255.7867536823
F0.0
tp346
sI362
(F258.27012022299999
F176.319024383125
F0.0
tp347
sI363
(F258.27012022299999
F161.41882513887501
F0.0
tp348
sI364
(F228.4697217355
F181.285757464125
F0.0
tp349
sI365
(F228.4697217355
F196.18595670787499
F0.0
tp350
sI366
(F238.40318789849999
F176.319024382875
F0.0
tp351
sI367
(F248.3366540605
F181.285757464125
F0.0
tp352
sI368
(F248.3366540605
F196.18595670787499
F0.0
tp353
sI369
(F238.40318789849999
F201.15268978912499
F0.0
tp354
sI370
(F149.00199243649999
F141.55189281412501
F0.0
tp355
sI371
(F168.86892476150001
F156.45209205787501
F0.0
tp356
sI372
(F158.93545859849999
F161.418825139125
F0.0
tp357
sI373
(F149.00199243649999
F156.45209205787501
F0.0
tp358
sI374
(F119.201593949
F136.58515973312501
F0.0
tp359
sI375
(F99.334661624399999
F121.68496048980001
F0.0
tp360
sI376
(F119.201593949
F121.6849604895
F0.0
tp361
sI377
(F109.2681277866
F116.7182274083
F0.0
tp362
sI378
(F139.0685262735
F161.418825139125
F0.0
tp363
sI379
(F129.1350601115
F156.45209205787501
F0.0
tp364
sI380
(F139.0685262735
F176.319024382875
F0.0
tp365
sI381
(F49.667330812100012
F315.38755065692499
F0.0
tp366
sI382
(F69.534263136950003
F315.38755065689998
F0.0
tp367
sI383
(F59.600796974550001
F320.35428373809998
F0.0
tp368
sI384
(F69.534263136950003
F300.48735141309999
F0.0
tp369
sI385
(F119.201593949
F320.35428373787499
F0.0
tp370
sI386
(F139.0685262735
F320.35428373812499
F0.0
tp371
sI387
(F129.1350601115
F315.38755065687502
F0.0
tp372
sI388
(F129.1350601115
F340.22121606312498
F0.0
tp373
sI389
(F139.0685262735
F335.25448298187501
F0.0
tp374
sI390
(F119.201593949
F335.25448298212501
F0.0
tp375
sI391
(F99.334661624399999
F216.05288903282499
F0.0
tp376
sI392
(F79.467729299399991
F201.152689789075
F0.0
tp377
sI393
(F69.534263136950003
F156.45209205789999
F0.0
tp378
sI394
(F79.467729299400006
F136.58515973292501
F0.0
tp379
sI395
(F69.534263136950003
F141.5518928141
F0.0
tp380
sI396
(F99.334661624399999
F96.851295083750003
F0.0
tp381
sI397
(F89.4011954618
F101.81802816494999
F0.0
tp382
sI398
(F19.866932324859999
F96.851295083829996
F0.0
tp383
sI399
(F19.866932324859999
F81.951095840020002
F0.0
tp384
sI400
(F39.733864649700003
F81.951095839999994
F0.0
tp385
sI401
(F29.80039848725
F76.984362758775006
F0.0
tp386
sI402
(F39.733864649700003
F96.851295083850005
F0.0
tp387
sI403
(F29.80039848725
F101.818028164975
F0.0
tp388
sI404
(F39.733864649700003
F121.6849604897
F0.0
tp389
sI405
(F29.80039848725
F116.718227408275
F0.0
tp390
sI406
(F208.60278941050001
F275.65368600687498
F0.0
tp391
sI407
(F208.60278941050001
F260.75348676375
F0.0
tp392
sI408
(F228.4697217355
F275.65368600687498
F0.0
tp393
sI409
(F218.5362555735
F280.620419088125
F0.0
tp394
sI410
(F218.5362555735
F255.78675368225001
F0.0
tp395
sI411
(F228.4697217355
F260.75348676375
F0.0
tp396
sI412
(F198.66932324850001
F320.35428373812499
F0.0
tp397
sI413
(F188.73585708600001
F315.38755065712502
F0.0
tp398
sI414
(F178.80239092350001
F320.35428373812499
F0.0
tp399
sI415
(F188.73585708600001
F340.22121606287499
F0.0
tp400
sI416
(F198.66932324850001
F335.25448298187501
F0.0
tp401
sI417
(F178.80239092350001
F335.25448298187501
F0.0
tp402
sI418
(F188.73585708600001
F300.487351412875
F0.0
tp403
sI419
(F198.66932324850001
F295.52061833187503
F0.0
tp404
sI420
(F178.80239092350001
F295.52061833187503
F0.0
tp405
sI421
(F198.66932324850001
F280.620419088125
F0.0
tp406
sI422
(F188.73585708600001
F260.75348676350001
F0.0
tp407
sI423
(F178.80239092350001
F255.78675368225001
F0.0
tp408
sI424
(F168.86892476150001
F260.75348676375
F0.0
tp409
sI425
(F168.86892476150001
F275.65368600687498
F0.0
tp410
sI426
(F178.80239092350001
F280.620419088125
F0.0
tp411
sI427
(F188.73585708600001
F275.65368600712497
F0.0
tp412
sI428
(F129.1350601115
F275.65368600687498
F0.0
tp413
sI429
(F109.2681277866
F275.653686006925
F0.0
tp414
sI430
(F119.201593949
F280.62041908787501
F0.0
tp415
sI431
(F129.1350601115
F260.75348676375
F0.0
tp416
sI432
(F109.2681277866
F260.75348676369998
F0.0
tp417
sI433
(F119.201593949
F255.78675368250001
F0.0
tp418
sI434
(F198.66932324850001
F216.05288903287499
F0.0
tp419
sI435
(F188.73585708600001
F221.01962211387499
F0.0
tp420
sI436
(F208.60278941050001
F221.01962211412501
F0.0
tp421
sI437
(F188.73585708600001
F235.91982135812501
F0.0
tp422
sI438
(F198.66932324850001
F240.88655443912501
F0.0
tp423
sI439
(F208.60278941050001
F235.91982135787501
F0.0
tp424
sI440
(F387.40518033450002
F260.75348676375
F0.0
tp425
sI441
(F407.27211265950001
F275.65368600687498
F0.0
tp426
sI442
(F367.53824800950002
F235.91982135787501
F0.0
tp427
sI443
(F377.47171417200002
F240.88655443887501
F0.0
tp428
sI444
(F387.40518033450002
F235.91982135787501
F0.0
tp429
sI445
(F387.40518033450002
F221.01962211412501
F0.0
tp430
sI446
(F377.47171417200002
F216.05288903312501
F0.0
tp431
sI447
(F367.53824800950002
F221.01962211412501
F0.0
tp432
sI448
(F317.87091719749998
F320.35428373812499
F0.0
tp433
sI449
(F327.80438335999997
F315.38755065712502
F0.0
tp434
sI450
(F327.80438335999997
F300.487351412875
F0.0
tp435
sI451
(F397.33864649650002
F295.52061833187503
F0.0
tp436
sI452
(F387.40518033450002
F300.487351413125
F0.0
tp437
sI453
(F387.40518033450002
F275.65368600687498
F0.0
tp438
sI454
(F397.33864649650002
F280.620419088125
F0.0
tp439
sI455
(F357.60478184750002
F320.35428373812499
F0.0
tp440
sI456
(F377.47171417200002
F320.35428373787499
F0.0
tp441
sI457
(F367.53824800950002
F315.38755065687502
F0.0
tp442
sI458
(F367.53824800950002
F340.22121606312498
F0.0
tp443
sI459
(F377.47171417200002
F335.25448298212501
F0.0
tp444
sI460
(F357.60478184750002
F335.25448298187501
F0.0
tp445
sI461
(F228.4697217355
F300.487351413125
F0.0
tp446
sI462
(F248.3366540605
F300.487351413125
F0.0
tp447
sI463
(F238.40318789849999
F295.52061833187503
F0.0
tp448
sI464
(F228.4697217355
F315.38755065687502
F0.0
tp449
sI465
(F248.3366540605
F315.38755065687502
F0.0
tp450
sI466
(F238.40318789849999
F320.35428373812499
F0.0
tp451
sI467
(F258.27012022299999
F295.52061833212503
F0.0
tp452
sI468
(F268.20358638549999
F300.487351413125
F0.0
tp453
sI469
(F278.13705254749999
F295.52061833187503
F0.0
tp454
sI470
(F258.27012022299999
F280.62041908787501
F0.0
tp455
sI471
(F268.20358638549999
F260.75348676375
F0.0
tp456
sI472
(F288.07051871049998
F275.65368600687498
F0.0
tp457
sI473
(F268.20358638549999
F275.65368600687498
F0.0
tp458
sI474
(F278.13705254749999
F280.620419088125
F0.0
tp459
sI475
(F218.5362555735
F81.951095840050002
F0.0
tp460
sI476
(F188.73585708600001
F101.81802816475
F0.0
tp461
sI477
(F198.66932324850001
F96.851295083799997
F0.0
tp462
sI478
(F278.13705254749999
F161.418825139125
F0.0
tp463
sI479
(F268.20358638549999
F156.45209205787501
F0.0
tp464
sI480
(F317.87091719749998
F136.58515973287501
F0.0
tp465
sI481
(F268.20358638549999
F141.55189281412501
F0.0
tp466
sI482
(F278.13705254749999
F136.58515973287501
F0.0
tp467
sI483
(F139.0685262735
F81.951095840050002
F0.0
tp468
sI484
(F158.93545859849999
F81.951095840050002
F0.0
tp469
sI485
(F149.00199243649999
F76.984362758749995
F0.0
tp470
sI486
(F139.0685262735
F96.851295083799997
F0.0
tp471
sI487
(F158.93545859849999
F96.851295083799997
F0.0
tp472
sI488
(F149.00199243649999
F101.818028165
F0.0
tp473
sI489
(F109.2681277866
F37.250498109099993
F0.0
tp474
sI490
(F49.667330812100012
F76.984362758800003
F0.0
tp475
sI491
(F69.534263136950003
F62.084163515162501
F0.0
tp476
sI492
(F228.4697217355
F62.084163515187498
F0.0
tp477
sI493
(F238.40318789849999
F81.951095840050002
F0.0
tp478
sI494
(F228.4697217355
F76.984362758749995
F0.0
tp479
sI495
(F168.86892476150001
F62.084163515187512
F0.0
tp480
sI496
(F188.73585708600001
F76.984362758999993
F0.0
tp481
sI497
(F168.86892476150001
F76.984362758749995
F0.0
tp482
sI498
(F178.80239092350001
F81.951095840050002
F0.0
tp483
sI499
(F258.27012022299999
F96.851295084049994
F0.0
tp484
sI500
(F337.73784952250003
F57.117430433912482
F0.0
tp485
sI501
(F347.67131568449997
F62.084163515187512
F0.0
tp486
sI502
(F357.60478184750002
F57.117430433912503
F0.0
tp487
sI503
(F357.60478184750002
F42.217231190349999
F0.0
tp488
sI504
(F337.73784952250003
F42.217231190350013
F0.0
tp489
sI505
(F347.67131568449997
F37.250498109049992
F0.0
tp490
sI506
(F29.80039848725
F275.65368600689999
F0.0
tp491
sI507
(F29.80039848725
F260.75348676372499
F0.0
tp492
sI508
(F69.534263136950003
F221.0196221141
F0.0
tp493
sI509
(F79.467729299400006
F216.05288903292501
F0.0
tp494
sI510
(F89.4011954618
F221.01962211407499
F0.0
tp495
sI511
(F69.534263136950003
F235.91982135789999
F0.0
tp496
sI512
(F89.4011954618
F235.919821357925
F0.0
tp497
sI513
(F79.467729299400006
F240.88655443907501
F0.0
tp498
sI514
(F49.667330812099998
F221.01962211407499
F0.0
tp499
sI515
(F59.600796974549993
F216.0528890329
F0.0
tp500
sI516
(F39.733864649700003
F216.05288903292501
F0.0
tp501
sI517
(F59.600796974549993
F201.15268978910001
F0.0
tp502
sI518
(F49.667330812099998
F196.18595670792499
F0.0
tp503
sI519
(F39.733864649700003
F201.152689789075
F0.0
tp504
sI520
(F39.733864649700003
F240.88655443907501
F0.0
tp505
sI521
(F59.600796974549993
F240.8865544391
F0.0
tp506
sI522
(F49.667330812099998
F235.919821357925
F0.0
tp507
sI523
(F39.733864649700003
F255.7867536823
F0.0
tp508
sI524
(F327.80438335999997
F221.01962211387499
F0.0
tp509
sI525
(F317.87091719749998
F240.88655443912501
F0.0
tp510
sI526
(F327.80438335999997
F235.91982135812501
F0.0
tp511
sI527
(F298.00398487249998
F176.319024382875
F0.0
tp512
sI528
(F307.93745103549998
F181.285757464125
F0.0
tp513
sI529
(F168.86892476150001
F141.55189281412501
F0.0
tp514
sI530
(F158.93545859849999
F136.58515973287501
F0.0
tp515
sI531
(F168.86892476150001
F116.71822740825
F0.0
tp516
sI532
(F158.93545859849999
F121.68496048975
F0.0
tp517
sI533
(F99.334661624399999
F136.58515973282499
F0.0
tp518
sI534
(F109.2681277866
F141.55189281407499
F0.0
tp519
sI535
(F89.4011954618
F141.55189281407499
F0.0
tp520
sI536
(F89.4011954618
F196.18595670792499
F0.0
tp521
sI537
(F99.334661624399999
F201.15268978917501
F0.0
tp522
sI538
(F89.4011954618
F76.984362758800003
F0.0
tp523
sI539
(F109.2681277866
F62.084163515137497
F0.0
tp524
sI540
(F109.2681277866
F76.984362758800003
F0.0
tp525
sI541
(F99.334661624399999
F81.951095840099995
F0.0
tp526
sI542
(F79.467729299399991
F96.851295083850005
F0.0
tp527
sI543
(F79.467729299399991
F81.951095839999994
F0.0
tp528
sI544
(F59.600796974550001
F81.951095840025005
F0.0
tp529
sI545
(F69.534263136950003
F76.984362758774992
F0.0
tp530
sI546
(F417.20557882150001
F255.78675368225001
F0.0
tp531
sI547
(F407.27211265950001
F260.75348676375
F0.0
tp532
sI548
(F397.33864649650002
F255.78675368225001
F0.0
tp533
sI549
(F397.33864649650002
F240.88655443912501
F0.0
tp534
sI550
(F417.20557882150001
F240.88655443912501
F0.0
tp535
sI551
(F407.27211265950001
F235.91982135787501
F0.0
tp536
sI552
(F288.07051871049998
F300.487351413125
F0.0
tp537
sI553
(F307.93745103549998
F315.38755065687502
F0.0
tp538
sI554
(F298.00398487249998
F320.35428373812499
F0.0
tp539
sI555
(F288.07051871049998
F315.38755065687502
F0.0
tp540
sI556
(F327.80438335999997
F275.65368600712497
F0.0
tp541
sI557
(F327.80438335999997
F260.75348676350001
F0.0
tp542
sI558
(F337.73784952250003
F255.78675368225001
F0.0
tp543
sI559
(F347.67131568449997
F260.75348676375
F0.0
tp544
sI560
(F347.67131568449997
F300.487351413125
F0.0
tp545
sI561
(F337.73784952250003
F295.52061833187503
F0.0
tp546
sI562
(F347.67131568449997
F275.65368600687498
F0.0
tp547
sI563
(F337.73784952250003
F280.620419088125
F0.0
tp548
sI564
(F248.3366540605
F101.818028165
F0.0
tp549
sI565
(F238.40318789849999
F96.851295083799997
F0.0
tp550
sI566
(F178.80239092350001
F136.58515973287501
F0.0
tp551
sI567
(F188.73585708600001
F116.7182274085
F0.0
tp552
sI568
(F178.80239092350001
F121.68496048975
F0.0
tp553
sI569
(F307.93745103549998
F141.55189281412501
F0.0
tp554
sI570
(F307.93745103549998
F156.45209205787501
F0.0
tp555
sI571
(F288.07051871049998
F141.55189281412501
F0.0
tp556
sI572
(F298.00398487249998
F136.58515973287501
F0.0
tp557
sI573
(F298.00398487249998
F161.418825139125
F0.0
tp558
sI574
(F288.07051871049998
F156.45209205787501
F0.0
tp559
sI575
(F327.80438335999997
F101.81802816475
F0.0
tp560
sI576
(F327.80438335999997
F116.7182274085
F0.0
tp561
sI577
(F317.87091719749998
F121.68496048975
F0.0
tp562
sI578
(F69.534263136950003
F37.250498109074996
F0.0
tp563
sI579
(F89.4011954618
F22.35029886545
F0.0
tp564
sI580
(F69.534263136950003
F22.350298865475001
F0.0
tp565
sI581
(F79.467729299400006
F17.383565784270001
F0.0
tp566
sI582
(F99.334661624399999
F42.2172311904
F0.0
tp567
sI583
(F89.4011954618
F37.2504981091
F0.0
tp568
sI584
(F79.467729299400006
F42.217231190299998
F0.0
tp569
sI585
(F99.334661624399999
F57.117430433862502
F0.0
tp570
sI586
(F79.467729299400006
F57.117430433962497
F0.0
tp571
sI587
(F89.4011954618
F62.08416351513749
F0.0
tp572
sI588
(F129.1350601115
F37.25049810905
F0.0
tp573
sI589
(F139.0685262735
F42.217231190349999
F0.0
tp574
sI590
(F119.201593949
F42.217231190100001
F0.0
tp575
sI591
(F139.0685262735
F57.117430433912503
F0.0
tp576
sI592
(F129.1350601115
F62.084163515187498
F0.0
tp577
sI593
(F119.201593949
F57.117430434162493
F0.0
tp578
sI594
(F39.733864649700003
F57.117430433962497
F0.0
tp579
sI595
(F59.600796974549993
F57.1174304339375
F0.0
tp580
sI596
(F49.667330812099998
F62.08416351513749
F0.0
tp581
sI597
(F39.733864649700003
F42.217231190299998
F0.0
tp582
sI598
(F59.600796974549993
F42.217231190325002
F0.0
tp583
sI599
(F49.667330812099998
F37.2504981091
F0.0
tp584
sI600
(F238.40318789849999
F57.117430433912503
F0.0
tp585
sI601
(F238.40318789849999
F42.217231190349999
F0.0
tp586
sI602
(F248.3366540605
F37.25049810905
F0.0
tp587
sI603
(F198.66932324850001
F57.117430433912503
F0.0
tp588
sI604
(F188.73585708600001
F62.084163514937501
F0.0
tp589
sI605
(F178.80239092350001
F57.117430433912489
F0.0
tp590
sI606
(F188.73585708600001
F37.250498109299997
F0.0
tp591
sI607
(F198.66932324850001
F42.217231190349999
F0.0
tp592
sI608
(F178.80239092350001
F42.217231190350013
F0.0
tp593
sI609
(F39.733864649700003
F280.62041908807498
F0.0
tp594
sI610
(F39.733864649700003
F295.52061833192499
F0.0
tp595
sI611
(F59.600796974549993
F295.52061833189998
F0.0
tp596
sI612
(F49.667330812099998
F300.48735141307498
F0.0
tp597
sI613
(F69.534263136950003
F260.75348676372499
F0.0
tp598
sI614
(F59.600796974550001
F255.78675368227499
F0.0
tp599
sI615
(F49.667330812100012
F260.75348676369998
F0.0
tp600
sI616
(F69.534263136950003
F275.65368600689999
F0.0
tp601
sI617
(F59.600796974550001
F280.62041908809999
F0.0
tp602
sI618
(F49.667330812100012
F275.653686006925
F0.0
tp603
sI619
(F278.13705254749999
F240.88655443912501
F0.0
tp604
sI620
(F278.13705254749999
F255.78675368225001
F0.0
tp605
sI621
(F298.00398487249998
F255.78675368225001
F0.0
tp606
sI622
(F288.07051871049998
F260.75348676375
F0.0
tp607
sI623
(F278.13705254749999
F216.05288903287499
F0.0
tp608
sI624
(F258.27012022299999
F201.15268978887499
F0.0
tp609
sI625
(F317.87091719749998
F216.05288903287499
F0.0
tp610
sI626
(F298.00398487249998
F201.15268978912499
F0.0
tp611
sI627
(F317.87091719749998
F201.15268978912499
F0.0
tp612
sI628
(F307.93745103549998
F196.18595670787499
F0.0
tp613
sI629
(F288.07051871049998
F181.285757464125
F0.0
tp614
sI630
(F278.13705254749999
F176.319024382875
F0.0
tp615
sI631
(F268.20358638549999
F181.285757464125
F0.0
tp616
sI632
(F288.07051871049998
F196.18595670787499
F0.0
tp617
sI633
(F268.20358638549999
F196.18595670787499
F0.0
tp618
sI634
(F278.13705254749999
F201.15268978912499
F0.0
tp619
sI635
(F119.201593949
F161.41882513887501
F0.0
tp620
sI636
(F109.2681277866
F156.452092057925
F0.0
tp621
sI637
(F129.1350601115
F181.285757464125
F0.0
tp622
sI638
(F129.1350601115
F196.18595670787499
F0.0
tp623
sI639
(F119.201593949
F176.319024383125
F0.0
tp624
sI640
(F109.2681277866
F181.285757464075
F0.0
tp625
sI641
(F119.201593949
F201.15268978887499
F0.0
tp626
sI642
(F109.2681277866
F196.18595670792499
F0.0
tp627
sI643
(F49.667330812100012
F101.81802816494999
F0.0
tp628
sI644
(F59.600796974550001
F96.851295083824994
F0.0
tp629
sI645
(F69.534263136950003
F101.818028164975
F0.0
tp630
sI646
(F59.600796974550001
F121.684960489725
F0.0
tp631
sI647
(F69.534263136950003
F116.718227408275
F0.0
tp632
sI648
(F49.667330812100012
F116.7182274083
F0.0
tp633
sI649
(F298.00398487249998
F295.52061833187503
F0.0
tp634
sI650
(F298.00398487249998
F280.620419088125
F0.0
tp635
sI651
(F317.87091719749998
F295.52061833187503
F0.0
tp636
sI652
(F307.93745103549998
F300.487351413125
F0.0
tp637
sI653
(F307.93745103549998
F275.65368600687498
F0.0
tp638
sI654
(F317.87091719749998
F280.620419088125
F0.0
tp639
sI655
(F367.53824800950002
F275.65368600687498
F0.0
tp640
sI656
(F377.47171417200002
F280.62041908787501
F0.0
tp641
sI657
(F357.60478184750002
F280.620419088125
F0.0
tp642
sI658
(F377.47171417200002
F295.52061833212503
F0.0
tp643
sI659
(F367.53824800950002
F300.487351413125
F0.0
tp644
sI660
(F357.60478184750002
F295.52061833187503
F0.0
tp645
sI661
(F218.5362555735
F96.851295083799997
F0.0
tp646
sI662
(F228.4697217355
F101.818028165
F0.0
tp647
sI663
(F208.60278941050001
F101.818028165
F0.0
tp648
sI664
(F258.27012022299999
F121.6849604895
F0.0
tp649
sI665
(F248.3366540605
F116.71822740825
F0.0
tp650
sI666
(F258.27012022299999
F136.58515973312501
F0.0
tp651
sI667
(F317.87091719749998
F96.851295083799997
F0.0
tp652
sI668
(F317.87091719749998
F81.951095840050002
F0.0
tp653
sI669
(F307.93745103549998
F76.984362758749995
F0.0
tp654
sI670
(F268.20358638549999
F101.818028165
F0.0
tp655
sI671
(F268.20358638549999
F116.71822740825
F0.0
tp656
sI672
(F278.13705254749999
F121.68496048975
F0.0
tp657
sI673
(F248.3366540605
F62.084163515187498
F0.0
tp658
sI674
(F248.3366540605
F76.984362758749995
F0.0
tp659
sI675
(F258.27012022299999
F81.951095839800004
F0.0
tp660
sI676
(F248.3366540605
F221.01962211412501
F0.0
tp661
sI677
(F258.27012022299999
F216.05288903312501
F0.0
tp662
sI678
(F268.20358638549999
F221.01962211412501
F0.0
tp663
sI679
(F248.3366540605
F235.91982135787501
F0.0
tp664
sI680
(F258.27012022299999
F240.88655443887501
F0.0
tp665
sI681
(F268.20358638549999
F235.91982135787501
F0.0
tp666
sI682
(F307.93745103549998
F221.01962211412501
F0.0
tp667
sI683
(F307.93745103549998
F235.91982135787501
F0.0
tp668
sI684
(F288.07051871049998
F221.01962211412501
F0.0
tp669
sI685
(F298.00398487249998
F216.05288903287499
F0.0
tp670
sI686
(F298.00398487249998
F240.88655443912501
F0.0
tp671
sI687
(F288.07051871049998
F235.91982135787501
F0.0
tp672
sI688
(F99.334661624399999
F161.418825139175
F0.0
tp673
sI689
(F79.467729299399991
F161.41882513907501
F0.0
tp674
sI690
(F89.4011954618
F156.452092057925
F0.0
tp675
sI691
(F99.334661624399999
F176.31902438282501
F0.0
tp676
sI692
(F79.467729299399991
F176.31902438292499
F0.0
tp677
sI693
(F89.4011954618
F181.285757464075
F0.0
tp678
sI694
(F188.73585708600001
F141.55189281387501
F0.0
tp679
sI695
(F198.66932324850001
F161.418825139125
F0.0
tp680
sI696
(F188.73585708600001
F156.452092058125
F0.0
tp681
sI697
(F248.3366540605
F141.55189281412501
F0.0
tp682
sI698
(F238.40318789849999
F161.418825139125
F0.0
tp683
sI699
(F248.3366540605
F156.45209205787501
F0.0
tp684
sI700
(F298.00398487249998
F121.68496048975
F0.0
tp685
sI701
(F288.07051871049998
F116.71822740825
F0.0
tp686
sI702
(F307.93745103549998
F116.71822740825
F0.0
tp687
sI703
(F307.93745103549998
F101.818028165
F0.0
tp688
sI704
(F278.13705254749999
F96.851295083799997
F0.0
tp689
sI705
(F298.00398487249998
F81.951095840050002
F0.0
tp690
sI706
(F298.00398487249998
F96.851295083799997
F0.0
tp691
sI707
(F288.07051871049998
F101.818028165
F0.0
tp692
sI708
(F258.27012022299999
F57.117430434162493
F0.0
tp693
sI709
(F268.20358638549999
F37.25049810905
F0.0
tp694
sI710
(F278.13705254749999
F42.217231190349999
F0.0
tp695
sI711
(F258.27012022299999
F42.217231190100001
F0.0
tp696
sI712
(F288.07051871049998
F62.084163515187498
F0.0
tp697
sI713
(F278.13705254749999
F57.117430433912503
F0.0
tp698
sI714
(F268.20358638549999
F62.084163515187498
F0.0
tp699
sI715
(F288.07051871049998
F76.984362758749995
F0.0
tp700
sI716
(F268.20358638549999
F76.984362758749995
F0.0
tp701
sI717
(F278.13705254749999
F81.951095840050002
F0.0
tp702
sI718
(F218.5362555735
F161.418825139125
F0.0
tp703
sI719
(F228.4697217355
F156.45209205787501
F0.0
tp704
sI720
(F208.60278941050001
F156.45209205787501
F0.0
tp705
sI721
(F198.66932324850001
F121.68496048975
F0.0
tp706
sI722
(F208.60278941050001
F116.71822740825
F0.0
tp707
sI723
(F198.66932324850001
F136.58515973287501
F0.0
tp708
sI724
(F208.60278941050001
F141.55189281412501
F0.0
tp709
sI725
(F228.4697217355
F141.55189281412501
F0.0
tp710
sI726
(F218.5362555735
F136.58515973287501
F0.0
tp711
sI727
(F238.40318789849999
F136.58515973287501
F0.0
tp712
sI728
(F238.40318789849999
F121.68496048975
F0.0
tp713
sI729
(F228.4697217355
F116.71822740825
F0.0
tp714
sI730
(F218.5362555735
F121.68496048975
F0.0
tp715
stp716
Rp717
(dp718
S'scale'
p719
I2
sS'description'
p720
S'_positions'
p721
sb.