ccopy_reg
_reconstructor
p0
(copenalea.stse.io.walled_tissue.native_representation
IOTissueProperty
p1
c__builtin__
dict
p2
(dp3
I2
(lp4
sI3
(lp5
sI4
(lp6
sI6
(lp7
sI8
(lp8
sI9
(lp9
sI10
(lp10
sI11
(lp11
sI12
(lp12
sI13
(lp13
sI14
(lp14
sI16
(lp15
sI17
(lp16
sI19
(lp17
sI20
(lp18
sI21
(lp19
sI22
(lp20
sI23
(lp21
sI24
(lp22
sI25
(lp23
sI26
(lp24
sI27
(lp25
sI28
(lp26
sI29
(lp27
sI30
(lp28
sI31
(lp29
sI32
(lp30
sI33
(lp31
sI34
(lp32
sI35
(lp33
sI36
(lp34
sI37
(lp35
sI38
(lp36
sI39
(lp37
sI40
(lp38
sI41
(lp39
sI42
(lp40
sI43
(lp41
sI44
(lp42
sI45
(lp43
sI46
(lp44
sI47
(lp45
sI48
(lp46
sI49
(lp47
sI50
(lp48
sI54
(lp49
sI55
(lp50
sI56
(lp51
sI57
(lp52
sI58
(lp53
sI59
(lp54
sI60
(lp55
sI61
(lp56
sI62
(lp57
sI63
(lp58
sI64
(lp59
sI65
(lp60
sI66
(lp61
sI67
(lp62
sI68
(lp63
sI69
(lp64
sI70
(lp65
sI71
(lp66
sI72
(lp67
sI73
(lp68
sI74
(lp69
sI75
(lp70
sI76
(lp71
sI77
(lp72
sI78
(lp73
sI79
(lp74
sI80
(lp75
sI81
(lp76
sI82
(lp77
sI83
(lp78
sI84
(lp79
sI85
(lp80
sI86
(lp81
sI87
(lp82
sI88
(lp83
sI89
(lp84
sI90
(lp85
sI91
(lp86
sI92
(lp87
sI93
(lp88
sI94
(lp89
sI95
(lp90
sI96
(lp91
sI97
(lp92
sI98
(lp93
sI99
(lp94
sI100
(lp95
sI101
(lp96
sI102
(lp97
sI103
(lp98
sI104
(lp99
sI105
(lp100
sI106
(lp101
sI107
(lp102
sI108
(lp103
sI109
(lp104
sI110
(lp105
sI111
(lp106
sI112
(lp107
sI113
(lp108
sI114
(lp109
sI115
(lp110
sI116
(lp111
sI117
(lp112
sI118
(lp113
sI119
(lp114
sI120
(lp115
sI123
(lp116
sI124
(lp117
sI125
(lp118
sI126
(lp119
sI127
(lp120
sI128
(lp121
sI129
(lp122
sI130
(lp123
sI131
(lp124
sI132
(lp125
sI133
(lp126
sI135
(lp127
sI136
(lp128
sI137
(lp129
sI140
(lp130
sI141
(lp131
sI142
(lp132
sI143
(lp133
sI144
(lp134
sI145
(lp135
sI146
(lp136
sI147
(lp137
sI149
(lp138
sI150
(lp139
sI151
(lp140
sI152
(lp141
sI153
(lp142
sI154
(lp143
sI155
(lp144
sI156
(lp145
sI157
(lp146
sI158
(lp147
sI159
(lp148
sI160
(lp149
sI161
(lp150
sI162
(lp151
sI163
(lp152
sI164
(lp153
sI165
(lp154
sI166
(lp155
sI167
(lp156
sI168
(lp157
sI169
(lp158
sI170
(lp159
sI171
(lp160
sI172
(lp161
sI173
(lp162
sI174
(lp163
sI175
(lp164
sI176
(lp165
sI177
(lp166
sI178
(lp167
sI179
(lp168
sI180
(lp169
sI181
(lp170
sI182
(lp171
sI183
(lp172
sI184
(lp173
sI185
(lp174
sI186
(lp175
sI189
(lp176
sI190
(lp177
sI191
(lp178
sI192
(lp179
sI193
(lp180
sI194
(lp181
sI195
(lp182
sI196
(lp183
sI197
(lp184
sI198
(lp185
sI199
(lp186
sI200
(lp187
sI201
(lp188
sI202
(lp189
sI203
(lp190
sI204
(lp191
sI205
(lp192
sI206
(lp193
sI207
(lp194
sI208
(lp195
sI209
(lp196
sI210
(lp197
sI211
(lp198
sI212
(lp199
sI213
(lp200
sI214
(lp201
sI215
(lp202
sI216
(lp203
sI217
(lp204
sI218
(lp205
sI219
(lp206
sI220
(lp207
sI221
(lp208
sI222
(lp209
sI223
(lp210
sI224
(lp211
sI225
(lp212
sI226
(lp213
sI227
(lp214
sI228
(lp215
sI229
(lp216
sI230
(lp217
sI231
(lp218
sI232
(lp219
sI233
(lp220
sI234
(lp221
sI235
(lp222
sI236
(lp223
sI237
(lp224
sI238
(lp225
sI239
(lp226
sI240
(lp227
sI241
(lp228
sI242
(lp229
sI243
(lp230
sI244
(lp231
sI245
(lp232
sI247
(lp233
sI248
(lp234
sI249
(lp235
sI250
(lp236
sI251
(lp237
sI252
(lp238
sI253
(lp239
sI254
(lp240
sI255
(lp241
sI256
(lp242
sI257
(lp243
sI258
(lp244
sI259
(lp245
sI260
(lp246
sI261
(lp247
sI262
(lp248
sI263
(lp249
sI264
(lp250
sI265
(lp251
sI266
(lp252
sI267
(lp253
sI268
(lp254
sI269
(lp255
sI270
(lp256
sI271
(lp257
sI272
(lp258
sI273
(lp259
sI274
(lp260
sI275
(lp261
sI276
(lp262
sI277
(lp263
sI278
(lp264
sI279
(lp265
sI280
(lp266
sI281
(lp267
sI282
(lp268
sI283
(lp269
sI284
(lp270
sI285
(lp271
sI286
(lp272
sI287
(lp273
sI288
(lp274
sI289
(lp275
sI290
(lp276
sI291
(lp277
sI292
(lp278
sI293
(lp279
sI294
(lp280
sI295
(lp281
sI296
(lp282
sI297
(lp283
sI298
(lp284
sI299
(lp285
sI300
(lp286
sI301
(lp287
sI302
(lp288
sI303
(lp289
sI304
(lp290
sI305
(lp291
sI306
(lp292
sI307
(lp293
sI308
(lp294
sI309
(lp295
sI310
(lp296
sI311
(lp297
sI312
(lp298
sI313
(lp299
sI314
(lp300
sI315
(lp301
sI316
(lp302
sI317
(lp303
sI318
(lp304
sI319
(lp305
sI320
(lp306
sI321
(lp307
sI322
(lp308
sI323
(lp309
sI324
(lp310
sI325
(lp311
sI326
(lp312
sI327
(lp313
sI328
(lp314
sI329
(lp315
sI330
(lp316
sI331
(lp317
sI332
(lp318
sI333
(lp319
sI334
(lp320
sI335
(lp321
sI336
(lp322
sI337
(lp323
sI338
(lp324
sI339
(lp325
sI340
(lp326
sI341
(lp327
sI342
(lp328
sI343
(lp329
sI344
(lp330
sI345
(lp331
sI346
(lp332
sI347
(lp333
sI349
(lp334
sI350
(lp335
sI351
(lp336
sI352
(lp337
sI353
(lp338
sI354
(lp339
sI355
(lp340
sI356
(lp341
sI357
(lp342
sI358
(lp343
sI359
(lp344
sI360
(lp345
sI361
(lp346
sI362
(lp347
sI363
(lp348
sI364
(lp349
sI365
(lp350
sI366
(lp351
sI367
(lp352
sI368
(lp353
sI369
(lp354
sI370
(lp355
sI371
(lp356
sI372
(lp357
sI373
(lp358
sI374
(lp359
sI375
(lp360
sI376
(lp361
sI377
(lp362
sI378
(lp363
sI379
(lp364
sI380
(lp365
sI381
(lp366
sI382
(lp367
sI383
(lp368
sI384
(lp369
sI385
(lp370
sI386
(lp371
sI387
(lp372
sI388
(lp373
sI389
(lp374
sI390
(lp375
sI391
(lp376
sI392
(lp377
sI393
(lp378
sI394
(lp379
sI395
(lp380
sI396
(lp381
sI397
(lp382
sI398
(lp383
sI399
(lp384
sI400
(lp385
sI401
(lp386
sI402
(lp387
sI403
(lp388
sI404
(lp389
sI405
(lp390
sI406
(lp391
sI407
(lp392
sI408
(lp393
sI409
(lp394
sI410
(lp395
sI411
(lp396
sI412
(lp397
sI413
(lp398
sI414
(lp399
sI415
(lp400
sI416
(lp401
sI417
(lp402
sI418
(lp403
sI419
(lp404
sI420
(lp405
sI421
(lp406
sI422
(lp407
sI423
(lp408
sI424
(lp409
sI425
(lp410
sI426
(lp411
sI427
(lp412
sI428
(lp413
sI429
(lp414
sI430
(lp415
sI431
(lp416
sI432
(lp417
sI433
(lp418
sI434
(lp419
sI435
(lp420
sI436
(lp421
sI437
(lp422
sI438
(lp423
sI439
(lp424
sI440
(lp425
sI441
(lp426
sI442
(lp427
sI443
(lp428
sI444
(lp429
sI445
(lp430
sI446
(lp431
sI447
(lp432
sI448
(lp433
sI449
(lp434
sI450
(lp435
sI451
(lp436
sI452
(lp437
sI453
(lp438
sI454
(lp439
sI455
(lp440
sI456
(lp441
sI457
(lp442
sI458
(lp443
sI459
(lp444
sI460
(lp445
sI461
(lp446
sI462
(lp447
sI463
(lp448
sI464
(lp449
sI465
(lp450
sI466
(lp451
sI467
(lp452
sI468
(lp453
sI469
(lp454
sI470
(lp455
sI471
(lp456
sI472
(lp457
sI473
(lp458
sI474
(lp459
sI475
(lp460
sI476
(lp461
sI477
(lp462
sI478
(lp463
sI479
(lp464
sI480
(lp465
sI481
(lp466
sI482
(lp467
sI483
(lp468
sI484
(lp469
sI485
(lp470
sI486
(lp471
sI487
(lp472
sI488
(lp473
sI489
(lp474
sI490
(lp475
sI491
(lp476
sI492
(lp477
sI493
(lp478
sI494
(lp479
sI495
(lp480
sI496
(lp481
sI497
(lp482
sI498
(lp483
sI499
(lp484
sI500
(lp485
sI501
(lp486
sI502
(lp487
sI503
(lp488
sI504
(lp489
sI505
(lp490
sI506
(lp491
sI507
(lp492
sI508
(lp493
sI509
(lp494
sI510
(lp495
sI511
(lp496
sI512
(lp497
sI513
(lp498
sI514
(lp499
sI515
(lp500
sI516
(lp501
sI517
(lp502
sI518
(lp503
sI519
(lp504
sI520
(lp505
sI521
(lp506
sI522
(lp507
sI523
(lp508
sI524
(lp509
sI525
(lp510
sI526
(lp511
sI527
(lp512
sI528
(lp513
sI529
(lp514
sI530
(lp515
sI531
(lp516
sI532
(lp517
sI533
(lp518
sI534
(lp519
sI535
(lp520
sI536
(lp521
sI537
(lp522
sI538
(lp523
sI539
(lp524
sI540
(lp525
sI541
(lp526
sI542
(lp527
sI543
(lp528
sI544
(lp529
sI545
(lp530
sI546
(lp531
sI547
(lp532
sI548
(lp533
sI549
(lp534
sI550
(lp535
sI551
(lp536
sI552
(lp537
sI553
(lp538
sI554
(lp539
sI555
(lp540
sI556
(lp541
sI557
(lp542
sI558
(lp543
sI559
(lp544
sI560
(lp545
sI561
(lp546
sI562
(lp547
sI563
(lp548
sI564
(lp549
sI565
(lp550
sI566
(lp551
sI567
(lp552
sI568
(lp553
sI569
(lp554
sI570
(lp555
sI571
(lp556
sI572
(lp557
sI573
(lp558
sI574
(lp559
sI575
(lp560
sI576
(lp561
sI577
(lp562
sI578
(lp563
sI579
(lp564
sI580
(lp565
sI581
(lp566
sI582
(lp567
sI583
(lp568
sI584
(lp569
sI585
(lp570
sI586
(lp571
sI587
(lp572
sI588
(lp573
sI589
(lp574
sI590
(lp575
sI591
(lp576
sI592
(lp577
sI593
(lp578
sI594
(lp579
sI595
(lp580
sI596
(lp581
sI597
(lp582
sI598
(lp583
sI599
(lp584
sI600
(lp585
sI601
(lp586
sI602
(lp587
sI603
(lp588
sI604
(lp589
sI605
(lp590
sI606
(lp591
sI607
(lp592
sI608
(lp593
sI609
(lp594
sI610
(lp595
sI611
(lp596
sI612
(lp597
sI613
(lp598
sI614
(lp599
sI615
(lp600
sI616
(lp601
sI617
(lp602
sI618
(lp603
sI619
(lp604
sI620
(lp605
sI621
(lp606
sI622
(lp607
sI623
(lp608
sI624
(lp609
sI625
(lp610
sI626
(lp611
sI627
(lp612
sI628
(lp613
sI629
(lp614
sI630
(lp615
sI631
(lp616
sI632
(lp617
sI633
(lp618
sI634
(lp619
sI635
(lp620
sI636
(lp621
sI637
(lp622
sI638
(lp623
sI639
(lp624
sI640
(lp625
sI641
(lp626
sI642
(lp627
sI643
(lp628
sI644
(lp629
sI645
(lp630
sI646
(lp631
sI647
(lp632
sI648
(lp633
sI649
(lp634
sI650
(lp635
sI651
(lp636
sI652
(lp637
sI653
(lp638
sI654
(lp639
sI655
(lp640
sI656
(lp641
sI657
(lp642
sI658
(lp643
sI659
(lp644
sI660
(lp645
sI661
(lp646
sI662
(lp647
sI663
(lp648
sI664
(lp649
sI665
(lp650
sI666
(lp651
sI667
(lp652
sI668
(lp653
sI669
(lp654
sI670
(lp655
sI671
(lp656
sI672
(lp657
sI673
(lp658
sI674
(lp659
sI675
(lp660
sI676
(lp661
sI677
(lp662
sI678
(lp663
sI679
(lp664
sI680
(lp665
sI681
(lp666
sI682
(lp667
sI683
(lp668
sI684
(lp669
sI685
(lp670
sI686
(lp671
sI687
(lp672
sI688
(lp673
sI689
(lp674
sI690
(lp675
sI691
(lp676
sI692
(lp677
sI693
(lp678
sI694
(lp679
sI695
(lp680
sI696
(lp681
sI697
(lp682
sI698
(lp683
sI699
(lp684
sI700
(lp685
sI701
(lp686
sI702
(lp687
sI703
(lp688
sI704
(lp689
sI705
(lp690
sI706
(lp691
sI707
(lp692
sI708
(lp693
sI709
(lp694
sI710
(lp695
sI711
(lp696
sI712
(lp697
sI713
(lp698
sI714
(lp699
sI715
(lp700
sI716
(lp701
sI717
(lp702
sI718
(lp703
sI719
(lp704
sI720
(lp705
sI721
(lp706
sI722
(lp707
sI723
(lp708
sI724
(lp709
sI725
(lp710
sI726
(lp711
sI727
(lp712
sI728
(lp713
sI729
(lp714
sI730
(lp715
stp716
Rp717
(dp718
S'scale'
p719
I2
sS'description'
p720
S''
p721
sb.