ccopy_reg
_reconstructor
p0
(copenalea.stse.io.walled_tissue.native_representation
IOTissueProperty
p1
c__builtin__
dict
p2
(dp3
I19
(lp4
I211
aI205
aI204
aI206
aI209
aI874
asI20
(lp5
I209
aI207
aI208
aI228
aI499
aI871
asI21
(lp6
I499
aI498
aI617
aI618
aI734
aI870
asI22
(lp7
I619
aI617
aI616
aI615
aI614
aI620
asI23
(lp8
I621
aI620
aI622
aI624
aI623
aI930
asI24
(lp9
I389
aI152
aI151
aI380
aI388
aI624
asI25
(lp10
I380
aI379
aI381
aI382
aI383
aI387
asI26
(lp11
I6
aI3
aI1
aI0
aI146
aI381
asI27
(lp12
I376
aI147
aI0
aI2
aI545
aI774
asI28
(lp13
I545
aI544
aI546
aI547
aI549
aI772
asI29
(lp14
I768
aI770
aI549
aI548
aI553
aI776
asI30
(lp15
I553
aI552
aI550
aI551
aI759
aI775
asI31
(lp16
I779
aI759
aI758
aI757
aI886
aI894
asI32
(lp17
I757
aI295
aI296
aI297
aI301
aI887
asI33
(lp18
I301
aI300
aI298
aI299
aI593
aI888
asI34
(lp19
I117
aI4
aI5
aI44
aI50
aI298
asI37
(lp20
I854
aI853
aI478
aI210
aI211
aI875
asI38
(lp21
I874
aI871
aI870
aI872
aI873
aI875
asI39
(lp22
I734
aI733
aI810
aI735
aI737
aI872
asI40
(lp23
I811
aI733
aI618
aI619
aI621
aI931
asI41
(lp24
I935
aI933
aI932
aI931
aI930
aI934
asI42
(lp25
I623
aI388
aI387
aI385
aI386
aI934
asI43
(lp26
I384
aI385
aI383
aI370
aI369
aI608
asI44
(lp27
I146
aI147
aI375
aI371
aI370
aI382
asI45
(lp28
I373
aI374
aI377
aI375
aI376
aI773
asI46
(lp29
I772
aI770
aI769
aI771
aI773
aI774
asI47
(lp30
I765
aI762
aI760
aI769
aI768
aI777
asI48
(lp31
I778
aI777
aI776
aI775
aI779
aI893
asI49
(lp32
I895
aI891
aI892
aI893
aI894
aI896
asI50
(lp33
I886
aI887
aI888
aI890
aI889
aI896
asI51
(lp34
I593
aI592
aI595
aI594
aI596
aI890
asI52
(lp35
I299
aI50
aI48
aI49
aI340
aI592
asI55
(lp36
I856
aI855
aI857
aI853
aI852
aI860
asI56
(lp37
I737
aI736
aI861
aI852
aI854
aI873
asI57
(lp38
I736
aI735
aI809
aI802
aI800
aI863
asI58
(lp39
I807
aI808
aI809
aI810
aI811
aI932
asI59
(lp40
I150
aI148
aI220
aI613
aI807
aI933
asI60
(lp41
I386
aI384
aI609
aI149
aI150
aI935
asI61
(lp42
I796
aI610
aI609
aI608
aI607
aI983
asI62
(lp43
I607
aI369
aI371
aI377
aI378
aI984
asI63
(lp44
I378
aI374
aI372
aI605
aI798
aI986
asI64
(lp45
I760
aI761
aI606
aI372
aI373
aI771
asI65
(lp46
I764
aI763
aI761
aI762
aI766
aI767
asI66
(lp47
I563
aI562
aI766
aI765
aI778
aI892
asI67
(lp48
I556
aI135
aI134
aI561
aI563
aI891
asI68
(lp49
I889
aI596
aI554
aI555
aI556
aI895
asI69
(lp50
I343
aI342
aI358
aI360
aI554
aI594
asI70
(lp51
I340
aI339
aI338
aI341
aI343
aI595
asI73
(lp52
I732
aI493
aI492
aI491
aI856
aI859
asI74
(lp53
I862
aI858
aI859
aI860
aI861
aI863
asI75
(lp54
I800
aI801
aI806
aI804
aI803
aI862
asI76
(lp55
I613
aI612
aI611
aI801
aI802
aI808
asI77
(lp56
I220
aI221
aI585
aI483
aI485
aI612
asI78
(lp57
I586
aI221
aI148
aI149
aI610
aI793
asI79
(lp58
I922
aI795
aI794
aI793
aI796
aI981
asI80
(lp59
I985
aI982
aI981
aI983
aI984
aI986
asI81
(lp60
I798
aI797
aI799
aI927
aI928
aI985
asI82
(lp61
I605
aI606
aI763
aI604
aI603
aI797
asI83
(lp62
I557
aI307
aI305
aI368
aI604
aI764
asI84
(lp63
I562
aI561
aI559
aI558
aI557
aI767
asI85
(lp64
I560
aI559
aI134
aI136
aI350
aI652
asI86
(lp65
I360
aI361
aI351
aI136
aI135
aI555
asI87
(lp66
I361
aI358
aI359
aI363
aI364
aI365
asI88
(lp67
I342
aI341
aI336
aI337
aI346
aI359
asI91
(lp68
I227
aI226
aI225
aI493
aI731
aI864
asI92
(lp69
I731
aI732
aI858
aI803
aI805
aI867
asI93
(lp70
I805
aI804
aI495
aI494
aI496
aI869
asI94
(lp71
I611
aI485
aI484
aI489
aI495
aI806
asI95
(lp72
I486
aI487
aI488
aI484
aI483
aI587
asI96
(lp73
I584
aI583
aI587
aI585
aI586
aI794
asI97
(lp74
I590
aI334
aI335
aI584
aI795
aI920
asI98
(lp75
I928
aI926
aI921
aI920
aI922
aI982
asI99
(lp76
I925
aI923
aI924
aI926
aI927
aI929
asI100
(lp77
I799
aI603
aI368
aI366
aI367
aI929
asI101
(lp78
I305
aI306
aI303
aI302
aI304
aI366
asI102
(lp79
I308
aI306
aI307
aI558
aI560
aI655
asI103
(lp80
I652
aI653
aI650
aI651
aI654
aI655
asI104
(lp81
I350
aI351
aI365
aI349
aI348
aI653
asI105
(lp82
I357
aI347
aI349
aI364
aI362
aI597
asI106
(lp83
I362
aI363
aI346
aI344
aI345
aI598
asI109
(lp84
I203
aI64
aI63
aI65
aI227
aI865
asI110
(lp85
I868
aI866
aI865
aI864
aI867
aI869
asI111
(lp86
I496
aI497
aI724
aI223
aI224
aI868
asI112
(lp87
I497
aI494
aI489
aI488
aI490
aI725
asI113
(lp88
I490
aI487
aI330
aI331
aI332
aI729
asI114
(lp89
I335
aI328
aI327
aI330
aI486
aI583
asI115
(lp90
I582
aI578
aI329
aI328
aI334
aI588
asI116
(lp91
I591
aI589
aI588
aI590
aI921
aI924
asI117
(lp92
I121
aI122
aI144
aI324
aI591
aI923
asI118
(lp93
I367
aI304
aI119
aI120
aI121
aI925
asI119
(lp94
I129
aI124
aI123
aI118
aI119
aI302
asI120
(lp95
I401
aI130
aI129
aI303
aI308
aI654
asI121
(lp96
I397
aI398
aI399
aI400
aI401
aI651
asI122
(lp97
I348
aI347
aI355
aI356
aI397
aI650
asI123
(lp98
I352
aI353
aI354
aI355
aI357
aI599
asI124
(lp99
I601
aI600
aI599
aI597
aI598
aI602
asI127
(lp100
I261
aI61
aI62
aI64
aI202
aI510
asI128
(lp101
I224
aI222
aI508
aI202
aI203
aI866
asI129
(lp102
I509
aI222
aI223
aI727
aI726
aI743
asI130
(lp103
I728
aI727
aI724
aI725
aI729
aI730
asI131
(lp104
I218
aI219
aI730
aI332
aI333
aI792
asI132
(lp105
I333
aI331
aI327
aI329
aI577
aI790
asI133
(lp106
I577
aI578
aI581
aI580
aI579
aI788
asI134
(lp107
I324
aI323
aI322
aI581
aI582
aI589
asI135
(lp108
I144
aI143
aI142
aI140
aI145
aI323
asI136
(lp109
I122
aI120
aI118
aI126
aI128
aI143
asI137
(lp110
I127
aI126
aI123
aI125
aI396
aI405
asI138
(lp111
I395
aI394
aI125
aI124
aI130
aI400
asI139
(lp112
I393
aI395
aI399
aI167
aI166
aI647
asI140
(lp113
I356
aI354
aI133
aI132
aI167
aI398
asI141
(lp114
I131
aI133
aI353
aI160
aI158
aI390
asI142
(lp115
I116
aI115
aI159
aI160
aI352
aI600
asI145
(lp116
I262
aI260
aI259
aI261
aI511
aI884
asI146
(lp117
I511
aI510
aI508
aI509
aI744
aI883
asI147
(lp118
I744
aI743
aI747
aI745
aI746
aI882
asI148
(lp119
I726
aI728
aI219
aI215
aI216
aI747
asI149
(lp120
I712
aI217
aI215
aI218
aI791
aI839
asI150
(lp121
I791
aI792
aI790
aI788
aI789
aI837
asI151
(lp122
I838
aI789
aI579
aI326
aI325
aI987
asI152
(lp123
I322
aI145
aI137
aI138
aI326
aI580
asI153
(lp124
I139
aI137
aI140
aI141
aI169
aI411
asI154
(lp125
I168
aI141
aI142
aI128
aI127
aI406
asI155
(lp126
I407
aI406
aI405
aI402
aI403
aI658
asI156
(lp127
I404
aI402
aI396
aI394
aI393
aI646
asI157
(lp128
I644
aI645
aI646
aI647
aI648
aI649
asI158
(lp129
I166
aI132
aI131
aI392
aI642
aI648
asI159
(lp130
I392
aI390
aI391
aI635
aI634
aI640
asI160
(lp131
I391
aI158
aI159
aI161
aI162
aI636
asI163
(lp132
I99
aI97
aI257
aI258
aI262
aI885
asI164
(lp133
I883
aI882
aI880
aI881
aI885
aI884
asI165
(lp134
I746
aI479
aI480
aI212
aI213
aI880
asI166
(lp135
I216
aI217
aI711
aI481
aI479
aI745
asI167
(lp136
I951
aI713
aI711
aI712
aI840
aI1020
asI168
(lp137
I840
aI839
aI837
aI838
aI988
aI1021
asI169
(lp138
I988
aI987
aI990
aI989
aI1019
aI1023
asI170
(lp139
I325
aI138
aI139
aI415
aI416
aI990
asI171
(lp140
I411
aI412
aI409
aI410
aI414
aI415
asI172
(lp141
I413
aI412
aI169
aI168
aI407
aI656
asI173
(lp142
I659
aI657
aI656
aI658
aI660
aI661
asI174
(lp143
I403
aI404
aI645
aI155
aI156
aI660
asI175
(lp144
I643
aI626
aI627
aI157
aI155
aI644
asI176
(lp145
I642
aI640
aI639
aI641
aI643
aI649
asI177
(lp146
I634
aI633
aI471
aI466
aI467
aI639
asI178
(lp147
I637
aI632
aI633
aI635
aI636
aI638
asI181
(lp148
I255
aI254
aI256
aI97
aI98
aI500
asI182
(lp149
I213
aI214
aI501
aI98
aI99
aI881
asI183
(lp150
I503
aI214
aI212
aI482
aI710
aI739
asI184
(lp151
I709
aI482
aI480
aI481
aI713
aI949
asI185
(lp152
I950
aI948
aI949
aI951
aI1022
aI1030
asI186
(lp153
I1022
aI1020
aI1021
aI1023
aI1024
aI1027
asI187
(lp154
I1024
aI1019
aI1016
aI1017
aI1018
aI1026
asI188
(lp155
I989
aI416
aI414
aI47
aI46
aI1016
asI189
(lp156
I45
aI47
aI410
aI408
aI420
aI570
asI190
(lp157
I426
aI421
aI408
aI409
aI413
aI657
asI191
(lp158
I424
aI423
aI425
aI427
aI426
aI659
asI192
(lp159
I156
aI157
aI628
aI422
aI424
aI661
asI193
(lp160
I628
aI627
aI625
aI629
aI630
aI631
asI194
(lp161
I467
aI465
aI468
aI625
aI626
aI641
asI195
(lp162
I469
aI465
aI466
aI470
aI472
aI690
asI196
(lp163
I153
aI154
aI190
aI470
aI471
aI632
asI199
(lp164
I507
aI252
aI253
aI255
aI502
aI878
asI200
(lp165
I502
aI500
aI501
aI503
aI738
aI876
asI201
(lp166
I877
aI738
aI739
aI742
aI740
aI965
asI202
(lp167
I836
aI741
aI742
aI710
aI709
aI948
asI203
(lp168
I955
aI834
aI835
aI836
aI950
aI1029
asI204
(lp169
I1027
aI1026
aI1025
aI1028
aI1029
aI1030
asI205
(lp170
I1018
aI994
aI993
aI991
aI992
aI1025
asI206
(lp171
I46
aI45
aI569
aI572
aI994
aI1017
asI207
(lp172
I574
aI573
aI569
aI570
aI571
aI576
asI208
(lp173
I420
aI421
aI427
aI419
aI417
aI571
asI209
(lp174
I418
aI419
aI425
aI171
aI172
aI970
asI210
(lp175
I197
aI170
aI171
aI423
aI422
aI631
asI211
(lp176
I191
aI192
aI194
aI196
aI197
aI630
asI212
(lp177
I193
aI191
aI629
aI468
aI469
aI691
asI213
(lp178
I692
aI694
aI691
aI690
aI695
aI696
asI214
(lp179
I472
aI190
aI189
aI188
aI187
aI695
asI217
(lp180
I506
aI504
aI505
aI507
aI879
aI1008
asI218
(lp181
I879
aI878
aI876
aI877
aI966
aI1006
asI219
(lp182
I1005
aI966
aI965
aI967
aI968
aI1013
asI220
(lp183
I740
aI741
aI835
aI749
aI748
aI967
asI221
(lp184
I750
aI749
aI834
aI952
aI954
aI962
asI222
(lp185
I992
aI956
aI953
aI952
aI955
aI1028
asI223
(lp186
I567
aI568
aI717
aI720
aI956
aI991
asI224
(lp187
I572
aI573
aI566
aI565
aI567
aI993
asI225
(lp188
I564
aI566
aI574
aI575
aI906
aI917
asI226
(lp189
I907
aI575
aI576
aI417
aI418
aI969
asI227
(lp190
I972
aI971
aI969
aI970
aI973
aI974
asI228
(lp191
I172
aI170
aI196
aI164
aI163
aI973
asI229
(lp192
I165
aI164
aI194
aI195
aI702
aI704
asI230
(lp193
I195
aI192
aI193
aI694
aI693
aI698
asI231
(lp194
I693
aI692
aI463
aI464
aI474
aI697
asI232
(lp195
I187
aI185
aI186
aI462
aI463
aI696
asI235
(lp196
I94
aI95
aI96
aI251
aI506
aI1007
asI236
(lp197
I1009
aI1007
aI1008
aI1006
aI1005
aI1012
asI237
(lp198
I1014
aI1011
aI1010
aI1012
aI1013
aI1015
asI238
(lp199
I968
aI748
aI750
aI961
aI1001
aI1015
asI239
(lp200
I961
aI962
aI963
aI964
aI997
aI1000
asI240
(lp201
I954
aI953
aI720
aI721
aI722
aI963
asI241
(lp202
I723
aI721
aI717
aI716
aI715
aI845
asI242
(lp203
I714
aI716
aI568
aI565
aI564
aI916
asI243
(lp204
I918
aI914
aI915
aI916
aI917
aI919
asI244
(lp205
I905
aI903
aI919
aI906
aI907
aI971
asI245
(lp206
I904
aI905
aI972
aI897
aI899
aI978
asI246
(lp207
I163
aI165
aI703
aI898
aI897
aI974
asI247
(lp208
I703
aI704
aI708
aI705
aI707
aI900
asI248
(lp209
I702
aI698
aI697
aI699
aI701
aI708
asI249
(lp210
I700
aI699
aI474
aI473
aI475
aI819
asI250
(lp211
I464
aI462
aI460
aI459
aI461
aI473
asI253
(lp212
I27
aI28
aI95
aI93
aI111
aI277
asI254
(lp213
I529
aI110
aI93
aI94
aI1009
aI1010
asI255
(lp214
I1003
aI960
aI531
aI530
aI529
aI1011
asI256
(lp215
I1001
aI1000
aI1004
aI1002
aI1003
aI1014
asI257
(lp216
I997
aI995
aI996
aI998
aI999
aI1004
asI258
(lp217
I964
aI722
aI723
aI844
aI846
aI995
asI259
(lp218
I843
aI841
aI842
aI844
aI845
aI847
asI260
(lp219
I786
aI785
aI847
aI715
aI714
aI915
asI261
(lp220
I910
aI911
aI787
aI784
aI786
aI914
asI262
(lp221
I912
aI910
aI918
aI903
aI904
aI979
asI263
(lp222
I977
aI975
aI976
aI979
aI978
aI980
asI264
(lp223
I899
aI898
aI900
aI902
aI901
aI980
asI265
(lp224
I476
aI477
aI902
aI707
aI706
aI938
asI266
(lp225
I706
aI705
aI701
aI700
aI818
aI936
asI267
(lp226
I818
aI819
aI822
aI820
aI821
aI937
asI268
(lp227
I475
aI461
aI60
aI59
aI198
aI822
asI271
(lp228
I276
aI275
aI277
aI278
aI280
aI525
asI272
(lp229
I282
aI279
aI278
aI111
aI110
aI530
asI273
(lp230
I287
aI285
aI283
aI282
aI531
aI959
asI274
(lp231
I999
aI958
aI957
aI959
aI960
aI1002
asI275
(lp232
I851
aI850
aI848
aI849
aI958
aI998
asI276
(lp233
I846
aI842
aI719
aI718
aI851
aI996
asI277
(lp234
I313
aI312
aI246
aI245
aI719
aI841
asI278
(lp235
I785
aI784
aI309
aI311
aI313
aI843
asI279
(lp236
I317
aI318
aI310
aI309
aI787
aI913
asI280
(lp237
I908
aI909
aI913
aI911
aI912
aI976
asI281
(lp238
I782
aI783
aI781
aI780
aI908
aI975
asI282
(lp239
I901
aI477
aI52
aI53
aI782
aI977
asI283
(lp240
I825
aI824
aI51
aI52
aI476
aI941
asI284
(lp241
I938
aI936
aI937
aI939
aI940
aI941
asI285
(lp242
I821
aI673
aI674
aI675
aI676
aI939
asI286
(lp243
I198
aI199
aI200
aI201
aI673
aI820
asI289
(lp244
I528
aI526
aI527
aI525
aI524
aI756
asI290
(lp245
I524
aI280
aI279
aI283
aI284
aI751
asI291
(lp246
I284
aI285
aI286
aI294
aI542
aI752
asI292
(lp247
I849
aI293
aI291
aI286
aI287
aI957
asI293
(lp248
I88
aI90
aI536
aI292
aI293
aI848
asI294
(lp249
I718
aI245
aI247
aI89
aI88
aI850
asI295
(lp250
I250
aI249
aI248
aI247
aI246
aI314
asI296
(lp251
I315
aI314
aI312
aI311
aI310
aI321
asI297
(lp252
I319
aI320
aI321
aI318
aI316
aI458
asI298
(lp253
I780
aI455
aI454
aI316
aI317
aI909
asI299
(lp254
I449
aI447
aI450
aI456
aI455
aI781
asI300
(lp255
I448
aI449
aI783
aI53
aI51
aI826
asI301
(lp256
I828
aI827
aI826
aI824
aI823
aI833
asI302
(lp257
I676
aI677
aI831
aI823
aI825
aI940
asI303
(lp258
I677
aI675
aI437
aI438
aI439
aI829
asI304
(lp259
I201
aI57
aI58
aI436
aI437
aI674
asI307
(lp260
I521
aI112
aI113
aI281
aI528
aI755
asI308
(lp261
I751
aI752
aI753
aI754
aI755
aI756
asI309
(lp262
I542
aI541
aI539
aI540
aI543
aI753
asI310
(lp263
I294
aI291
aI292
aI535
aI534
aI541
asI311
(lp264
I533
aI532
aI535
aI536
aI537
aI538
asI312
(lp265
I90
aI89
aI248
aI91
aI92
aI537
asI313
(lp266
I35
aI32
aI31
aI30
aI91
aI249
asI314
(lp267
I56
aI34
aI35
aI250
aI315
aI320
asI315
(lp268
I184
aI54
aI55
aI56
aI319
aI457
asI316
(lp269
I454
aI456
aI453
aI451
aI457
aI458
asI317
(lp270
I452
aI453
aI450
aI446
aI445
aI667
asI318
(lp271
I444
aI443
aI446
aI447
aI448
aI827
asI319
(lp272
I181
aI180
aI444
aI828
aI832
aI943
asI320
(lp273
I832
aI833
aI831
aI829
aI830
aI945
asI321
(lp274
I830
aI439
aI440
aI683
aI687
aI947
asI322
(lp275
I440
aI438
aI436
aI435
aI434
aI684
asI325
(lp276
I269
aI265
aI263
aI114
aI112
aI520
asI326
(lp277
I543
aI523
aI522
aI520
aI521
aI754
asI327
(lp278
I512
aI514
aI273
aI272
aI523
aI540
asI328
(lp279
I534
aI532
aI519
aI513
aI512
aI539
asI329
(lp280
I289
aI288
aI290
aI518
aI519
aI533
asI330
(lp281
I92
aI30
aI29
aI84
aI289
aI538
asI331
(lp282
I29
aI31
aI33
aI39
aI40
aI82
asI332
(lp283
I42
aI41
aI33
aI32
aI34
aI55
asI333
(lp284
I68
aI70
aI43
aI42
aI54
aI182
asI334
(lp285
I183
aI182
aI184
aI451
aI452
aI672
asI335
(lp286
I667
aI666
aI668
aI669
aI671
aI672
asI336
(lp287
I445
aI443
aI180
aI179
aI429
aI666
asI337
(lp288
I681
aI663
aI428
aI179
aI181
aI942
asI338
(lp289
I946
aI944
aI942
aI943
aI945
aI947
asI339
(lp290
I687
aI685
aI441
aI442
aI680
aI946
asI340
(lp291
I689
aI686
aI685
aI683
aI684
aI688
asI343
(lp292
I109
aI105
aI104
aI264
aI265
aI270
asI344
(lp293
I272
aI274
aI271
aI270
aI269
aI522
asI345
(lp294
I268
aI266
aI267
aI274
aI273
aI515
asI346
(lp295
I517
aI516
aI515
aI514
aI513
aI518
asI347
(lp296
I290
aI80
aI26
aI25
aI85
aI517
asI348
(lp297
I84
aI82
aI83
aI81
aI80
aI288
asI349
(lp298
I40
aI36
aI38
aI75
aI77
aI83
asI350
(lp299
I37
aI36
aI39
aI41
aI43
aI73
asI351
(lp300
I70
aI69
aI66
aI67
aI72
aI73
asI352
(lp301
I175
aI71
aI69
aI68
aI183
aI671
asI353
(lp302
I174
aI173
aI175
aI669
aI670
aI816
asI354
(lp303
I670
aI668
aI429
aI428
aI662
aI815
asI355
(lp304
I662
aI663
aI682
aI665
aI664
aI814
asI356
(lp305
I680
aI678
aI679
aI682
aI681
aI944
asI357
(lp306
I442
aI230
aI231
aI239
aI433
aI678
asI358
(lp307
I18
aI19
aI232
aI230
aI441
aI686
asI361
(lp308
I102
aI100
aI101
aI103
aI105
aI108
asI362
(lp309
I267
aI106
aI107
aI108
aI109
aI271
asI363
(lp310
I242
aI241
aI20
aI21
aI106
aI266
asI364
(lp311
I85
aI86
aI243
aI242
aI268
aI516
asI365
(lp312
I86
aI25
aI24
aI23
aI87
aI244
asI366
(lp313
I77
aI78
aI22
aI24
aI26
aI81
asI367
(lp314
I79
aI78
aI75
aI74
aI76
aI229
asI368
(lp315
I38
aI37
aI72
aI17
aI16
aI74
asI369
(lp316
I14
aI12
aI13
aI15
aI17
aI67
asI370
(lp317
I11
aI10
aI14
aI66
aI71
aI173
asI371
(lp318
I8
aI7
aI9
aI11
aI174
aI817
asI372
(lp319
I816
aI815
aI814
aI812
aI813
aI817
asI373
(lp320
I664
aI430
aI178
aI176
aI177
aI812
asI374
(lp321
I433
aI432
aI431
aI430
aI665
aI679
asI375
(lp322
I239
aI238
aI236
aI237
aI240
aI432
asI376
(lp323
I231
aI232
aI233
aI234
aI235
aI238
astp324
Rp325
(dp326
S'scale'
p327
I0
sS'description'
p328
S''
p329
sb.